ARM GAS  C:\Users\charl\AppData\Local\Temp\cc9HoUqc.s 			page 1


   1              		.syntax unified
   2              		.cpu cortex-m3
   3              		.fpu softvfp
   4              		.eabi_attribute 20, 1
   5              		.eabi_attribute 21, 1
   6              		.eabi_attribute 23, 3
   7              		.eabi_attribute 24, 1
   8              		.eabi_attribute 25, 1
   9              		.eabi_attribute 26, 1
  10              		.eabi_attribute 30, 1
  11              		.eabi_attribute 34, 1
  12              		.eabi_attribute 18, 4
  13              		.thumb
  14              		.file	"Dash_Funcs.c"
  15              		.text
  16              	.Ltext0:
  17              		.cfi_sections	.debug_frame
  18              		.global	__aeabi_ui2d
  19              		.global	__aeabi_dmul
  20              		.global	__aeabi_d2uiz
  21              		.section	.text.ParseCAN,"ax",%progbits
  22              		.align	2
  23              		.global	ParseCAN
  24              		.thumb
  25              		.thumb_func
  26              		.type	ParseCAN, %function
  27              	ParseCAN:
  28              	.LFB63:
  29              		.file 1 ".\\Dash_Funcs.c"
   1:.\Dash_Funcs.c **** #include <device.h>
   2:.\Dash_Funcs.c **** #include <stdio.h>
   3:.\Dash_Funcs.c **** #include "Dash_Funcs.h"
   4:.\Dash_Funcs.c **** 
   5:.\Dash_Funcs.c **** 
   6:.\Dash_Funcs.c **** 
   7:.\Dash_Funcs.c **** //This function parses the CAN data from Motec into usable and displayable values
   8:.\Dash_Funcs.c **** int ParseCAN()
   9:.\Dash_Funcs.c **** {
  30              		.loc 1 9 0
  31              		.cfi_startproc
  32              		@ args = 0, pretend = 0, frame = 0
  33              		@ frame_needed = 0, uses_anonymous_args = 0
  34 0000 10B5     		push	{r4, lr}
  35              		.cfi_def_cfa_offset 8
  36              		.cfi_offset 4, -8
  37              		.cfi_offset 14, -4
  10:.\Dash_Funcs.c ****     //Message ID 0x6F0
  11:.\Dash_Funcs.c ****     rpm = (RXMessage0[0] << 8 | RXMessage0[1]);
  38              		.loc 1 11 0
  39 0002 774C     		ldr	r4, .L3+24
  40 0004 2268     		ldr	r2, [r4]
  41 0006 6368     		ldr	r3, [r4, #4]
  42 0008 43EA0223 		orr	r3, r3, r2, lsl #8
  43 000c 754A     		ldr	r2, .L3+28
  44 000e 1380     		strh	r3, [r2]	@ movhi
  12:.\Dash_Funcs.c ****     tp = (RXMessage0[2] << 8 | RXMessage0[3])*0.1;
  45              		.loc 1 12 0
ARM GAS  C:\Users\charl\AppData\Local\Temp\cc9HoUqc.s 			page 2


  46 0010 A068     		ldr	r0, [r4, #8]
  47 0012 E368     		ldr	r3, [r4, #12]
  48 0014 43EA0020 		orr	r0, r3, r0, lsl #8
  49 0018 FFF7FEFF 		bl	__aeabi_ui2d
  50              	.LVL0:
  51 001c 6AA3     		adr	r3, .L3
  52 001e D3E90023 		ldrd	r2, [r3]
  53 0022 FFF7FEFF 		bl	__aeabi_dmul
  54              	.LVL1:
  55 0026 FFF7FEFF 		bl	__aeabi_d2uiz
  56              	.LVL2:
  57 002a 6F4B     		ldr	r3, .L3+32
  58 002c 1880     		strh	r0, [r3]	@ movhi
  13:.\Dash_Funcs.c ****     map = (RXMessage0[4] << 8 | RXMessage0[5])*0.1;
  59              		.loc 1 13 0
  60 002e 2069     		ldr	r0, [r4, #16]
  61 0030 6369     		ldr	r3, [r4, #20]
  62 0032 43EA0020 		orr	r0, r3, r0, lsl #8
  63 0036 FFF7FEFF 		bl	__aeabi_ui2d
  64              	.LVL3:
  65 003a 63A3     		adr	r3, .L3
  66 003c D3E90023 		ldrd	r2, [r3]
  67 0040 FFF7FEFF 		bl	__aeabi_dmul
  68              	.LVL4:
  69 0044 FFF7FEFF 		bl	__aeabi_d2uiz
  70              	.LVL5:
  71 0048 684B     		ldr	r3, .L3+36
  72 004a 1880     		strh	r0, [r3]	@ movhi
  14:.\Dash_Funcs.c ****     at = (RXMessage0[6] << 8 | RXMessage0[7])*0.1;
  73              		.loc 1 14 0
  74 004c A069     		ldr	r0, [r4, #24]
  75 004e E369     		ldr	r3, [r4, #28]
  76 0050 43EA0020 		orr	r0, r3, r0, lsl #8
  77 0054 FFF7FEFF 		bl	__aeabi_ui2d
  78              	.LVL6:
  79 0058 5BA3     		adr	r3, .L3
  80 005a D3E90023 		ldrd	r2, [r3]
  81 005e FFF7FEFF 		bl	__aeabi_dmul
  82              	.LVL7:
  83 0062 FFF7FEFF 		bl	__aeabi_d2uiz
  84              	.LVL8:
  85 0066 624B     		ldr	r3, .L3+40
  86 0068 1880     		strh	r0, [r3]	@ movhi
  15:.\Dash_Funcs.c ****     //Message ID 0x6F1
  16:.\Dash_Funcs.c ****     et = (RXMessage1[0] << 8 | RXMessage1[1])*0.1;
  87              		.loc 1 16 0
  88 006a 624C     		ldr	r4, .L3+44
  89 006c 2068     		ldr	r0, [r4]
  90 006e 6368     		ldr	r3, [r4, #4]
  91 0070 43EA0020 		orr	r0, r3, r0, lsl #8
  92 0074 FFF7FEFF 		bl	__aeabi_ui2d
  93              	.LVL9:
  94 0078 53A3     		adr	r3, .L3
  95 007a D3E90023 		ldrd	r2, [r3]
  96 007e FFF7FEFF 		bl	__aeabi_dmul
  97              	.LVL10:
  98 0082 FFF7FEFF 		bl	__aeabi_d2uiz
ARM GAS  C:\Users\charl\AppData\Local\Temp\cc9HoUqc.s 			page 3


  99              	.LVL11:
 100 0086 5C4B     		ldr	r3, .L3+48
 101 0088 1880     		strh	r0, [r3]	@ movhi
  17:.\Dash_Funcs.c ****     la1 = (RXMessage1[2] << 8 | RXMessage1[3])*0.001;
 102              		.loc 1 17 0
 103 008a A068     		ldr	r0, [r4, #8]
 104 008c E368     		ldr	r3, [r4, #12]
 105 008e 43EA0020 		orr	r0, r3, r0, lsl #8
 106 0092 FFF7FEFF 		bl	__aeabi_ui2d
 107              	.LVL12:
 108 0096 4EA3     		adr	r3, .L3+8
 109 0098 D3E90023 		ldrd	r2, [r3]
 110 009c FFF7FEFF 		bl	__aeabi_dmul
 111              	.LVL13:
 112 00a0 FFF7FEFF 		bl	__aeabi_d2uiz
 113              	.LVL14:
 114 00a4 554B     		ldr	r3, .L3+52
 115 00a6 1880     		strh	r0, [r3]	@ movhi
  18:.\Dash_Funcs.c ****     fp = (RXMessage1[4] << 8 | RXMessage1[5])*0.1;
 116              		.loc 1 18 0
 117 00a8 2069     		ldr	r0, [r4, #16]
 118 00aa 6369     		ldr	r3, [r4, #20]
 119 00ac 43EA0020 		orr	r0, r3, r0, lsl #8
 120 00b0 FFF7FEFF 		bl	__aeabi_ui2d
 121              	.LVL15:
 122 00b4 44A3     		adr	r3, .L3
 123 00b6 D3E90023 		ldrd	r2, [r3]
 124 00ba FFF7FEFF 		bl	__aeabi_dmul
 125              	.LVL16:
 126 00be FFF7FEFF 		bl	__aeabi_d2uiz
 127              	.LVL17:
 128 00c2 4F4B     		ldr	r3, .L3+56
 129 00c4 1880     		strh	r0, [r3]	@ movhi
  19:.\Dash_Funcs.c ****     op = (RXMessage1[6] << 8 | RXMessage1[7])*0.1;
 130              		.loc 1 19 0
 131 00c6 A069     		ldr	r0, [r4, #24]
 132 00c8 E369     		ldr	r3, [r4, #28]
 133 00ca 43EA0020 		orr	r0, r3, r0, lsl #8
 134 00ce FFF7FEFF 		bl	__aeabi_ui2d
 135              	.LVL18:
 136 00d2 3DA3     		adr	r3, .L3
 137 00d4 D3E90023 		ldrd	r2, [r3]
 138 00d8 FFF7FEFF 		bl	__aeabi_dmul
 139              	.LVL19:
 140 00dc FFF7FEFF 		bl	__aeabi_d2uiz
 141              	.LVL20:
 142 00e0 484B     		ldr	r3, .L3+60
 143 00e2 1880     		strh	r0, [r3]	@ movhi
  20:.\Dash_Funcs.c ****     //Message ID 0x6F2
  21:.\Dash_Funcs.c ****     egt1 = RXMessage2[0] << 8 | RXMessage2[1];
 144              		.loc 1 21 0
 145 00e4 484B     		ldr	r3, .L3+64
 146 00e6 1968     		ldr	r1, [r3]
 147 00e8 5A68     		ldr	r2, [r3, #4]
 148 00ea 42EA0122 		orr	r2, r2, r1, lsl #8
 149 00ee 4749     		ldr	r1, .L3+68
 150 00f0 0A80     		strh	r2, [r1]	@ movhi
ARM GAS  C:\Users\charl\AppData\Local\Temp\cc9HoUqc.s 			page 4


  22:.\Dash_Funcs.c ****     launch = RXMessage2[2] << 8 | RXMessage2[3];
 151              		.loc 1 22 0
 152 00f2 9968     		ldr	r1, [r3, #8]
 153 00f4 DA68     		ldr	r2, [r3, #12]
 154 00f6 42EA0122 		orr	r2, r2, r1, lsl #8
 155 00fa 4549     		ldr	r1, .L3+72
 156 00fc 0A80     		strh	r2, [r1]	@ movhi
  23:.\Dash_Funcs.c ****     ntrl = RXMessage2[4] << 8 | RXMessage2[5];
 157              		.loc 1 23 0
 158 00fe 1969     		ldr	r1, [r3, #16]
 159 0100 5A69     		ldr	r2, [r3, #20]
 160 0102 42EA0122 		orr	r2, r2, r1, lsl #8
 161 0106 4349     		ldr	r1, .L3+76
 162 0108 0A80     		strh	r2, [r1]	@ movhi
  24:.\Dash_Funcs.c ****     bp = RXMessage2[6] << 8 | RXMessage2[7];
 163              		.loc 1 24 0
 164 010a 9A69     		ldr	r2, [r3, #24]
 165 010c DB69     		ldr	r3, [r3, #28]
 166 010e 43EA0223 		orr	r3, r3, r2, lsl #8
 167 0112 414A     		ldr	r2, .L3+80
 168 0114 1380     		strh	r3, [r2]	@ movhi
  25:.\Dash_Funcs.c ****     //Message ID 0x6F3
  26:.\Dash_Funcs.c ****     bpf1 = RXMessage3[0] << 8 | RXMessage3[1];
 169              		.loc 1 26 0
 170 0116 414C     		ldr	r4, .L3+84
 171 0118 2268     		ldr	r2, [r4]
 172 011a 6368     		ldr	r3, [r4, #4]
 173 011c 43EA0223 		orr	r3, r3, r2, lsl #8
 174 0120 3F4A     		ldr	r2, .L3+88
 175 0122 1380     		strh	r3, [r2]	@ movhi
  27:.\Dash_Funcs.c ****     batV = (double)(RXMessage3[2] << 8 | RXMessage3[3])*0.01;
 176              		.loc 1 27 0
 177 0124 A068     		ldr	r0, [r4, #8]
 178 0126 E368     		ldr	r3, [r4, #12]
 179 0128 43EA0020 		orr	r0, r3, r0, lsl #8
 180 012c FFF7FEFF 		bl	__aeabi_ui2d
 181              	.LVL21:
 182 0130 29A3     		adr	r3, .L3+16
 183 0132 D3E90023 		ldrd	r2, [r3]
 184 0136 FFF7FEFF 		bl	__aeabi_dmul
 185              	.LVL22:
 186 013a 3A4B     		ldr	r3, .L3+92
 187 013c C3E90001 		strd	r0, [r3]
  28:.\Dash_Funcs.c ****     ldSpd = (RXMessage3[4] << 8 | RXMessage3[5])*0.1;
 188              		.loc 1 28 0
 189 0140 2069     		ldr	r0, [r4, #16]
 190 0142 6369     		ldr	r3, [r4, #20]
 191 0144 43EA0020 		orr	r0, r3, r0, lsl #8
 192 0148 FFF7FEFF 		bl	__aeabi_ui2d
 193              	.LVL23:
 194 014c 1EA3     		adr	r3, .L3
 195 014e D3E90023 		ldrd	r2, [r3]
 196 0152 FFF7FEFF 		bl	__aeabi_dmul
 197              	.LVL24:
 198 0156 FFF7FEFF 		bl	__aeabi_d2uiz
 199              	.LVL25:
 200 015a 334B     		ldr	r3, .L3+96
ARM GAS  C:\Users\charl\AppData\Local\Temp\cc9HoUqc.s 			page 5


 201 015c 1880     		strh	r0, [r3]	@ movhi
  29:.\Dash_Funcs.c ****     lgSpd = (RXMessage3[6] << 8 | RXMessage3[7])*0.1;     
 202              		.loc 1 29 0
 203 015e A069     		ldr	r0, [r4, #24]
 204 0160 E369     		ldr	r3, [r4, #28]
 205 0162 43EA0020 		orr	r0, r3, r0, lsl #8
 206 0166 FFF7FEFF 		bl	__aeabi_ui2d
 207              	.LVL26:
 208 016a 17A3     		adr	r3, .L3
 209 016c D3E90023 		ldrd	r2, [r3]
 210 0170 FFF7FEFF 		bl	__aeabi_dmul
 211              	.LVL27:
 212 0174 FFF7FEFF 		bl	__aeabi_d2uiz
 213              	.LVL28:
 214 0178 2C4B     		ldr	r3, .L3+100
 215 017a 1880     		strh	r0, [r3]	@ movhi
  30:.\Dash_Funcs.c ****     //Message ID 0x6F4
  31:.\Dash_Funcs.c ****     rdSpd = (RXMessage4[0] << 8 | RXMessage4[1]);
 216              		.loc 1 31 0
 217 017c 2C4B     		ldr	r3, .L3+104
 218 017e 1968     		ldr	r1, [r3]
 219 0180 5A68     		ldr	r2, [r3, #4]
 220 0182 42EA0122 		orr	r2, r2, r1, lsl #8
 221 0186 2B49     		ldr	r1, .L3+108
 222 0188 0A80     		strh	r2, [r1]	@ movhi
  32:.\Dash_Funcs.c ****     rgSpd = (RXMessage4[2] << 8 | RXMessage4[3]);
 223              		.loc 1 32 0
 224 018a 9968     		ldr	r1, [r3, #8]
 225 018c DA68     		ldr	r2, [r3, #12]
 226 018e 42EA0122 		orr	r2, r2, r1, lsl #8
 227 0192 2949     		ldr	r1, .L3+112
 228 0194 0A80     		strh	r2, [r1]	@ movhi
  33:.\Dash_Funcs.c ****     runTime = (RXMessage4[4] << 8 | RXMessage4[5]);
 229              		.loc 1 33 0
 230 0196 1969     		ldr	r1, [r3, #16]
 231 0198 5A69     		ldr	r2, [r3, #20]
 232 019a 42EA0122 		orr	r2, r2, r1, lsl #8
 233 019e 2749     		ldr	r1, .L3+116
 234 01a0 0A80     		strh	r2, [r1]	@ movhi
  34:.\Dash_Funcs.c ****     fuel = (RXMessage4[6] << 8| RXMessage4[7]);
 235              		.loc 1 34 0
 236 01a2 9A69     		ldr	r2, [r3, #24]
 237 01a4 DB69     		ldr	r3, [r3, #28]
 238 01a6 43EA0223 		orr	r3, r3, r2, lsl #8
 239 01aa 254A     		ldr	r2, .L3+120
 240 01ac 1380     		strh	r3, [r2]	@ movhi
  35:.\Dash_Funcs.c ****     //Message ID 0x6F5
  36:.\Dash_Funcs.c ****     oilTemp = (RXMessage5[0] << 8 | RXMessage5[1]);
 241              		.loc 1 36 0
 242 01ae 254A     		ldr	r2, .L3+124
 243 01b0 1168     		ldr	r1, [r2]
 244 01b2 5368     		ldr	r3, [r2, #4]
 245 01b4 43EA0123 		orr	r3, r3, r1, lsl #8
 246 01b8 234A     		ldr	r2, .L3+128
 247 01ba 1380     		strh	r3, [r2]	@ movhi
  37:.\Dash_Funcs.c ****     DispUpdate = 1;
 248              		.loc 1 37 0
ARM GAS  C:\Users\charl\AppData\Local\Temp\cc9HoUqc.s 			page 6


 249 01bc 0122     		movs	r2, #1
 250 01be 234B     		ldr	r3, .L3+132
 251 01c0 1A60     		str	r2, [r3]
  38:.\Dash_Funcs.c ****     
  39:.\Dash_Funcs.c ****     return 0;
  40:.\Dash_Funcs.c **** }
 252              		.loc 1 40 0
 253 01c2 0020     		movs	r0, #0
 254 01c4 10BD     		pop	{r4, pc}
 255              	.L4:
 256 01c6 00BF     		.align	3
 257              	.L3:
 258 01c8 9A999999 		.word	-1717986918
 259 01cc 9999B93F 		.word	1069128089
 260 01d0 FCA9F1D2 		.word	-755914244
 261 01d4 4D62503F 		.word	1062232653
 262 01d8 7B14AE47 		.word	1202590843
 263 01dc E17A843F 		.word	1065646817
 264 01e0 00000000 		.word	RXMessage0
 265 01e4 00000000 		.word	rpm
 266 01e8 00000000 		.word	tp
 267 01ec 00000000 		.word	map
 268 01f0 00000000 		.word	at
 269 01f4 00000000 		.word	RXMessage1
 270 01f8 00000000 		.word	et
 271 01fc 00000000 		.word	la1
 272 0200 00000000 		.word	fp
 273 0204 00000000 		.word	op
 274 0208 00000000 		.word	RXMessage2
 275 020c 00000000 		.word	egt1
 276 0210 00000000 		.word	launch
 277 0214 00000000 		.word	ntrl
 278 0218 00000000 		.word	bp
 279 021c 00000000 		.word	RXMessage3
 280 0220 00000000 		.word	bpf1
 281 0224 00000000 		.word	batV
 282 0228 00000000 		.word	ldSpd
 283 022c 00000000 		.word	lgSpd
 284 0230 00000000 		.word	RXMessage4
 285 0234 00000000 		.word	rdSpd
 286 0238 00000000 		.word	rgSpd
 287 023c 00000000 		.word	runTime
 288 0240 00000000 		.word	fuel
 289 0244 00000000 		.word	RXMessage5
 290 0248 00000000 		.word	oilTemp
 291 024c 00000000 		.word	DispUpdate
 292              		.cfi_endproc
 293              	.LFE63:
 294              		.size	ParseCAN, .-ParseCAN
 295              		.section	.text.Brightness,"ax",%progbits
 296              		.align	2
 297              		.global	Brightness
 298              		.thumb
 299              		.thumb_func
 300              		.type	Brightness, %function
 301              	Brightness:
 302              	.LFB64:
ARM GAS  C:\Users\charl\AppData\Local\Temp\cc9HoUqc.s 			page 7


  41:.\Dash_Funcs.c **** 
  42:.\Dash_Funcs.c **** //I'd like to change this function to not include the shift lights so that they don't flash, or mak
  43:.\Dash_Funcs.c **** //This function changes the brightness of the display
  44:.\Dash_Funcs.c **** //int TargBrightness -> This is the value for the brightness of the shift lights, 4 digit displays
  45:.\Dash_Funcs.c **** //int GearBrightness -> This is the value for the brightness of the gear indicator
  46:.\Dash_Funcs.c **** int Brightness(int TargBrightness, int GearBrightness)
  47:.\Dash_Funcs.c **** {
 303              		.loc 1 47 0
 304              		.cfi_startproc
 305              		@ args = 0, pretend = 0, frame = 0
 306              		@ frame_needed = 0, uses_anonymous_args = 0
 307              	.LVL29:
 308 0000 70B5     		push	{r4, r5, r6, lr}
 309              		.cfi_def_cfa_offset 16
 310              		.cfi_offset 4, -16
 311              		.cfi_offset 5, -12
 312              		.cfi_offset 6, -8
 313              		.cfi_offset 14, -4
 314 0002 0546     		mov	r5, r0
 315 0004 0E46     		mov	r6, r1
 316              	.LVL30:
  48:.\Dash_Funcs.c ****     int i = 0;
  49:.\Dash_Funcs.c ****     for(i = 0;i < 13; i++)
 317              		.loc 1 49 0
 318 0006 0024     		movs	r4, #0
 319 0008 04E0     		b	.L6
 320              	.LVL31:
 321              	.L7:
  50:.\Dash_Funcs.c ****     {
  51:.\Dash_Funcs.c ****     LED_Driver_LRBWS_SetBrightness(TargBrightness,i);
 322              		.loc 1 51 0 discriminator 3
 323 000a E8B2     		uxtb	r0, r5
 324 000c E1B2     		uxtb	r1, r4
 325 000e FFF7FEFF 		bl	LED_Driver_LRBWS_SetBrightness
 326              	.LVL32:
  49:.\Dash_Funcs.c ****     {
 327              		.loc 1 49 0 discriminator 3
 328 0012 0134     		adds	r4, r4, #1
 329              	.LVL33:
 330              	.L6:
  49:.\Dash_Funcs.c ****     {
 331              		.loc 1 49 0 is_stmt 0 discriminator 1
 332 0014 0C2C     		cmp	r4, #12
 333 0016 F8DD     		ble	.L7
  52:.\Dash_Funcs.c ****     }
  53:.\Dash_Funcs.c ****     LED_Driver_Gear_SetBrightness(GearBrightness,0);
 334              		.loc 1 53 0 is_stmt 1
 335 0018 F0B2     		uxtb	r0, r6
 336 001a 0021     		movs	r1, #0
 337 001c FFF7FEFF 		bl	LED_Driver_Gear_SetBrightness
 338              	.LVL34:
  54:.\Dash_Funcs.c ****     return 0;
  55:.\Dash_Funcs.c **** }
 339              		.loc 1 55 0
 340 0020 0020     		movs	r0, #0
 341 0022 70BD     		pop	{r4, r5, r6, pc}
 342              		.cfi_endproc
ARM GAS  C:\Users\charl\AppData\Local\Temp\cc9HoUqc.s 			page 8


 343              	.LFE64:
 344              		.size	Brightness, .-Brightness
 345              		.global	__aeabi_d2iz
 346              		.section	.text.DriveUpdate,"ax",%progbits
 347              		.align	2
 348              		.global	DriveUpdate
 349              		.thumb
 350              		.thumb_func
 351              		.type	DriveUpdate, %function
 352              	DriveUpdate:
 353              	.LFB65:
  56:.\Dash_Funcs.c **** 
  57:.\Dash_Funcs.c **** //This function updates the display in the driving state
  58:.\Dash_Funcs.c **** int DriveUpdate(int Gear)
  59:.\Dash_Funcs.c **** {
 354              		.loc 1 59 0
 355              		.cfi_startproc
 356              		@ args = 0, pretend = 0, frame = 0
 357              		@ frame_needed = 0, uses_anonymous_args = 0
 358              	.LVL35:
 359 0000 10B5     		push	{r4, lr}
 360              		.cfi_def_cfa_offset 8
 361              		.cfi_offset 4, -8
 362              		.cfi_offset 14, -4
 363 0002 0446     		mov	r4, r0
  60:.\Dash_Funcs.c ****     //Display the selected values
  61:.\Dash_Funcs.c ****     if(rpm < 1500){ //Display Throttle Postion while engine off
 364              		.loc 1 61 0
 365 0004 184B     		ldr	r3, .L13
 366 0006 1888     		ldrh	r0, [r3]
 367              	.LVL36:
 368 0008 40F2DB53 		movw	r3, #1499
 369 000c 9842     		cmp	r0, r3
 370 000e 07D8     		bhi	.L10
  62:.\Dash_Funcs.c ****     LED_Driver_LRBWS_Write7SegNumberDec(tp,LeftDisp,4,LED_Driver_LRBWS_RIGHT_ALIGN);
 371              		.loc 1 62 0
 372 0010 164B     		ldr	r3, .L13+4
 373 0012 1888     		ldrh	r0, [r3]
 374 0014 0021     		movs	r1, #0
 375 0016 0422     		movs	r2, #4
 376 0018 0B46     		mov	r3, r1
 377 001a FFF7FEFF 		bl	LED_Driver_LRBWS_Write7SegNumberDec
 378              	.LVL37:
 379 001e 04E0     		b	.L11
 380              	.L10:
  63:.\Dash_Funcs.c ****     }
  64:.\Dash_Funcs.c ****     else{ //Display RPM while running
  65:.\Dash_Funcs.c ****     LED_Driver_LRBWS_Write7SegNumberDec(rpm,LeftDisp,4,LED_Driver_LRBWS_RIGHT_ALIGN);            
 381              		.loc 1 65 0
 382 0020 0021     		movs	r1, #0
 383 0022 0422     		movs	r2, #4
 384 0024 0B46     		mov	r3, r1
 385 0026 FFF7FEFF 		bl	LED_Driver_LRBWS_Write7SegNumberDec
 386              	.LVL38:
 387              	.L11:
  66:.\Dash_Funcs.c ****     }
  67:.\Dash_Funcs.c ****     LED_Driver_LRBWS_Write7SegNumberDec(100*batV,RightDisp,4,LED_Driver_LRBWS_RIGHT_ALIGN);
ARM GAS  C:\Users\charl\AppData\Local\Temp\cc9HoUqc.s 			page 9


 388              		.loc 1 67 0
 389 002a 114B     		ldr	r3, .L13+8
 390 002c D3E90001 		ldrd	r0, [r3]
 391 0030 0022     		movs	r2, #0
 392 0032 104B     		ldr	r3, .L13+12
 393 0034 FFF7FEFF 		bl	__aeabi_dmul
 394              	.LVL39:
 395 0038 FFF7FEFF 		bl	__aeabi_d2iz
 396              	.LVL40:
 397 003c 0521     		movs	r1, #5
 398 003e 0422     		movs	r2, #4
 399 0040 0023     		movs	r3, #0
 400 0042 FFF7FEFF 		bl	LED_Driver_LRBWS_Write7SegNumberDec
 401              	.LVL41:
  68:.\Dash_Funcs.c ****     LED_Driver_LRBWS_SetRC(15,1);//Set DP on position 6 of display
 402              		.loc 1 68 0
 403 0046 0F20     		movs	r0, #15
 404 0048 0121     		movs	r1, #1
 405 004a FFF7FEFF 		bl	LED_Driver_LRBWS_SetRC
 406              	.LVL42:
  69:.\Dash_Funcs.c ****     LED_Driver_LRBWS_Write7SegNumberDec(et,BottomDisp,4,LED_Driver_LRBWS_RIGHT_ALIGN); 
 407              		.loc 1 69 0
 408 004e 0A4B     		ldr	r3, .L13+16
 409 0050 1888     		ldrh	r0, [r3]
 410 0052 0A21     		movs	r1, #10
 411 0054 0422     		movs	r2, #4
 412 0056 0023     		movs	r3, #0
 413 0058 FFF7FEFF 		bl	LED_Driver_LRBWS_Write7SegNumberDec
 414              	.LVL43:
  70:.\Dash_Funcs.c ****     LED_Driver_Gear_Write7SegDigitDec(Gear,0);
 415              		.loc 1 70 0
 416 005c E0B2     		uxtb	r0, r4
 417 005e 0021     		movs	r1, #0
 418 0060 FFF7FEFF 		bl	LED_Driver_Gear_Write7SegDigitDec
 419              	.LVL44:
  71:.\Dash_Funcs.c ****                
  72:.\Dash_Funcs.c **** return 0;
  73:.\Dash_Funcs.c **** }
 420              		.loc 1 73 0
 421 0064 0020     		movs	r0, #0
 422 0066 10BD     		pop	{r4, pc}
 423              	.LVL45:
 424              	.L14:
 425              		.align	2
 426              	.L13:
 427 0068 00000000 		.word	rpm
 428 006c 00000000 		.word	tp
 429 0070 00000000 		.word	batV
 430 0074 00005940 		.word	1079574528
 431 0078 00000000 		.word	et
 432              		.cfi_endproc
 433              	.LFE65:
 434              		.size	DriveUpdate, .-DriveUpdate
 435              		.section	.text.DiagUpdate,"ax",%progbits
 436              		.align	2
 437              		.global	DiagUpdate
 438              		.thumb
ARM GAS  C:\Users\charl\AppData\Local\Temp\cc9HoUqc.s 			page 10


 439              		.thumb_func
 440              		.type	DiagUpdate, %function
 441              	DiagUpdate:
 442              	.LFB66:
  74:.\Dash_Funcs.c **** 
  75:.\Dash_Funcs.c **** //This function updates the display in the diagnostic state.
  76:.\Dash_Funcs.c **** int DiagUpdate(int Gear)
  77:.\Dash_Funcs.c **** {
 443              		.loc 1 77 0
 444              		.cfi_startproc
 445              		@ args = 0, pretend = 0, frame = 0
 446              		@ frame_needed = 0, uses_anonymous_args = 0
 447              	.LVL46:
 448 0000 10B5     		push	{r4, lr}
 449              		.cfi_def_cfa_offset 8
 450              		.cfi_offset 4, -8
 451              		.cfi_offset 14, -4
 452 0002 0446     		mov	r4, r0
  78:.\Dash_Funcs.c ****      //Display the selected values
  79:.\Dash_Funcs.c ****     LED_Driver_LRBWS_Write7SegNumberDec(rpm,LeftDisp,4,LED_Driver_LRBWS_RIGHT_ALIGN);
 453              		.loc 1 79 0
 454 0004 124B     		ldr	r3, .L17
 455 0006 1888     		ldrh	r0, [r3]
 456              	.LVL47:
 457 0008 0021     		movs	r1, #0
 458 000a 0422     		movs	r2, #4
 459 000c 0B46     		mov	r3, r1
 460 000e FFF7FEFF 		bl	LED_Driver_LRBWS_Write7SegNumberDec
 461              	.LVL48:
  80:.\Dash_Funcs.c ****     LED_Driver_LRBWS_Write7SegNumberDec(100*batV,RightDisp,4,LED_Driver_LRBWS_RIGHT_ALIGN);
 462              		.loc 1 80 0
 463 0012 104B     		ldr	r3, .L17+4
 464 0014 D3E90001 		ldrd	r0, [r3]
 465 0018 0022     		movs	r2, #0
 466 001a 0F4B     		ldr	r3, .L17+8
 467 001c FFF7FEFF 		bl	__aeabi_dmul
 468              	.LVL49:
 469 0020 FFF7FEFF 		bl	__aeabi_d2iz
 470              	.LVL50:
 471 0024 0521     		movs	r1, #5
 472 0026 0422     		movs	r2, #4
 473 0028 0023     		movs	r3, #0
 474 002a FFF7FEFF 		bl	LED_Driver_LRBWS_Write7SegNumberDec
 475              	.LVL51:
  81:.\Dash_Funcs.c ****     LED_Driver_LRBWS_SetRC(15,1);//Set DP on position 6 of display
 476              		.loc 1 81 0
 477 002e 0F20     		movs	r0, #15
 478 0030 0121     		movs	r1, #1
 479 0032 FFF7FEFF 		bl	LED_Driver_LRBWS_SetRC
 480              	.LVL52:
  82:.\Dash_Funcs.c ****     LED_Driver_LRBWS_Write7SegNumberDec(8888,BottomDisp,4,LED_Driver_LRBWS_RIGHT_ALIGN);  
 481              		.loc 1 82 0
 482 0036 42F2B820 		movw	r0, #8888
 483 003a 0A21     		movs	r1, #10
 484 003c 0422     		movs	r2, #4
 485 003e 0023     		movs	r3, #0
 486 0040 FFF7FEFF 		bl	LED_Driver_LRBWS_Write7SegNumberDec
ARM GAS  C:\Users\charl\AppData\Local\Temp\cc9HoUqc.s 			page 11


 487              	.LVL53:
  83:.\Dash_Funcs.c ****     LED_Driver_Gear_Write7SegDigitDec(Gear,0);
 488              		.loc 1 83 0
 489 0044 E0B2     		uxtb	r0, r4
 490 0046 0021     		movs	r1, #0
 491 0048 FFF7FEFF 		bl	LED_Driver_Gear_Write7SegDigitDec
 492              	.LVL54:
  84:.\Dash_Funcs.c **** return 0;
  85:.\Dash_Funcs.c **** }
 493              		.loc 1 85 0
 494 004c 0020     		movs	r0, #0
 495 004e 10BD     		pop	{r4, pc}
 496              	.LVL55:
 497              	.L18:
 498              		.align	2
 499              	.L17:
 500 0050 00000000 		.word	rpm
 501 0054 00000000 		.word	batV
 502 0058 00005940 		.word	1079574528
 503              		.cfi_endproc
 504              	.LFE66:
 505              		.size	DiagUpdate, .-DiagUpdate
 506              		.section	.text.SwitchButtonCheck,"ax",%progbits
 507              		.align	2
 508              		.global	SwitchButtonCheck
 509              		.thumb
 510              		.thumb_func
 511              		.type	SwitchButtonCheck, %function
 512              	SwitchButtonCheck:
 513              	.LFB67:
  86:.\Dash_Funcs.c **** 
  87:.\Dash_Funcs.c **** 
  88:.\Dash_Funcs.c **** //This function performs that state switch, called when an external button is pressed
  89:.\Dash_Funcs.c **** int SwitchButtonCheck(int StillPressed)
  90:.\Dash_Funcs.c **** {
 514              		.loc 1 90 0
 515              		.cfi_startproc
 516              		@ args = 0, pretend = 0, frame = 0
 517              		@ frame_needed = 0, uses_anonymous_args = 0
 518              	.LVL56:
 519 0000 10B5     		push	{r4, lr}
 520              		.cfi_def_cfa_offset 8
 521              		.cfi_offset 4, -8
 522              		.cfi_offset 14, -4
 523 0002 0446     		mov	r4, r0
 524              	.LVL57:
  91:.\Dash_Funcs.c ****     int ButtonVal = 0;
  92:.\Dash_Funcs.c ****     ButtonVal = Page_Button_Read();
 525              		.loc 1 92 0
 526 0004 FFF7FEFF 		bl	Page_Button_Read
 527              	.LVL58:
  93:.\Dash_Funcs.c **** //Switch State to the other state
  94:.\Dash_Funcs.c **** if(StillPressed == 0 && ButtonVal == 1) //Only switch state first time through the loop, prevent co
 528              		.loc 1 94 0
 529 0008 9CB9     		cbnz	r4, .L20
 530              		.loc 1 94 0 is_stmt 0 discriminator 1
 531 000a 0128     		cmp	r0, #1
ARM GAS  C:\Users\charl\AppData\Local\Temp\cc9HoUqc.s 			page 12


 532 000c 11D1     		bne	.L20
  95:.\Dash_Funcs.c **** {
  96:.\Dash_Funcs.c ****     if(PrevState == Drive)
 533              		.loc 1 96 0 is_stmt 1
 534 000e 0C4B     		ldr	r3, .L26
 535 0010 1B78     		ldrb	r3, [r3]	@ zero_extendqisi2
 536 0012 1BB9     		cbnz	r3, .L21
  97:.\Dash_Funcs.c ****     {
  98:.\Dash_Funcs.c ****         state = Diag;
 537              		.loc 1 98 0
 538 0014 0122     		movs	r2, #1
 539 0016 0B4B     		ldr	r3, .L26+4
 540 0018 1A70     		strb	r2, [r3]
 541 001a 04E0     		b	.L22
 542              	.L21:
  99:.\Dash_Funcs.c ****     }
 100:.\Dash_Funcs.c ****     else if(PrevState == Diag)
 543              		.loc 1 100 0
 544 001c 012B     		cmp	r3, #1
 545 001e 02D1     		bne	.L22
 101:.\Dash_Funcs.c ****     {
 102:.\Dash_Funcs.c ****         state = Drive;
 546              		.loc 1 102 0
 547 0020 0022     		movs	r2, #0
 548 0022 084B     		ldr	r3, .L26+4
 549 0024 1A70     		strb	r2, [r3]
 550              	.L22:
 103:.\Dash_Funcs.c ****     }
 104:.\Dash_Funcs.c ****     PrevState = state; //Set the "prevstate" variable to the current state now that it has changed
 551              		.loc 1 104 0
 552 0026 074B     		ldr	r3, .L26+4
 553 0028 1A78     		ldrb	r2, [r3]	@ zero_extendqisi2
 554 002a 054B     		ldr	r3, .L26
 555 002c 1A70     		strb	r2, [r3]
 556              	.LVL59:
 105:.\Dash_Funcs.c ****     StillPressed = 1;
 557              		.loc 1 105 0
 558 002e 0124     		movs	r4, #1
 559 0030 03E0     		b	.L23
 560              	.LVL60:
 561              	.L20:
 106:.\Dash_Funcs.c **** }
 107:.\Dash_Funcs.c **** else if(StillPressed == 1 && ButtonVal == 0)
 562              		.loc 1 107 0
 563 0032 012C     		cmp	r4, #1
 564 0034 01D1     		bne	.L23
 565              		.loc 1 107 0 is_stmt 0 discriminator 1
 566 0036 00B9     		cbnz	r0, .L23
 108:.\Dash_Funcs.c ****     StillPressed = 0;
 567              		.loc 1 108 0 is_stmt 1
 568 0038 0024     		movs	r4, #0
 569              	.LVL61:
 570              	.L23:
 109:.\Dash_Funcs.c **** return StillPressed;
 110:.\Dash_Funcs.c **** }
 571              		.loc 1 110 0
 572 003a 2046     		mov	r0, r4
ARM GAS  C:\Users\charl\AppData\Local\Temp\cc9HoUqc.s 			page 13


 573              	.LVL62:
 574 003c 10BD     		pop	{r4, pc}
 575              	.LVL63:
 576              	.L27:
 577 003e 00BF     		.align	2
 578              	.L26:
 579 0040 00000000 		.word	PrevState
 580 0044 00000000 		.word	state
 581              		.cfi_endproc
 582              	.LFE67:
 583              		.size	SwitchButtonCheck, .-SwitchButtonCheck
 584              		.global	__aeabi_i2f
 585              		.global	__aeabi_fdiv
 586              		.global	__aeabi_fcmpgt
 587              		.global	__aeabi_fcmplt
 588              		.section	.text.GearCalculation,"ax",%progbits
 589              		.align	2
 590              		.global	GearCalculation
 591              		.thumb
 592              		.thumb_func
 593              		.type	GearCalculation, %function
 594              	GearCalculation:
 595              	.LFB68:
 111:.\Dash_Funcs.c **** 
 112:.\Dash_Funcs.c **** int GearCalculation()
 113:.\Dash_Funcs.c **** {
 596              		.loc 1 113 0
 597              		.cfi_startproc
 598              		@ args = 0, pretend = 0, frame = 0
 599              		@ frame_needed = 0, uses_anonymous_args = 0
 600 0000 10B5     		push	{r4, lr}
 601              		.cfi_def_cfa_offset 8
 602              		.cfi_offset 4, -8
 603              		.cfi_offset 14, -4
 604              	.LVL64:
 114:.\Dash_Funcs.c **** //Gear Calculation
 115:.\Dash_Funcs.c **** //Convert Wheel speed to wheel RPM
 116:.\Dash_Funcs.c **** int Gear = 0;
 117:.\Dash_Funcs.c **** //Gear Reduction values for each gear.    
 118:.\Dash_Funcs.c **** float Red1 = 18.6955;
 119:.\Dash_Funcs.c **** float Red2 = 13.4048;
 120:.\Dash_Funcs.c **** float Red3 = 10.1561;
 121:.\Dash_Funcs.c **** float Red4 = 8.1218;
 122:.\Dash_Funcs.c **** float Red5 = 6.4974;
 123:.\Dash_Funcs.c **** 
 124:.\Dash_Funcs.c **** float ToleranceHighGear =  1;
 125:.\Dash_Funcs.c **** float ToleranceLowGear = 2.25;
 126:.\Dash_Funcs.c ****  
 127:.\Dash_Funcs.c **** float TireD = 18;
 128:.\Dash_Funcs.c **** float TireC = TireD*3.14159;
 129:.\Dash_Funcs.c **** float TireMPR = TireC/(5280*12);
 130:.\Dash_Funcs.c **** 
 131:.\Dash_Funcs.c **** float AvgRWhlSpd = (ldSpd + rdSpd)/2;
 605              		.loc 1 131 0
 606 0002 294B     		ldr	r3, .L52
 607 0004 1888     		ldrh	r0, [r3]
 608 0006 294B     		ldr	r3, .L52+4
ARM GAS  C:\Users\charl\AppData\Local\Temp\cc9HoUqc.s 			page 14


 609 0008 1B88     		ldrh	r3, [r3]
 610 000a 1844     		add	r0, r0, r3
 611 000c 4010     		asrs	r0, r0, #1
 612 000e FFF7FEFF 		bl	__aeabi_i2f
 613              	.LVL65:
 132:.\Dash_Funcs.c **** 
 133:.\Dash_Funcs.c **** float wheelRPM = AvgRWhlSpd/(60*TireMPR);
 614              		.loc 1 133 0
 615 0012 2749     		ldr	r1, .L52+8
 616 0014 FFF7FEFF 		bl	__aeabi_fdiv
 617              	.LVL66:
 618 0018 0446     		mov	r4, r0
 619              	.LVL67:
 134:.\Dash_Funcs.c **** float CalcRed = 0;
 135:.\Dash_Funcs.c **** 
 136:.\Dash_Funcs.c **** CalcRed = rpm/wheelRPM;
 620              		.loc 1 136 0
 621 001a 264B     		ldr	r3, .L52+12
 622 001c 1888     		ldrh	r0, [r3]
 623              	.LVL68:
 624 001e FFF7FEFF 		bl	__aeabi_i2f
 625              	.LVL69:
 626 0022 2146     		mov	r1, r4
 627 0024 FFF7FEFF 		bl	__aeabi_fdiv
 628              	.LVL70:
 629 0028 0446     		mov	r4, r0
 630              	.LVL71:
 137:.\Dash_Funcs.c **** 
 138:.\Dash_Funcs.c **** //Calculate the Gear
 139:.\Dash_Funcs.c **** if(Red1-ToleranceLowGear < CalcRed && Red1+ToleranceLowGear > CalcRed)
 631              		.loc 1 139 0
 632 002a 2349     		ldr	r1, .L52+16
 633 002c FFF7FEFF 		bl	__aeabi_fcmpgt
 634              	.LVL72:
 635 0030 20B1     		cbz	r0, .L29
 636              		.loc 1 139 0 is_stmt 0 discriminator 1
 637 0032 2046     		mov	r0, r4
 638 0034 2149     		ldr	r1, .L52+20
 639 0036 FFF7FEFF 		bl	__aeabi_fcmplt
 640              	.LVL73:
 641 003a 40BB     		cbnz	r0, .L39
 642              	.L29:
 140:.\Dash_Funcs.c ****     Gear = 1;
 141:.\Dash_Funcs.c **** else if(Red2-ToleranceLowGear < CalcRed && Red2+ToleranceLowGear > CalcRed)
 643              		.loc 1 141 0 is_stmt 1
 644 003c 2046     		mov	r0, r4
 645 003e 2049     		ldr	r1, .L52+24
 646 0040 FFF7FEFF 		bl	__aeabi_fcmpgt
 647              	.LVL74:
 648 0044 20B1     		cbz	r0, .L32
 649              		.loc 1 141 0 is_stmt 0 discriminator 1
 650 0046 2046     		mov	r0, r4
 651 0048 1E49     		ldr	r1, .L52+28
 652 004a FFF7FEFF 		bl	__aeabi_fcmplt
 653              	.LVL75:
 654 004e 00BB     		cbnz	r0, .L40
 655              	.L32:
ARM GAS  C:\Users\charl\AppData\Local\Temp\cc9HoUqc.s 			page 15


 142:.\Dash_Funcs.c ****     Gear = 2;
 143:.\Dash_Funcs.c **** else if(Red3-ToleranceHighGear < CalcRed && Red3+ToleranceHighGear > CalcRed)
 656              		.loc 1 143 0 is_stmt 1
 657 0050 2046     		mov	r0, r4
 658 0052 1D49     		ldr	r1, .L52+32
 659 0054 FFF7FEFF 		bl	__aeabi_fcmpgt
 660              	.LVL76:
 661 0058 20B1     		cbz	r0, .L34
 662              		.loc 1 143 0 is_stmt 0 discriminator 1
 663 005a 2046     		mov	r0, r4
 664 005c 1B49     		ldr	r1, .L52+36
 665 005e FFF7FEFF 		bl	__aeabi_fcmplt
 666              	.LVL77:
 667 0062 C0B9     		cbnz	r0, .L41
 668              	.L34:
 144:.\Dash_Funcs.c ****     Gear = 3;
 145:.\Dash_Funcs.c **** else if(Red4-ToleranceHighGear < CalcRed && Red4+ToleranceHighGear > CalcRed)
 669              		.loc 1 145 0 is_stmt 1
 670 0064 2046     		mov	r0, r4
 671 0066 1A49     		ldr	r1, .L52+40
 672 0068 FFF7FEFF 		bl	__aeabi_fcmpgt
 673              	.LVL78:
 674 006c 20B1     		cbz	r0, .L36
 675              		.loc 1 145 0 is_stmt 0 discriminator 1
 676 006e 2046     		mov	r0, r4
 677 0070 1849     		ldr	r1, .L52+44
 678 0072 FFF7FEFF 		bl	__aeabi_fcmplt
 679              	.LVL79:
 680 0076 80B9     		cbnz	r0, .L42
 681              	.L36:
 146:.\Dash_Funcs.c ****     Gear = 4;
 147:.\Dash_Funcs.c **** else if(Red5-ToleranceHighGear < CalcRed && Red5+ToleranceHighGear > CalcRed)
 682              		.loc 1 147 0 is_stmt 1
 683 0078 2046     		mov	r0, r4
 684 007a 1749     		ldr	r1, .L52+48
 685 007c FFF7FEFF 		bl	__aeabi_fcmpgt
 686              	.LVL80:
 687 0080 68B1     		cbz	r0, .L50
 688              		.loc 1 147 0 is_stmt 0 discriminator 1
 689 0082 2046     		mov	r0, r4
 690 0084 1549     		ldr	r1, .L52+52
 691 0086 FFF7FEFF 		bl	__aeabi_fcmplt
 692              	.LVL81:
 693 008a 50B9     		cbnz	r0, .L44
 694 008c 10BD     		pop	{r4, pc}
 695              	.LVL82:
 696              	.L39:
 140:.\Dash_Funcs.c **** else if(Red2-ToleranceLowGear < CalcRed && Red2+ToleranceLowGear > CalcRed)
 697              		.loc 1 140 0 is_stmt 1
 698 008e 0120     		movs	r0, #1
 699 0090 10BD     		pop	{r4, pc}
 700              	.LVL83:
 701              	.L40:
 142:.\Dash_Funcs.c **** else if(Red3-ToleranceHighGear < CalcRed && Red3+ToleranceHighGear > CalcRed)
 702              		.loc 1 142 0
 703 0092 0220     		movs	r0, #2
 704 0094 10BD     		pop	{r4, pc}
ARM GAS  C:\Users\charl\AppData\Local\Temp\cc9HoUqc.s 			page 16


 705              	.LVL84:
 706              	.L41:
 144:.\Dash_Funcs.c **** else if(Red4-ToleranceHighGear < CalcRed && Red4+ToleranceHighGear > CalcRed)
 707              		.loc 1 144 0
 708 0096 0320     		movs	r0, #3
 709 0098 10BD     		pop	{r4, pc}
 710              	.LVL85:
 711              	.L42:
 146:.\Dash_Funcs.c **** else if(Red5-ToleranceHighGear < CalcRed && Red5+ToleranceHighGear > CalcRed)
 712              		.loc 1 146 0
 713 009a 0420     		movs	r0, #4
 714 009c 10BD     		pop	{r4, pc}
 715              	.LVL86:
 716              	.L50:
 148:.\Dash_Funcs.c ****     Gear = 5;
 149:.\Dash_Funcs.c **** else
 150:.\Dash_Funcs.c ****     Gear = 0;
 717              		.loc 1 150 0
 718 009e 0020     		movs	r0, #0
 719 00a0 10BD     		pop	{r4, pc}
 720              	.LVL87:
 721              	.L44:
 148:.\Dash_Funcs.c ****     Gear = 5;
 722              		.loc 1 148 0
 723 00a2 0520     		movs	r0, #5
 724              	.LVL88:
 151:.\Dash_Funcs.c ****     
 152:.\Dash_Funcs.c **** return Gear;
 153:.\Dash_Funcs.c **** }
 725              		.loc 1 153 0
 726 00a4 10BD     		pop	{r4, pc}
 727              	.LVL89:
 728              	.L53:
 729 00a6 00BF     		.align	2
 730              	.L52:
 731 00a8 00000000 		.word	ldSpd
 732 00ac 00000000 		.word	rdSpd
 733 00b0 10575B3D 		.word	1029396240
 734 00b4 00000000 		.word	rpm
 735 00b8 62908341 		.word	1099141218
 736 00bc 6290A741 		.word	1101500514
 737 00c0 107A3241 		.word	1093827088
 738 00c4 107A7A41 		.word	1098545680
 739 00c8 637F1241 		.word	1091731299
 740 00cc 637F3241 		.word	1093828451
 741 00d0 CAE5E340 		.word	1088677322
 742 00d4 E5F21141 		.word	1091695333
 743 00d8 B3EAAF40 		.word	1085270707
 744 00dc B3EAEF40 		.word	1089465011
 745              		.cfi_endproc
 746              	.LFE68:
 747              		.size	GearCalculation, .-GearCalculation
 748              		.section	.text.ShiftLights,"ax",%progbits
 749              		.align	2
 750              		.global	ShiftLights
 751              		.thumb
 752              		.thumb_func
ARM GAS  C:\Users\charl\AppData\Local\Temp\cc9HoUqc.s 			page 17


 753              		.type	ShiftLights, %function
 754              	ShiftLights:
 755              	.LFB69:
 154:.\Dash_Funcs.c **** 
 155:.\Dash_Funcs.c **** int ShiftLights()
 156:.\Dash_Funcs.c **** {
 756              		.loc 1 156 0
 757              		.cfi_startproc
 758              		@ args = 0, pretend = 0, frame = 0
 759              		@ frame_needed = 0, uses_anonymous_args = 0
 760 0000 10B5     		push	{r4, lr}
 761              		.cfi_def_cfa_offset 8
 762              		.cfi_offset 4, -8
 763              		.cfi_offset 14, -4
 764              	.LVL90:
 157:.\Dash_Funcs.c ****     int Column = 4;
 158:.\Dash_Funcs.c ****     int i = 0;
 159:.\Dash_Funcs.c ****     int Light1 = 8;
 160:.\Dash_Funcs.c ****     int Light2 = 10;
 161:.\Dash_Funcs.c ****     int Light3 = 12;
 162:.\Dash_Funcs.c ****     int Light4 = 15;
 163:.\Dash_Funcs.c ****     int Light5 = 17;
 164:.\Dash_Funcs.c ****     
 165:.\Dash_Funcs.c ****     if(rpm>= Shift1 && rpm < Shift2)
 765              		.loc 1 165 0
 766 0002 A14B     		ldr	r3, .L70
 767 0004 1A88     		ldrh	r2, [r3]
 768 0006 A2F5DA53 		sub	r3, r2, #6976
 769 000a 183B     		subs	r3, r3, #24
 770 000c 9BB2     		uxth	r3, r3
 771 000e B3F5FA7F 		cmp	r3, #500
 772 0012 2BD2     		bcs	.L55
 166:.\Dash_Funcs.c ****     {
 167:.\Dash_Funcs.c ****         LED_Driver_LRBWS_SetRC(8,Column);
 773              		.loc 1 167 0
 774 0014 0820     		movs	r0, #8
 775 0016 0421     		movs	r1, #4
 776 0018 FFF7FEFF 		bl	LED_Driver_LRBWS_SetRC
 777              	.LVL91:
 168:.\Dash_Funcs.c ****         LED_Driver_LRBWS_SetRC(9,Column);
 778              		.loc 1 168 0
 779 001c 0920     		movs	r0, #9
 780 001e 0421     		movs	r1, #4
 781 0020 FFF7FEFF 		bl	LED_Driver_LRBWS_SetRC
 782              	.LVL92:
 169:.\Dash_Funcs.c ****         
 170:.\Dash_Funcs.c ****         LED_Driver_LRBWS_ClearRC(10,Column);
 783              		.loc 1 170 0
 784 0024 0A20     		movs	r0, #10
 785 0026 0421     		movs	r1, #4
 786 0028 FFF7FEFF 		bl	LED_Driver_LRBWS_ClearRC
 787              	.LVL93:
 171:.\Dash_Funcs.c ****         LED_Driver_LRBWS_ClearRC(11,Column);
 788              		.loc 1 171 0
 789 002c 0B20     		movs	r0, #11
 790 002e 0421     		movs	r1, #4
 791 0030 FFF7FEFF 		bl	LED_Driver_LRBWS_ClearRC
ARM GAS  C:\Users\charl\AppData\Local\Temp\cc9HoUqc.s 			page 18


 792              	.LVL94:
 172:.\Dash_Funcs.c ****         LED_Driver_LRBWS_ClearRC(12,Column);
 793              		.loc 1 172 0
 794 0034 0C20     		movs	r0, #12
 795 0036 0421     		movs	r1, #4
 796 0038 FFF7FEFF 		bl	LED_Driver_LRBWS_ClearRC
 797              	.LVL95:
 173:.\Dash_Funcs.c ****         LED_Driver_LRBWS_ClearRC(13,Column);
 798              		.loc 1 173 0
 799 003c 0D20     		movs	r0, #13
 800 003e 0421     		movs	r1, #4
 801 0040 FFF7FEFF 		bl	LED_Driver_LRBWS_ClearRC
 802              	.LVL96:
 174:.\Dash_Funcs.c ****         LED_Driver_LRBWS_ClearRC(14,Column);
 803              		.loc 1 174 0
 804 0044 0E20     		movs	r0, #14
 805 0046 0421     		movs	r1, #4
 806 0048 FFF7FEFF 		bl	LED_Driver_LRBWS_ClearRC
 807              	.LVL97:
 175:.\Dash_Funcs.c ****         LED_Driver_LRBWS_ClearRC(15,Column);
 808              		.loc 1 175 0
 809 004c 0F20     		movs	r0, #15
 810 004e 0421     		movs	r1, #4
 811 0050 FFF7FEFF 		bl	LED_Driver_LRBWS_ClearRC
 812              	.LVL98:
 176:.\Dash_Funcs.c ****         LED_Driver_LRBWS_ClearRC(16,Column);
 813              		.loc 1 176 0
 814 0054 1020     		movs	r0, #16
 815 0056 0421     		movs	r1, #4
 816 0058 FFF7FEFF 		bl	LED_Driver_LRBWS_ClearRC
 817              	.LVL99:
 177:.\Dash_Funcs.c ****         LED_Driver_LRBWS_ClearRC(17,Column);
 818              		.loc 1 177 0
 819 005c 1120     		movs	r0, #17
 820 005e 0421     		movs	r1, #4
 821 0060 FFF7FEFF 		bl	LED_Driver_LRBWS_ClearRC
 822              	.LVL100:
 178:.\Dash_Funcs.c ****         
 179:.\Dash_Funcs.c ****         OffsetFlash = 0;
 823              		.loc 1 179 0
 824 0064 0022     		movs	r2, #0
 825 0066 894B     		ldr	r3, .L70+4
 826 0068 1A60     		str	r2, [r3]
 827 006a 00E1     		b	.L56
 828              	.L55:
 180:.\Dash_Funcs.c ****     }
 181:.\Dash_Funcs.c ****     else if(rpm>= Shift2 && rpm < Shift3)
 829              		.loc 1 181 0
 830 006c A2F5EA53 		sub	r3, r2, #7488
 831 0070 0C3B     		subs	r3, r3, #12
 832 0072 9BB2     		uxth	r3, r3
 833 0074 B3F5FA7F 		cmp	r3, #500
 834 0078 2BD2     		bcs	.L57
 182:.\Dash_Funcs.c ****     {
 183:.\Dash_Funcs.c ****         LED_Driver_LRBWS_SetRC(8,Column);
 835              		.loc 1 183 0
 836 007a 0820     		movs	r0, #8
ARM GAS  C:\Users\charl\AppData\Local\Temp\cc9HoUqc.s 			page 19


 837 007c 0421     		movs	r1, #4
 838 007e FFF7FEFF 		bl	LED_Driver_LRBWS_SetRC
 839              	.LVL101:
 184:.\Dash_Funcs.c ****         LED_Driver_LRBWS_SetRC(9,Column);
 840              		.loc 1 184 0
 841 0082 0920     		movs	r0, #9
 842 0084 0421     		movs	r1, #4
 843 0086 FFF7FEFF 		bl	LED_Driver_LRBWS_SetRC
 844              	.LVL102:
 185:.\Dash_Funcs.c ****         LED_Driver_LRBWS_SetRC(10,Column);
 845              		.loc 1 185 0
 846 008a 0A20     		movs	r0, #10
 847 008c 0421     		movs	r1, #4
 848 008e FFF7FEFF 		bl	LED_Driver_LRBWS_SetRC
 849              	.LVL103:
 186:.\Dash_Funcs.c ****         LED_Driver_LRBWS_SetRC(11,Column);
 850              		.loc 1 186 0
 851 0092 0B20     		movs	r0, #11
 852 0094 0421     		movs	r1, #4
 853 0096 FFF7FEFF 		bl	LED_Driver_LRBWS_SetRC
 854              	.LVL104:
 187:.\Dash_Funcs.c ****         
 188:.\Dash_Funcs.c ****         LED_Driver_LRBWS_ClearRC(12,Column);
 855              		.loc 1 188 0
 856 009a 0C20     		movs	r0, #12
 857 009c 0421     		movs	r1, #4
 858 009e FFF7FEFF 		bl	LED_Driver_LRBWS_ClearRC
 859              	.LVL105:
 189:.\Dash_Funcs.c ****         LED_Driver_LRBWS_ClearRC(13,Column);
 860              		.loc 1 189 0
 861 00a2 0D20     		movs	r0, #13
 862 00a4 0421     		movs	r1, #4
 863 00a6 FFF7FEFF 		bl	LED_Driver_LRBWS_ClearRC
 864              	.LVL106:
 190:.\Dash_Funcs.c ****         LED_Driver_LRBWS_ClearRC(14,Column);
 865              		.loc 1 190 0
 866 00aa 0E20     		movs	r0, #14
 867 00ac 0421     		movs	r1, #4
 868 00ae FFF7FEFF 		bl	LED_Driver_LRBWS_ClearRC
 869              	.LVL107:
 191:.\Dash_Funcs.c ****         LED_Driver_LRBWS_ClearRC(15,Column);
 870              		.loc 1 191 0
 871 00b2 0F20     		movs	r0, #15
 872 00b4 0421     		movs	r1, #4
 873 00b6 FFF7FEFF 		bl	LED_Driver_LRBWS_ClearRC
 874              	.LVL108:
 192:.\Dash_Funcs.c ****         LED_Driver_LRBWS_ClearRC(16,Column);
 875              		.loc 1 192 0
 876 00ba 1020     		movs	r0, #16
 877 00bc 0421     		movs	r1, #4
 878 00be FFF7FEFF 		bl	LED_Driver_LRBWS_ClearRC
 879              	.LVL109:
 193:.\Dash_Funcs.c ****         LED_Driver_LRBWS_ClearRC(17,Column);
 880              		.loc 1 193 0
 881 00c2 1120     		movs	r0, #17
 882 00c4 0421     		movs	r1, #4
 883 00c6 FFF7FEFF 		bl	LED_Driver_LRBWS_ClearRC
ARM GAS  C:\Users\charl\AppData\Local\Temp\cc9HoUqc.s 			page 20


 884              	.LVL110:
 194:.\Dash_Funcs.c ****         
 195:.\Dash_Funcs.c ****         OffsetFlash = 0;
 885              		.loc 1 195 0
 886 00ca 0022     		movs	r2, #0
 887 00cc 6F4B     		ldr	r3, .L70+4
 888 00ce 1A60     		str	r2, [r3]
 889 00d0 CDE0     		b	.L56
 890              	.L57:
 196:.\Dash_Funcs.c ****     }
 197:.\Dash_Funcs.c ****     else if(rpm>= Shift3 && rpm < Shift4)
 891              		.loc 1 197 0
 892 00d2 A2F5FA53 		sub	r3, r2, #8000
 893 00d6 9BB2     		uxth	r3, r3
 894 00d8 B3F5FA7F 		cmp	r3, #500
 895 00dc 2BD2     		bcs	.L58
 198:.\Dash_Funcs.c ****     {
 199:.\Dash_Funcs.c ****         LED_Driver_LRBWS_SetRC(8,Column);
 896              		.loc 1 199 0
 897 00de 0820     		movs	r0, #8
 898 00e0 0421     		movs	r1, #4
 899 00e2 FFF7FEFF 		bl	LED_Driver_LRBWS_SetRC
 900              	.LVL111:
 200:.\Dash_Funcs.c ****         LED_Driver_LRBWS_SetRC(9,Column);
 901              		.loc 1 200 0
 902 00e6 0920     		movs	r0, #9
 903 00e8 0421     		movs	r1, #4
 904 00ea FFF7FEFF 		bl	LED_Driver_LRBWS_SetRC
 905              	.LVL112:
 201:.\Dash_Funcs.c ****         LED_Driver_LRBWS_SetRC(10,Column);
 906              		.loc 1 201 0
 907 00ee 0A20     		movs	r0, #10
 908 00f0 0421     		movs	r1, #4
 909 00f2 FFF7FEFF 		bl	LED_Driver_LRBWS_SetRC
 910              	.LVL113:
 202:.\Dash_Funcs.c ****         LED_Driver_LRBWS_SetRC(11,Column);
 911              		.loc 1 202 0
 912 00f6 0B20     		movs	r0, #11
 913 00f8 0421     		movs	r1, #4
 914 00fa FFF7FEFF 		bl	LED_Driver_LRBWS_SetRC
 915              	.LVL114:
 203:.\Dash_Funcs.c ****         LED_Driver_LRBWS_SetRC(12,Column);
 916              		.loc 1 203 0
 917 00fe 0C20     		movs	r0, #12
 918 0100 0421     		movs	r1, #4
 919 0102 FFF7FEFF 		bl	LED_Driver_LRBWS_SetRC
 920              	.LVL115:
 204:.\Dash_Funcs.c ****         LED_Driver_LRBWS_SetRC(13,Column);
 921              		.loc 1 204 0
 922 0106 0D20     		movs	r0, #13
 923 0108 0421     		movs	r1, #4
 924 010a FFF7FEFF 		bl	LED_Driver_LRBWS_SetRC
 925              	.LVL116:
 205:.\Dash_Funcs.c ****         
 206:.\Dash_Funcs.c ****         LED_Driver_LRBWS_ClearRC(14,Column);
 926              		.loc 1 206 0
 927 010e 0E20     		movs	r0, #14
ARM GAS  C:\Users\charl\AppData\Local\Temp\cc9HoUqc.s 			page 21


 928 0110 0421     		movs	r1, #4
 929 0112 FFF7FEFF 		bl	LED_Driver_LRBWS_ClearRC
 930              	.LVL117:
 207:.\Dash_Funcs.c ****         LED_Driver_LRBWS_ClearRC(15,Column);
 931              		.loc 1 207 0
 932 0116 0F20     		movs	r0, #15
 933 0118 0421     		movs	r1, #4
 934 011a FFF7FEFF 		bl	LED_Driver_LRBWS_ClearRC
 935              	.LVL118:
 208:.\Dash_Funcs.c ****         LED_Driver_LRBWS_ClearRC(16,Column);
 936              		.loc 1 208 0
 937 011e 1020     		movs	r0, #16
 938 0120 0421     		movs	r1, #4
 939 0122 FFF7FEFF 		bl	LED_Driver_LRBWS_ClearRC
 940              	.LVL119:
 209:.\Dash_Funcs.c ****         LED_Driver_LRBWS_ClearRC(17,Column);
 941              		.loc 1 209 0
 942 0126 1120     		movs	r0, #17
 943 0128 0421     		movs	r1, #4
 944 012a FFF7FEFF 		bl	LED_Driver_LRBWS_ClearRC
 945              	.LVL120:
 210:.\Dash_Funcs.c ****         
 211:.\Dash_Funcs.c ****         OffsetFlash = 0;
 946              		.loc 1 211 0
 947 012e 0022     		movs	r2, #0
 948 0130 564B     		ldr	r3, .L70+4
 949 0132 1A60     		str	r2, [r3]
 950 0134 9BE0     		b	.L56
 951              	.L58:
 212:.\Dash_Funcs.c ****     }
 213:.\Dash_Funcs.c ****     else if(rpm>= Shift4 && rpm < Shift5)
 952              		.loc 1 213 0
 953 0136 A2F50453 		sub	r3, r2, #8448
 954 013a 343B     		subs	r3, r3, #52
 955 013c 9BB2     		uxth	r3, r3
 956 013e B3F5FA7F 		cmp	r3, #500
 957 0142 2BD2     		bcs	.L59
 214:.\Dash_Funcs.c ****     {
 215:.\Dash_Funcs.c ****         LED_Driver_LRBWS_SetRC(8,Column);
 958              		.loc 1 215 0
 959 0144 0820     		movs	r0, #8
 960 0146 0421     		movs	r1, #4
 961 0148 FFF7FEFF 		bl	LED_Driver_LRBWS_SetRC
 962              	.LVL121:
 216:.\Dash_Funcs.c ****         LED_Driver_LRBWS_SetRC(9,Column);
 963              		.loc 1 216 0
 964 014c 0920     		movs	r0, #9
 965 014e 0421     		movs	r1, #4
 966 0150 FFF7FEFF 		bl	LED_Driver_LRBWS_SetRC
 967              	.LVL122:
 217:.\Dash_Funcs.c ****         LED_Driver_LRBWS_SetRC(10,Column);
 968              		.loc 1 217 0
 969 0154 0A20     		movs	r0, #10
 970 0156 0421     		movs	r1, #4
 971 0158 FFF7FEFF 		bl	LED_Driver_LRBWS_SetRC
 972              	.LVL123:
 218:.\Dash_Funcs.c ****         LED_Driver_LRBWS_SetRC(11,Column);
ARM GAS  C:\Users\charl\AppData\Local\Temp\cc9HoUqc.s 			page 22


 973              		.loc 1 218 0
 974 015c 0B20     		movs	r0, #11
 975 015e 0421     		movs	r1, #4
 976 0160 FFF7FEFF 		bl	LED_Driver_LRBWS_SetRC
 977              	.LVL124:
 219:.\Dash_Funcs.c ****         LED_Driver_LRBWS_SetRC(12,Column);
 978              		.loc 1 219 0
 979 0164 0C20     		movs	r0, #12
 980 0166 0421     		movs	r1, #4
 981 0168 FFF7FEFF 		bl	LED_Driver_LRBWS_SetRC
 982              	.LVL125:
 220:.\Dash_Funcs.c ****         LED_Driver_LRBWS_SetRC(13,Column);
 983              		.loc 1 220 0
 984 016c 0D20     		movs	r0, #13
 985 016e 0421     		movs	r1, #4
 986 0170 FFF7FEFF 		bl	LED_Driver_LRBWS_SetRC
 987              	.LVL126:
 221:.\Dash_Funcs.c ****         LED_Driver_LRBWS_SetRC(14,Column);
 988              		.loc 1 221 0
 989 0174 0E20     		movs	r0, #14
 990 0176 0421     		movs	r1, #4
 991 0178 FFF7FEFF 		bl	LED_Driver_LRBWS_SetRC
 992              	.LVL127:
 222:.\Dash_Funcs.c ****         LED_Driver_LRBWS_SetRC(15,Column);
 993              		.loc 1 222 0
 994 017c 0F20     		movs	r0, #15
 995 017e 0421     		movs	r1, #4
 996 0180 FFF7FEFF 		bl	LED_Driver_LRBWS_SetRC
 997              	.LVL128:
 223:.\Dash_Funcs.c ****         
 224:.\Dash_Funcs.c ****         LED_Driver_LRBWS_ClearRC(16,Column);
 998              		.loc 1 224 0
 999 0184 1020     		movs	r0, #16
 1000 0186 0421     		movs	r1, #4
 1001 0188 FFF7FEFF 		bl	LED_Driver_LRBWS_ClearRC
 1002              	.LVL129:
 225:.\Dash_Funcs.c ****         LED_Driver_LRBWS_ClearRC(17,Column);  
 1003              		.loc 1 225 0
 1004 018c 1120     		movs	r0, #17
 1005 018e 0421     		movs	r1, #4
 1006 0190 FFF7FEFF 		bl	LED_Driver_LRBWS_ClearRC
 1007              	.LVL130:
 226:.\Dash_Funcs.c ****         
 227:.\Dash_Funcs.c ****         OffsetFlash = 0;
 1008              		.loc 1 227 0
 1009 0194 0022     		movs	r2, #0
 1010 0196 3D4B     		ldr	r3, .L70+4
 1011 0198 1A60     		str	r2, [r3]
 1012 019a 68E0     		b	.L56
 1013              	.L59:
 228:.\Dash_Funcs.c ****     }
 229:.\Dash_Funcs.c ****     else if(rpm >= Shift5 && rpm < Shift5+Overrev)
 1014              		.loc 1 229 0
 1015 019c A2F50C53 		sub	r3, r2, #8960
 1016 01a0 283B     		subs	r3, r3, #40
 1017 01a2 9BB2     		uxth	r3, r3
 1018 01a4 B3F5FA7F 		cmp	r3, #500
ARM GAS  C:\Users\charl\AppData\Local\Temp\cc9HoUqc.s 			page 23


 1019 01a8 2BD2     		bcs	.L60
 230:.\Dash_Funcs.c ****     {
 231:.\Dash_Funcs.c ****         LED_Driver_LRBWS_SetRC(8,Column);
 1020              		.loc 1 231 0
 1021 01aa 0820     		movs	r0, #8
 1022 01ac 0421     		movs	r1, #4
 1023 01ae FFF7FEFF 		bl	LED_Driver_LRBWS_SetRC
 1024              	.LVL131:
 232:.\Dash_Funcs.c ****         LED_Driver_LRBWS_SetRC(9,Column);
 1025              		.loc 1 232 0
 1026 01b2 0920     		movs	r0, #9
 1027 01b4 0421     		movs	r1, #4
 1028 01b6 FFF7FEFF 		bl	LED_Driver_LRBWS_SetRC
 1029              	.LVL132:
 233:.\Dash_Funcs.c ****         LED_Driver_LRBWS_SetRC(10,Column);
 1030              		.loc 1 233 0
 1031 01ba 0A20     		movs	r0, #10
 1032 01bc 0421     		movs	r1, #4
 1033 01be FFF7FEFF 		bl	LED_Driver_LRBWS_SetRC
 1034              	.LVL133:
 234:.\Dash_Funcs.c ****         LED_Driver_LRBWS_SetRC(11,Column);
 1035              		.loc 1 234 0
 1036 01c2 0B20     		movs	r0, #11
 1037 01c4 0421     		movs	r1, #4
 1038 01c6 FFF7FEFF 		bl	LED_Driver_LRBWS_SetRC
 1039              	.LVL134:
 235:.\Dash_Funcs.c ****         LED_Driver_LRBWS_SetRC(12,Column);
 1040              		.loc 1 235 0
 1041 01ca 0C20     		movs	r0, #12
 1042 01cc 0421     		movs	r1, #4
 1043 01ce FFF7FEFF 		bl	LED_Driver_LRBWS_SetRC
 1044              	.LVL135:
 236:.\Dash_Funcs.c ****         LED_Driver_LRBWS_SetRC(13,Column);
 1045              		.loc 1 236 0
 1046 01d2 0D20     		movs	r0, #13
 1047 01d4 0421     		movs	r1, #4
 1048 01d6 FFF7FEFF 		bl	LED_Driver_LRBWS_SetRC
 1049              	.LVL136:
 237:.\Dash_Funcs.c ****         LED_Driver_LRBWS_SetRC(14,Column);
 1050              		.loc 1 237 0
 1051 01da 0E20     		movs	r0, #14
 1052 01dc 0421     		movs	r1, #4
 1053 01de FFF7FEFF 		bl	LED_Driver_LRBWS_SetRC
 1054              	.LVL137:
 238:.\Dash_Funcs.c ****         LED_Driver_LRBWS_SetRC(15,Column);
 1055              		.loc 1 238 0
 1056 01e2 0F20     		movs	r0, #15
 1057 01e4 0421     		movs	r1, #4
 1058 01e6 FFF7FEFF 		bl	LED_Driver_LRBWS_SetRC
 1059              	.LVL138:
 239:.\Dash_Funcs.c ****         LED_Driver_LRBWS_SetRC(16,Column);
 1060              		.loc 1 239 0
 1061 01ea 1020     		movs	r0, #16
 1062 01ec 0421     		movs	r1, #4
 1063 01ee FFF7FEFF 		bl	LED_Driver_LRBWS_SetRC
 1064              	.LVL139:
 240:.\Dash_Funcs.c ****         LED_Driver_LRBWS_SetRC(17,Column);
ARM GAS  C:\Users\charl\AppData\Local\Temp\cc9HoUqc.s 			page 24


 1065              		.loc 1 240 0
 1066 01f2 1120     		movs	r0, #17
 1067 01f4 0421     		movs	r1, #4
 1068 01f6 FFF7FEFF 		bl	LED_Driver_LRBWS_SetRC
 1069              	.LVL140:
 241:.\Dash_Funcs.c ****         
 242:.\Dash_Funcs.c ****         OffsetFlash = 0;
 1070              		.loc 1 242 0
 1071 01fa 0022     		movs	r2, #0
 1072 01fc 234B     		ldr	r3, .L70+4
 1073 01fe 1A60     		str	r2, [r3]
 1074 0200 35E0     		b	.L56
 1075              	.L60:
 243:.\Dash_Funcs.c ****     }
 244:.\Dash_Funcs.c ****     else if(rpm >= Shift5+Overrev && FlashCounter > FlashFreq)
 1076              		.loc 1 244 0
 1077 0202 42F21B53 		movw	r3, #9499
 1078 0206 9A42     		cmp	r2, r3
 1079 0208 20D9     		bls	.L61
 1080              		.loc 1 244 0 is_stmt 0 discriminator 1
 1081 020a 214B     		ldr	r3, .L70+8
 1082 020c 1968     		ldr	r1, [r3]
 1083 020e 214B     		ldr	r3, .L70+12
 1084 0210 1B68     		ldr	r3, [r3]
 1085 0212 9942     		cmp	r1, r3
 1086 0214 1ADD     		ble	.L61
 245:.\Dash_Funcs.c ****     {
 246:.\Dash_Funcs.c ****         if(OffsetFlash == 0)
 1087              		.loc 1 246 0 is_stmt 1
 1088 0216 1D4B     		ldr	r3, .L70+4
 1089 0218 1B68     		ldr	r3, [r3]
 1090 021a 53B9     		cbnz	r3, .L62
 247:.\Dash_Funcs.c ****         {
 248:.\Dash_Funcs.c ****         LED_Driver_LRBWS_ToggleRC(16,Column);
 1091              		.loc 1 248 0
 1092 021c 1020     		movs	r0, #16
 1093 021e 0421     		movs	r1, #4
 1094 0220 FFF7FEFF 		bl	LED_Driver_LRBWS_ToggleRC
 1095              	.LVL141:
 249:.\Dash_Funcs.c ****         LED_Driver_LRBWS_ToggleRC(17,Column);
 1096              		.loc 1 249 0
 1097 0224 1120     		movs	r0, #17
 1098 0226 0421     		movs	r1, #4
 1099 0228 FFF7FEFF 		bl	LED_Driver_LRBWS_ToggleRC
 1100              	.LVL142:
 250:.\Dash_Funcs.c ****         OffsetFlash = 1;
 1101              		.loc 1 250 0
 1102 022c 0122     		movs	r2, #1
 1103 022e 174B     		ldr	r3, .L70+4
 1104 0230 1A60     		str	r2, [r3]
 1105              	.L62:
 156:.\Dash_Funcs.c ****     int Column = 4;
 1106              		.loc 1 156 0 discriminator 1
 1107 0232 0824     		movs	r4, #8
 1108 0234 04E0     		b	.L63
 1109              	.LVL143:
 1110              	.L64:
ARM GAS  C:\Users\charl\AppData\Local\Temp\cc9HoUqc.s 			page 25


 251:.\Dash_Funcs.c ****         }
 252:.\Dash_Funcs.c ****                 
 253:.\Dash_Funcs.c ****         //Flash all Lights
 254:.\Dash_Funcs.c ****         for(i = Light1; i<=Light5; i++)
 255:.\Dash_Funcs.c ****         {
 256:.\Dash_Funcs.c ****         LED_Driver_LRBWS_ToggleRC(i,Column);
 1111              		.loc 1 256 0 discriminator 3
 1112 0236 E0B2     		uxtb	r0, r4
 1113 0238 0421     		movs	r1, #4
 1114 023a FFF7FEFF 		bl	LED_Driver_LRBWS_ToggleRC
 1115              	.LVL144:
 254:.\Dash_Funcs.c ****         {
 1116              		.loc 1 254 0 discriminator 3
 1117 023e 0134     		adds	r4, r4, #1
 1118              	.LVL145:
 1119              	.L63:
 254:.\Dash_Funcs.c ****         {
 1120              		.loc 1 254 0 is_stmt 0 discriminator 1
 1121 0240 112C     		cmp	r4, #17
 1122 0242 F8DD     		ble	.L64
 257:.\Dash_Funcs.c ****         }
 258:.\Dash_Funcs.c ****         FlashCounter = 0;
 1123              		.loc 1 258 0 is_stmt 1
 1124 0244 0022     		movs	r2, #0
 1125 0246 124B     		ldr	r3, .L70+8
 1126 0248 1A60     		str	r2, [r3]
 1127 024a 10E0     		b	.L56
 1128              	.LVL146:
 1129              	.L61:
 259:.\Dash_Funcs.c ****     }
 260:.\Dash_Funcs.c ****     else if(rpm < Shift1)
 1130              		.loc 1 260 0
 1131 024c 41F65733 		movw	r3, #6999
 1132 0250 9A42     		cmp	r2, r3
 1133 0252 06D9     		bls	.L68
 1134 0254 0BE0     		b	.L56
 1135              	.LVL147:
 1136              	.L66:
 261:.\Dash_Funcs.c ****     {
 262:.\Dash_Funcs.c ****     //Turn off all lights
 263:.\Dash_Funcs.c ****         for(i = Light1; i<=Light5; i++)
 264:.\Dash_Funcs.c ****         {
 265:.\Dash_Funcs.c ****         LED_Driver_LRBWS_ClearRC(i,Column);
 1137              		.loc 1 265 0 discriminator 3
 1138 0256 E0B2     		uxtb	r0, r4
 1139 0258 0421     		movs	r1, #4
 1140 025a FFF7FEFF 		bl	LED_Driver_LRBWS_ClearRC
 1141              	.LVL148:
 263:.\Dash_Funcs.c ****         {
 1142              		.loc 1 263 0 discriminator 3
 1143 025e 0134     		adds	r4, r4, #1
 1144              	.LVL149:
 1145 0260 00E0     		b	.L65
 1146              	.LVL150:
 1147              	.L68:
 1148 0262 0824     		movs	r4, #8
 1149              	.LVL151:
ARM GAS  C:\Users\charl\AppData\Local\Temp\cc9HoUqc.s 			page 26


 1150              	.L65:
 263:.\Dash_Funcs.c ****         {
 1151              		.loc 1 263 0 is_stmt 0 discriminator 1
 1152 0264 112C     		cmp	r4, #17
 1153 0266 F6DD     		ble	.L66
 266:.\Dash_Funcs.c ****         }
 267:.\Dash_Funcs.c ****         OffsetFlash = 0;
 1154              		.loc 1 267 0 is_stmt 1
 1155 0268 0022     		movs	r2, #0
 1156 026a 084B     		ldr	r3, .L70+4
 1157 026c 1A60     		str	r2, [r3]
 1158              	.LVL152:
 1159              	.L56:
 268:.\Dash_Funcs.c ****     }
 269:.\Dash_Funcs.c ****     FlashCounter++;
 1160              		.loc 1 269 0
 1161 026e 084A     		ldr	r2, .L70+8
 1162 0270 1368     		ldr	r3, [r2]
 1163 0272 0133     		adds	r3, r3, #1
 1164 0274 1360     		str	r3, [r2]
 270:.\Dash_Funcs.c ****     if(FlashCounter > 10000)
 1165              		.loc 1 270 0
 1166 0276 42F21072 		movw	r2, #10000
 1167 027a 9342     		cmp	r3, r2
 1168 027c 02DD     		ble	.L67
 271:.\Dash_Funcs.c ****         FlashCounter = 0;
 1169              		.loc 1 271 0
 1170 027e 0022     		movs	r2, #0
 1171 0280 034B     		ldr	r3, .L70+8
 1172 0282 1A60     		str	r2, [r3]
 1173              	.L67:
 272:.\Dash_Funcs.c **** return 0;
 273:.\Dash_Funcs.c **** }
 1174              		.loc 1 273 0
 1175 0284 0020     		movs	r0, #0
 1176 0286 10BD     		pop	{r4, pc}
 1177              	.L71:
 1178              		.align	2
 1179              	.L70:
 1180 0288 00000000 		.word	rpm
 1181 028c 00000000 		.word	OffsetFlash
 1182 0290 00000000 		.word	FlashCounter
 1183 0294 00000000 		.word	FlashFreq
 1184              		.cfi_endproc
 1185              	.LFE69:
 1186              		.size	ShiftLights, .-ShiftLights
 1187              		.section	.text.WarningLights,"ax",%progbits
 1188              		.align	2
 1189              		.global	WarningLights
 1190              		.thumb
 1191              		.thumb_func
 1192              		.type	WarningLights, %function
 1193              	WarningLights:
 1194              	.LFB70:
 274:.\Dash_Funcs.c **** 
 275:.\Dash_Funcs.c **** int WarningLights()
 276:.\Dash_Funcs.c **** {
ARM GAS  C:\Users\charl\AppData\Local\Temp\cc9HoUqc.s 			page 27


 1195              		.loc 1 276 0
 1196              		.cfi_startproc
 1197              		@ args = 0, pretend = 0, frame = 0
 1198              		@ frame_needed = 0, uses_anonymous_args = 0
 1199 0000 08B5     		push	{r3, lr}
 1200              		.cfi_def_cfa_offset 8
 1201              		.cfi_offset 3, -8
 1202              		.cfi_offset 14, -4
 1203              	.LVL153:
 277:.\Dash_Funcs.c ****     //Values to be checked for warning 
 278:.\Dash_Funcs.c ****     int Left1 = 220;
 279:.\Dash_Funcs.c ****     int Left2 = 1650;
 280:.\Dash_Funcs.c ****     int Left3 = 260;
 281:.\Dash_Funcs.c ****     double Right1 = 11.5;
 282:.\Dash_Funcs.c ****     int Right2 = 2;
 283:.\Dash_Funcs.c ****     int Right3 = 35;
 284:.\Dash_Funcs.c ****     //Warning Thresholds
 285:.\Dash_Funcs.c ****     int Left1Thresh = 215; //>
 286:.\Dash_Funcs.c ****     int Left2Thresh = 1600;//>
 287:.\Dash_Funcs.c ****     int Left3Thresh = 250;//>
 288:.\Dash_Funcs.c ****     double Right1Thresh = 12.00;//<
 289:.\Dash_Funcs.c ****     int Right2Thresh = 0;
 290:.\Dash_Funcs.c ****     int Right3Thresh = 40;//<
 291:.\Dash_Funcs.c ****         
 292:.\Dash_Funcs.c ****     //Left1
 293:.\Dash_Funcs.c ****         if(Left1 > Left1Thresh)
 294:.\Dash_Funcs.c ****         {
 295:.\Dash_Funcs.c ****         LED_Driver_LRBWS_SetRC(0,4);
 1204              		.loc 1 295 0
 1205 0002 0020     		movs	r0, #0
 1206 0004 0421     		movs	r1, #4
 1207 0006 FFF7FEFF 		bl	LED_Driver_LRBWS_SetRC
 1208              	.LVL154:
 296:.\Dash_Funcs.c ****         }
 297:.\Dash_Funcs.c ****         else
 298:.\Dash_Funcs.c ****         {
 299:.\Dash_Funcs.c ****         LED_Driver_LRBWS_ClearRC(0,4);
 300:.\Dash_Funcs.c ****         }
 301:.\Dash_Funcs.c ****     //Left2
 302:.\Dash_Funcs.c ****         if(Left2 > Left2Thresh)
 303:.\Dash_Funcs.c ****         {
 304:.\Dash_Funcs.c ****         LED_Driver_LRBWS_SetRC(1,4);
 1209              		.loc 1 304 0
 1210 000a 0120     		movs	r0, #1
 1211 000c 0421     		movs	r1, #4
 1212 000e FFF7FEFF 		bl	LED_Driver_LRBWS_SetRC
 1213              	.LVL155:
 305:.\Dash_Funcs.c ****         }
 306:.\Dash_Funcs.c ****         else
 307:.\Dash_Funcs.c ****         {
 308:.\Dash_Funcs.c ****         LED_Driver_LRBWS_ClearRC(1,4);
 309:.\Dash_Funcs.c ****         }        
 310:.\Dash_Funcs.c ****     //Left3
 311:.\Dash_Funcs.c ****          if(Left3 > Left3Thresh)
 312:.\Dash_Funcs.c ****         {
 313:.\Dash_Funcs.c ****         LED_Driver_LRBWS_SetRC(2,4);
 1214              		.loc 1 313 0
ARM GAS  C:\Users\charl\AppData\Local\Temp\cc9HoUqc.s 			page 28


 1215 0012 0220     		movs	r0, #2
 1216 0014 0421     		movs	r1, #4
 1217 0016 FFF7FEFF 		bl	LED_Driver_LRBWS_SetRC
 1218              	.LVL156:
 314:.\Dash_Funcs.c ****         }
 315:.\Dash_Funcs.c ****         else
 316:.\Dash_Funcs.c ****         {
 317:.\Dash_Funcs.c ****         LED_Driver_LRBWS_ClearRC(2,4);
 318:.\Dash_Funcs.c ****         }       
 319:.\Dash_Funcs.c ****     //Right1
 320:.\Dash_Funcs.c ****         if(Right1 < Right1Thresh)
 321:.\Dash_Funcs.c ****         {
 322:.\Dash_Funcs.c ****         LED_Driver_LRBWS_SetRC(3,4);
 1219              		.loc 1 322 0
 1220 001a 0320     		movs	r0, #3
 1221 001c 0421     		movs	r1, #4
 1222 001e FFF7FEFF 		bl	LED_Driver_LRBWS_SetRC
 1223              	.LVL157:
 323:.\Dash_Funcs.c ****         }
 324:.\Dash_Funcs.c ****         else
 325:.\Dash_Funcs.c ****         {
 326:.\Dash_Funcs.c ****         LED_Driver_LRBWS_ClearRC(3,4);
 327:.\Dash_Funcs.c ****         }        
 328:.\Dash_Funcs.c ****     //Right2
 329:.\Dash_Funcs.c ****         if(Right2 > Right2Thresh)
 330:.\Dash_Funcs.c ****         {
 331:.\Dash_Funcs.c ****         LED_Driver_LRBWS_SetRC(4,4);
 1224              		.loc 1 331 0
 1225 0022 0420     		movs	r0, #4
 1226 0024 0146     		mov	r1, r0
 1227 0026 FFF7FEFF 		bl	LED_Driver_LRBWS_SetRC
 1228              	.LVL158:
 332:.\Dash_Funcs.c ****         }
 333:.\Dash_Funcs.c ****         else
 334:.\Dash_Funcs.c ****         {
 335:.\Dash_Funcs.c ****         LED_Driver_LRBWS_ClearRC(4,4);
 336:.\Dash_Funcs.c ****         }        
 337:.\Dash_Funcs.c ****     //Right3
 338:.\Dash_Funcs.c ****         if(Right3 < Right3Thresh)
 339:.\Dash_Funcs.c ****         {
 340:.\Dash_Funcs.c ****         LED_Driver_LRBWS_SetRC(5,4);
 1229              		.loc 1 340 0
 1230 002a 0520     		movs	r0, #5
 1231 002c 0421     		movs	r1, #4
 1232 002e FFF7FEFF 		bl	LED_Driver_LRBWS_SetRC
 1233              	.LVL159:
 341:.\Dash_Funcs.c ****         }
 342:.\Dash_Funcs.c ****         else
 343:.\Dash_Funcs.c ****         {
 344:.\Dash_Funcs.c ****         LED_Driver_LRBWS_ClearRC(5,4);
 345:.\Dash_Funcs.c ****         }        
 346:.\Dash_Funcs.c ****     return 0;
 347:.\Dash_Funcs.c **** }...
 1234              		.loc 1 347 0
 1235 0032 0020     		movs	r0, #0
 1236 0034 08BD     		pop	{r3, pc}
 1237              		.cfi_endproc
ARM GAS  C:\Users\charl\AppData\Local\Temp\cc9HoUqc.s 			page 29


 1238              	.LFE70:
 1239              		.size	WarningLights, .-WarningLights
 1240              		.comm	PrevState,1,1
 1241              		.comm	state,1,1
 1242 0036 00BF     		.text
 1243              	.Letext0:
 1244              		.file 2 "c:\\program files (x86)\\cypress\\psoc creator\\3.3\\psoc creator\\import\\gnu\\arm\\4.9.
 1245              		.file 3 "c:\\program files (x86)\\cypress\\psoc creator\\3.3\\psoc creator\\import\\gnu\\arm\\4.9.
 1246              		.file 4 "Generated_Source\\PSoC5/cytypes.h"
 1247              		.file 5 "c:\\program files (x86)\\cypress\\psoc creator\\3.3\\psoc creator\\import\\gnu\\arm\\4.9.
 1248              		.file 6 ".\\Dash_Funcs.h"
 1249              		.file 7 "Generated_Source\\PSoC5/core_cm3.h"
 1250              		.file 8 "Generated_Source\\PSoC5/LED_Driver_LRBWS.h"
 1251              		.file 9 "Generated_Source\\PSoC5/LED_Driver_Gear.h"
 1252              		.file 10 "Generated_Source\\PSoC5/Page_Button.h"