ARM GAS  C:\Users\charl\AppData\Local\Temp\ccNXZKic.s 			page 1


   1              		.syntax unified
   2              		.cpu cortex-m3
   3              		.fpu softvfp
   4              		.eabi_attribute 20, 1
   5              		.eabi_attribute 21, 1
   6              		.eabi_attribute 23, 3
   7              		.eabi_attribute 24, 1
   8              		.eabi_attribute 25, 1
   9              		.eabi_attribute 26, 1
  10              		.eabi_attribute 30, 1
  11              		.eabi_attribute 34, 1
  12              		.eabi_attribute 18, 4
  13              		.thumb
  14              		.file	"LED_Driver_Gear_PM.c"
  15              		.text
  16              	.Ltext0:
  17              		.cfi_sections	.debug_frame
  18              		.section	.text.LED_Driver_Gear_Sleep,"ax",%progbits
  19              		.align	2
  20              		.global	LED_Driver_Gear_Sleep
  21              		.thumb
  22              		.thumb_func
  23              		.type	LED_Driver_Gear_Sleep, %function
  24              	LED_Driver_Gear_Sleep:
  25              	.LFB0:
  26              		.file 1 ".\\Generated_Source\\PSoC5\\LED_Driver_Gear_PM.c"
   1:.\Generated_Source\PSoC5/LED_Driver_Gear_PM.c **** /*******************************************************************************
   2:.\Generated_Source\PSoC5/LED_Driver_Gear_PM.c **** * File Name: LED_Driver_Gear_PM.c
   3:.\Generated_Source\PSoC5/LED_Driver_Gear_PM.c **** * Version 1.10
   4:.\Generated_Source\PSoC5/LED_Driver_Gear_PM.c **** *
   5:.\Generated_Source\PSoC5/LED_Driver_Gear_PM.c **** * Description:
   6:.\Generated_Source\PSoC5/LED_Driver_Gear_PM.c **** *  This file provides the power management source code to API for the
   7:.\Generated_Source\PSoC5/LED_Driver_Gear_PM.c **** *  LED_Driver component.
   8:.\Generated_Source\PSoC5/LED_Driver_Gear_PM.c **** *
   9:.\Generated_Source\PSoC5/LED_Driver_Gear_PM.c **** * Note:
  10:.\Generated_Source\PSoC5/LED_Driver_Gear_PM.c **** *  None
  11:.\Generated_Source\PSoC5/LED_Driver_Gear_PM.c **** *
  12:.\Generated_Source\PSoC5/LED_Driver_Gear_PM.c **** *******************************************************************************
  13:.\Generated_Source\PSoC5/LED_Driver_Gear_PM.c **** * Copyright 2013-2015, Cypress Semiconductor Corporation.  All rights reserved.
  14:.\Generated_Source\PSoC5/LED_Driver_Gear_PM.c **** * You may use this file only in accordance with the license, terms, conditions,
  15:.\Generated_Source\PSoC5/LED_Driver_Gear_PM.c **** * disclaimers, and limitations in the end user license agreement accompanying
  16:.\Generated_Source\PSoC5/LED_Driver_Gear_PM.c **** * the software package with which this file was provided.
  17:.\Generated_Source\PSoC5/LED_Driver_Gear_PM.c **** ********************************************************************************/
  18:.\Generated_Source\PSoC5/LED_Driver_Gear_PM.c **** 
  19:.\Generated_Source\PSoC5/LED_Driver_Gear_PM.c **** #include "LED_Driver_Gear.h"
  20:.\Generated_Source\PSoC5/LED_Driver_Gear_PM.c **** static LED_Driver_Gear_backupStruct LED_Driver_Gear_backup;
  21:.\Generated_Source\PSoC5/LED_Driver_Gear_PM.c **** 
  22:.\Generated_Source\PSoC5/LED_Driver_Gear_PM.c **** 
  23:.\Generated_Source\PSoC5/LED_Driver_Gear_PM.c **** /*******************************************************************************
  24:.\Generated_Source\PSoC5/LED_Driver_Gear_PM.c **** * Function Name: LED_Driver_Gear_Sleep
  25:.\Generated_Source\PSoC5/LED_Driver_Gear_PM.c **** ********************************************************************************
  26:.\Generated_Source\PSoC5/LED_Driver_Gear_PM.c **** *
  27:.\Generated_Source\PSoC5/LED_Driver_Gear_PM.c **** * Summary:
  28:.\Generated_Source\PSoC5/LED_Driver_Gear_PM.c **** *  Stop and Save the user configuration
  29:.\Generated_Source\PSoC5/LED_Driver_Gear_PM.c **** *
  30:.\Generated_Source\PSoC5/LED_Driver_Gear_PM.c **** * Parameters:
  31:.\Generated_Source\PSoC5/LED_Driver_Gear_PM.c **** *  None
ARM GAS  C:\Users\charl\AppData\Local\Temp\ccNXZKic.s 			page 2


  32:.\Generated_Source\PSoC5/LED_Driver_Gear_PM.c **** *
  33:.\Generated_Source\PSoC5/LED_Driver_Gear_PM.c **** * Return:
  34:.\Generated_Source\PSoC5/LED_Driver_Gear_PM.c **** *  None
  35:.\Generated_Source\PSoC5/LED_Driver_Gear_PM.c **** *
  36:.\Generated_Source\PSoC5/LED_Driver_Gear_PM.c **** *******************************************************************************/
  37:.\Generated_Source\PSoC5/LED_Driver_Gear_PM.c **** void LED_Driver_Gear_Sleep(void) 
  38:.\Generated_Source\PSoC5/LED_Driver_Gear_PM.c **** {
  27              		.loc 1 38 0
  28              		.cfi_startproc
  29              		@ args = 0, pretend = 0, frame = 0
  30              		@ frame_needed = 0, uses_anonymous_args = 0
  31 0000 08B5     		push	{r3, lr}
  32              		.cfi_def_cfa_offset 8
  33              		.cfi_offset 3, -8
  34              		.cfi_offset 14, -4
  39:.\Generated_Source\PSoC5/LED_Driver_Gear_PM.c ****     uint8 i;
  40:.\Generated_Source\PSoC5/LED_Driver_Gear_PM.c ****     
  41:.\Generated_Source\PSoC5/LED_Driver_Gear_PM.c ****     /* Store the component enable state */
  42:.\Generated_Source\PSoC5/LED_Driver_Gear_PM.c ****     LED_Driver_Gear_backup.ledEnableState = LED_Driver_Gear_enableVar;
  35              		.loc 1 42 0
  36 0002 094B     		ldr	r3, .L5
  37 0004 1A78     		ldrb	r2, [r3]	@ zero_extendqisi2
  38 0006 094B     		ldr	r3, .L5+4
  39 0008 1A70     		strb	r2, [r3]
  40              	.LVL0:
  43:.\Generated_Source\PSoC5/LED_Driver_Gear_PM.c ****     
  44:.\Generated_Source\PSoC5/LED_Driver_Gear_PM.c ****     /* Save the segment buffers */
  45:.\Generated_Source\PSoC5/LED_Driver_Gear_PM.c ****     for(i = 0u; i < LED_Driver_Gear_NUM_COM; i++)
  41              		.loc 1 45 0
  42 000a 0023     		movs	r3, #0
  43 000c 06E0     		b	.L2
  44              	.LVL1:
  45              	.L3:
  46:.\Generated_Source\PSoC5/LED_Driver_Gear_PM.c ****     {
  47:.\Generated_Source\PSoC5/LED_Driver_Gear_PM.c ****         LED_Driver_Gear_backup.segLBackup[i] = LED_Driver_Gear_segLBuffer[i];
  46              		.loc 1 47 0 discriminator 3
  47 000e 084A     		ldr	r2, .L5+8
  48 0010 D15C     		ldrb	r1, [r2, r3]	@ zero_extendqisi2
  49 0012 064A     		ldr	r2, .L5+4
  50 0014 1A44     		add	r2, r2, r3
  51 0016 5170     		strb	r1, [r2, #1]
  45:.\Generated_Source\PSoC5/LED_Driver_Gear_PM.c ****     {
  52              		.loc 1 45 0 discriminator 3
  53 0018 0133     		adds	r3, r3, #1
  54              	.LVL2:
  55 001a DBB2     		uxtb	r3, r3
  56              	.LVL3:
  57              	.L2:
  45:.\Generated_Source\PSoC5/LED_Driver_Gear_PM.c ****     {
  58              		.loc 1 45 0 is_stmt 0 discriminator 1
  59 001c 002B     		cmp	r3, #0
  60 001e F6D0     		beq	.L3
  48:.\Generated_Source\PSoC5/LED_Driver_Gear_PM.c ****         #if (LED_Driver_Gear_NUM_SEG > 8u) 
  49:.\Generated_Source\PSoC5/LED_Driver_Gear_PM.c ****             LED_Driver_Gear_backup.segMBackup[i] = LED_Driver_Gear_segMBuffer[i];
  50:.\Generated_Source\PSoC5/LED_Driver_Gear_PM.c ****         #endif /* (LED_Driver_Gear_NUM_SEG > 8u) */
  51:.\Generated_Source\PSoC5/LED_Driver_Gear_PM.c ****         #if (LED_Driver_Gear_NUM_SEG > 16u) 
  52:.\Generated_Source\PSoC5/LED_Driver_Gear_PM.c ****             LED_Driver_Gear_backup.segHBackup[i] = LED_Driver_Gear_segHBuffer[i];
ARM GAS  C:\Users\charl\AppData\Local\Temp\ccNXZKic.s 			page 3


  53:.\Generated_Source\PSoC5/LED_Driver_Gear_PM.c ****         #endif /* (LED_Driver_Gear_NUM_SEG > 16u) */
  54:.\Generated_Source\PSoC5/LED_Driver_Gear_PM.c ****     }
  55:.\Generated_Source\PSoC5/LED_Driver_Gear_PM.c ****     
  56:.\Generated_Source\PSoC5/LED_Driver_Gear_PM.c ****     LED_Driver_Gear_Stop();
  61              		.loc 1 56 0 is_stmt 1
  62 0020 FFF7FEFF 		bl	LED_Driver_Gear_Stop
  63              	.LVL4:
  64 0024 08BD     		pop	{r3, pc}
  65              	.L6:
  66 0026 00BF     		.align	2
  67              	.L5:
  68 0028 00000000 		.word	LED_Driver_Gear_enableVar
  69 002c 00000000 		.word	.LANCHOR0
  70 0030 00000000 		.word	LED_Driver_Gear_segLBuffer
  71              		.cfi_endproc
  72              	.LFE0:
  73              		.size	LED_Driver_Gear_Sleep, .-LED_Driver_Gear_Sleep
  74              		.section	.text.LED_Driver_Gear_Wakeup,"ax",%progbits
  75              		.align	2
  76              		.global	LED_Driver_Gear_Wakeup
  77              		.thumb
  78              		.thumb_func
  79              		.type	LED_Driver_Gear_Wakeup, %function
  80              	LED_Driver_Gear_Wakeup:
  81              	.LFB1:
  57:.\Generated_Source\PSoC5/LED_Driver_Gear_PM.c **** }
  58:.\Generated_Source\PSoC5/LED_Driver_Gear_PM.c **** 
  59:.\Generated_Source\PSoC5/LED_Driver_Gear_PM.c **** 
  60:.\Generated_Source\PSoC5/LED_Driver_Gear_PM.c **** /*******************************************************************************
  61:.\Generated_Source\PSoC5/LED_Driver_Gear_PM.c **** * Function Name: LED_Driver_Gear_Wakeup
  62:.\Generated_Source\PSoC5/LED_Driver_Gear_PM.c **** ********************************************************************************
  63:.\Generated_Source\PSoC5/LED_Driver_Gear_PM.c **** *
  64:.\Generated_Source\PSoC5/LED_Driver_Gear_PM.c **** * Summary:
  65:.\Generated_Source\PSoC5/LED_Driver_Gear_PM.c **** *  Restores and enables the user configuration
  66:.\Generated_Source\PSoC5/LED_Driver_Gear_PM.c **** *
  67:.\Generated_Source\PSoC5/LED_Driver_Gear_PM.c **** * Parameters:
  68:.\Generated_Source\PSoC5/LED_Driver_Gear_PM.c **** *  None
  69:.\Generated_Source\PSoC5/LED_Driver_Gear_PM.c **** *
  70:.\Generated_Source\PSoC5/LED_Driver_Gear_PM.c **** * Return:
  71:.\Generated_Source\PSoC5/LED_Driver_Gear_PM.c **** *  None
  72:.\Generated_Source\PSoC5/LED_Driver_Gear_PM.c **** *
  73:.\Generated_Source\PSoC5/LED_Driver_Gear_PM.c **** *******************************************************************************/
  74:.\Generated_Source\PSoC5/LED_Driver_Gear_PM.c **** void LED_Driver_Gear_Wakeup(void) 
  75:.\Generated_Source\PSoC5/LED_Driver_Gear_PM.c **** {
  82              		.loc 1 75 0
  83              		.cfi_startproc
  84              		@ args = 0, pretend = 0, frame = 0
  85              		@ frame_needed = 0, uses_anonymous_args = 0
  86 0000 08B5     		push	{r3, lr}
  87              		.cfi_def_cfa_offset 8
  88              		.cfi_offset 3, -8
  89              		.cfi_offset 14, -4
  90              	.LVL5:
  76:.\Generated_Source\PSoC5/LED_Driver_Gear_PM.c ****     uint8 i;
  77:.\Generated_Source\PSoC5/LED_Driver_Gear_PM.c ****     
  78:.\Generated_Source\PSoC5/LED_Driver_Gear_PM.c ****     /* Restore the segment buffers */
  79:.\Generated_Source\PSoC5/LED_Driver_Gear_PM.c ****     for(i = 0u; i < LED_Driver_Gear_NUM_COM; i++)
ARM GAS  C:\Users\charl\AppData\Local\Temp\ccNXZKic.s 			page 4


  91              		.loc 1 79 0
  92 0002 0023     		movs	r3, #0
  93 0004 06E0     		b	.L8
  94              	.LVL6:
  95              	.L9:
  80:.\Generated_Source\PSoC5/LED_Driver_Gear_PM.c ****     {
  81:.\Generated_Source\PSoC5/LED_Driver_Gear_PM.c ****         LED_Driver_Gear_segLBuffer[i] = LED_Driver_Gear_backup.segLBackup[i];
  96              		.loc 1 81 0 discriminator 3
  97 0006 084A     		ldr	r2, .L12
  98 0008 1A44     		add	r2, r2, r3
  99 000a 5178     		ldrb	r1, [r2, #1]	@ zero_extendqisi2
 100 000c 074A     		ldr	r2, .L12+4
 101 000e D154     		strb	r1, [r2, r3]
  79:.\Generated_Source\PSoC5/LED_Driver_Gear_PM.c ****     {
 102              		.loc 1 79 0 discriminator 3
 103 0010 0133     		adds	r3, r3, #1
 104              	.LVL7:
 105 0012 DBB2     		uxtb	r3, r3
 106              	.LVL8:
 107              	.L8:
  79:.\Generated_Source\PSoC5/LED_Driver_Gear_PM.c ****     {
 108              		.loc 1 79 0 is_stmt 0 discriminator 1
 109 0014 002B     		cmp	r3, #0
 110 0016 F6D0     		beq	.L9
  82:.\Generated_Source\PSoC5/LED_Driver_Gear_PM.c ****         #if (LED_Driver_Gear_NUM_SEG > 8u) 
  83:.\Generated_Source\PSoC5/LED_Driver_Gear_PM.c ****             LED_Driver_Gear_segMBuffer[i] = LED_Driver_Gear_backup.segMBackup[i];
  84:.\Generated_Source\PSoC5/LED_Driver_Gear_PM.c ****         #endif /* (LED_Driver_Gear_NUM_SEG > 8u) */
  85:.\Generated_Source\PSoC5/LED_Driver_Gear_PM.c ****         #if (LED_Driver_Gear_NUM_SEG > 16u) 
  86:.\Generated_Source\PSoC5/LED_Driver_Gear_PM.c ****             LED_Driver_Gear_segHBuffer[i] = LED_Driver_Gear_backup.segHBackup[i];
  87:.\Generated_Source\PSoC5/LED_Driver_Gear_PM.c ****         #endif /* (LED_Driver_Gear_NUM_SEG > 16u) */
  88:.\Generated_Source\PSoC5/LED_Driver_Gear_PM.c ****     }
  89:.\Generated_Source\PSoC5/LED_Driver_Gear_PM.c ****     
  90:.\Generated_Source\PSoC5/LED_Driver_Gear_PM.c ****     if(LED_Driver_Gear_backup.ledEnableState == LED_Driver_Gear_ENABLED)
 111              		.loc 1 90 0 is_stmt 1
 112 0018 034B     		ldr	r3, .L12
 113              	.LVL9:
 114 001a 1B78     		ldrb	r3, [r3]	@ zero_extendqisi2
 115 001c 012B     		cmp	r3, #1
 116 001e 01D1     		bne	.L7
  91:.\Generated_Source\PSoC5/LED_Driver_Gear_PM.c ****     {
  92:.\Generated_Source\PSoC5/LED_Driver_Gear_PM.c ****         /* Enable the component */
  93:.\Generated_Source\PSoC5/LED_Driver_Gear_PM.c ****         LED_Driver_Gear_Enable();
 117              		.loc 1 93 0
 118 0020 FFF7FEFF 		bl	LED_Driver_Gear_Enable
 119              	.LVL10:
 120              	.L7:
 121 0024 08BD     		pop	{r3, pc}
 122              	.L13:
 123 0026 00BF     		.align	2
 124              	.L12:
 125 0028 00000000 		.word	.LANCHOR0
 126 002c 00000000 		.word	LED_Driver_Gear_segLBuffer
 127              		.cfi_endproc
 128              	.LFE1:
 129              		.size	LED_Driver_Gear_Wakeup, .-LED_Driver_Gear_Wakeup
 130              		.bss
 131              		.align	2
ARM GAS  C:\Users\charl\AppData\Local\Temp\ccNXZKic.s 			page 5


 132              		.set	.LANCHOR0,. + 0
 133              		.type	LED_Driver_Gear_backup, %object
 134              		.size	LED_Driver_Gear_backup, 2
 135              	LED_Driver_Gear_backup:
 136 0000 0000     		.space	2
 137 0002 0000     		.text
 138              	.Letext0:
 139              		.file 2 ".\\Generated_Source\\PSoC5\\LED_Driver_Gear.h"
 140              		.file 3 "Generated_Source\\PSoC5/cytypes.h"