ARM GAS  C:\Users\charl\AppData\Local\Temp\ccQ8rBYw.s 			page 1


   1              		.syntax unified
   2              		.cpu cortex-m3
   3              		.fpu softvfp
   4              		.eabi_attribute 20, 1
   5              		.eabi_attribute 21, 1
   6              		.eabi_attribute 23, 3
   7              		.eabi_attribute 24, 1
   8              		.eabi_attribute 25, 1
   9              		.eabi_attribute 26, 1
  10              		.eabi_attribute 30, 1
  11              		.eabi_attribute 34, 1
  12              		.eabi_attribute 18, 4
  13              		.thumb
  14              		.file	"LED_Driver_LRBWS_PM.c"
  15              		.text
  16              	.Ltext0:
  17              		.cfi_sections	.debug_frame
  18              		.section	.text.LED_Driver_LRBWS_Sleep,"ax",%progbits
  19              		.align	2
  20              		.global	LED_Driver_LRBWS_Sleep
  21              		.thumb
  22              		.thumb_func
  23              		.type	LED_Driver_LRBWS_Sleep, %function
  24              	LED_Driver_LRBWS_Sleep:
  25              	.LFB0:
  26              		.file 1 ".\\Generated_Source\\PSoC5\\LED_Driver_LRBWS_PM.c"
   1:.\Generated_Source\PSoC5/LED_Driver_LRBWS_PM.c **** /*******************************************************************************
   2:.\Generated_Source\PSoC5/LED_Driver_LRBWS_PM.c **** * File Name: LED_Driver_LRBWS_PM.c
   3:.\Generated_Source\PSoC5/LED_Driver_LRBWS_PM.c **** * Version 1.10
   4:.\Generated_Source\PSoC5/LED_Driver_LRBWS_PM.c **** *
   5:.\Generated_Source\PSoC5/LED_Driver_LRBWS_PM.c **** * Description:
   6:.\Generated_Source\PSoC5/LED_Driver_LRBWS_PM.c **** *  This file provides the power management source code to API for the
   7:.\Generated_Source\PSoC5/LED_Driver_LRBWS_PM.c **** *  LED_Driver component.
   8:.\Generated_Source\PSoC5/LED_Driver_LRBWS_PM.c **** *
   9:.\Generated_Source\PSoC5/LED_Driver_LRBWS_PM.c **** * Note:
  10:.\Generated_Source\PSoC5/LED_Driver_LRBWS_PM.c **** *  None
  11:.\Generated_Source\PSoC5/LED_Driver_LRBWS_PM.c **** *
  12:.\Generated_Source\PSoC5/LED_Driver_LRBWS_PM.c **** *******************************************************************************
  13:.\Generated_Source\PSoC5/LED_Driver_LRBWS_PM.c **** * Copyright 2013-2015, Cypress Semiconductor Corporation.  All rights reserved.
  14:.\Generated_Source\PSoC5/LED_Driver_LRBWS_PM.c **** * You may use this file only in accordance with the license, terms, conditions,
  15:.\Generated_Source\PSoC5/LED_Driver_LRBWS_PM.c **** * disclaimers, and limitations in the end user license agreement accompanying
  16:.\Generated_Source\PSoC5/LED_Driver_LRBWS_PM.c **** * the software package with which this file was provided.
  17:.\Generated_Source\PSoC5/LED_Driver_LRBWS_PM.c **** ********************************************************************************/
  18:.\Generated_Source\PSoC5/LED_Driver_LRBWS_PM.c **** 
  19:.\Generated_Source\PSoC5/LED_Driver_LRBWS_PM.c **** #include "LED_Driver_LRBWS.h"
  20:.\Generated_Source\PSoC5/LED_Driver_LRBWS_PM.c **** static LED_Driver_LRBWS_backupStruct LED_Driver_LRBWS_backup;
  21:.\Generated_Source\PSoC5/LED_Driver_LRBWS_PM.c **** 
  22:.\Generated_Source\PSoC5/LED_Driver_LRBWS_PM.c **** 
  23:.\Generated_Source\PSoC5/LED_Driver_LRBWS_PM.c **** /*******************************************************************************
  24:.\Generated_Source\PSoC5/LED_Driver_LRBWS_PM.c **** * Function Name: LED_Driver_LRBWS_Sleep
  25:.\Generated_Source\PSoC5/LED_Driver_LRBWS_PM.c **** ********************************************************************************
  26:.\Generated_Source\PSoC5/LED_Driver_LRBWS_PM.c **** *
  27:.\Generated_Source\PSoC5/LED_Driver_LRBWS_PM.c **** * Summary:
  28:.\Generated_Source\PSoC5/LED_Driver_LRBWS_PM.c **** *  Stop and Save the user configuration
  29:.\Generated_Source\PSoC5/LED_Driver_LRBWS_PM.c **** *
  30:.\Generated_Source\PSoC5/LED_Driver_LRBWS_PM.c **** * Parameters:
  31:.\Generated_Source\PSoC5/LED_Driver_LRBWS_PM.c **** *  None
ARM GAS  C:\Users\charl\AppData\Local\Temp\ccQ8rBYw.s 			page 2


  32:.\Generated_Source\PSoC5/LED_Driver_LRBWS_PM.c **** *
  33:.\Generated_Source\PSoC5/LED_Driver_LRBWS_PM.c **** * Return:
  34:.\Generated_Source\PSoC5/LED_Driver_LRBWS_PM.c **** *  None
  35:.\Generated_Source\PSoC5/LED_Driver_LRBWS_PM.c **** *
  36:.\Generated_Source\PSoC5/LED_Driver_LRBWS_PM.c **** *******************************************************************************/
  37:.\Generated_Source\PSoC5/LED_Driver_LRBWS_PM.c **** void LED_Driver_LRBWS_Sleep(void) 
  38:.\Generated_Source\PSoC5/LED_Driver_LRBWS_PM.c **** {
  27              		.loc 1 38 0
  28              		.cfi_startproc
  29              		@ args = 0, pretend = 0, frame = 0
  30              		@ frame_needed = 0, uses_anonymous_args = 0
  31 0000 08B5     		push	{r3, lr}
  32              		.cfi_def_cfa_offset 8
  33              		.cfi_offset 3, -8
  34              		.cfi_offset 14, -4
  39:.\Generated_Source\PSoC5/LED_Driver_LRBWS_PM.c ****     uint8 i;
  40:.\Generated_Source\PSoC5/LED_Driver_LRBWS_PM.c ****     
  41:.\Generated_Source\PSoC5/LED_Driver_LRBWS_PM.c ****     /* Store the component enable state */
  42:.\Generated_Source\PSoC5/LED_Driver_LRBWS_PM.c ****     LED_Driver_LRBWS_backup.ledEnableState = LED_Driver_LRBWS_enableVar;
  35              		.loc 1 42 0
  36 0002 0C4B     		ldr	r3, .L5
  37 0004 1A78     		ldrb	r2, [r3]	@ zero_extendqisi2
  38 0006 0C4B     		ldr	r3, .L5+4
  39 0008 1A70     		strb	r2, [r3]
  40              	.LVL0:
  43:.\Generated_Source\PSoC5/LED_Driver_LRBWS_PM.c ****     
  44:.\Generated_Source\PSoC5/LED_Driver_LRBWS_PM.c ****     /* Save the segment buffers */
  45:.\Generated_Source\PSoC5/LED_Driver_LRBWS_PM.c ****     for(i = 0u; i < LED_Driver_LRBWS_NUM_COM; i++)
  41              		.loc 1 45 0
  42 000a 0023     		movs	r3, #0
  43 000c 0CE0     		b	.L2
  44              	.LVL1:
  45              	.L3:
  46:.\Generated_Source\PSoC5/LED_Driver_LRBWS_PM.c ****     {
  47:.\Generated_Source\PSoC5/LED_Driver_LRBWS_PM.c ****         LED_Driver_LRBWS_backup.segLBackup[i] = LED_Driver_LRBWS_segLBuffer[i];
  46              		.loc 1 47 0 discriminator 3
  47 000e 0B4A     		ldr	r2, .L5+8
  48 0010 D15C     		ldrb	r1, [r2, r3]	@ zero_extendqisi2
  49 0012 094A     		ldr	r2, .L5+4
  50 0014 1A44     		add	r2, r2, r3
  51 0016 5170     		strb	r1, [r2, #1]
  48:.\Generated_Source\PSoC5/LED_Driver_LRBWS_PM.c ****         #if (LED_Driver_LRBWS_NUM_SEG > 8u) 
  49:.\Generated_Source\PSoC5/LED_Driver_LRBWS_PM.c ****             LED_Driver_LRBWS_backup.segMBackup[i] = LED_Driver_LRBWS_segMBuffer[i];
  52              		.loc 1 49 0 discriminator 3
  53 0018 0949     		ldr	r1, .L5+12
  54 001a C95C     		ldrb	r1, [r1, r3]	@ zero_extendqisi2
  55 001c 9171     		strb	r1, [r2, #6]
  50:.\Generated_Source\PSoC5/LED_Driver_LRBWS_PM.c ****         #endif /* (LED_Driver_LRBWS_NUM_SEG > 8u) */
  51:.\Generated_Source\PSoC5/LED_Driver_LRBWS_PM.c ****         #if (LED_Driver_LRBWS_NUM_SEG > 16u) 
  52:.\Generated_Source\PSoC5/LED_Driver_LRBWS_PM.c ****             LED_Driver_LRBWS_backup.segHBackup[i] = LED_Driver_LRBWS_segHBuffer[i];
  56              		.loc 1 52 0 discriminator 3
  57 001e 0949     		ldr	r1, .L5+16
  58 0020 C95C     		ldrb	r1, [r1, r3]	@ zero_extendqisi2
  59 0022 D172     		strb	r1, [r2, #11]
  45:.\Generated_Source\PSoC5/LED_Driver_LRBWS_PM.c ****     {
  60              		.loc 1 45 0 discriminator 3
  61 0024 0133     		adds	r3, r3, #1
ARM GAS  C:\Users\charl\AppData\Local\Temp\ccQ8rBYw.s 			page 3


  62              	.LVL2:
  63 0026 DBB2     		uxtb	r3, r3
  64              	.LVL3:
  65              	.L2:
  45:.\Generated_Source\PSoC5/LED_Driver_LRBWS_PM.c ****     {
  66              		.loc 1 45 0 is_stmt 0 discriminator 1
  67 0028 042B     		cmp	r3, #4
  68 002a F0D9     		bls	.L3
  53:.\Generated_Source\PSoC5/LED_Driver_LRBWS_PM.c ****         #endif /* (LED_Driver_LRBWS_NUM_SEG > 16u) */
  54:.\Generated_Source\PSoC5/LED_Driver_LRBWS_PM.c ****     }
  55:.\Generated_Source\PSoC5/LED_Driver_LRBWS_PM.c ****     
  56:.\Generated_Source\PSoC5/LED_Driver_LRBWS_PM.c ****     LED_Driver_LRBWS_Stop();
  69              		.loc 1 56 0 is_stmt 1
  70 002c FFF7FEFF 		bl	LED_Driver_LRBWS_Stop
  71              	.LVL4:
  72 0030 08BD     		pop	{r3, pc}
  73              	.L6:
  74 0032 00BF     		.align	2
  75              	.L5:
  76 0034 00000000 		.word	LED_Driver_LRBWS_enableVar
  77 0038 00000000 		.word	.LANCHOR0
  78 003c 00000000 		.word	LED_Driver_LRBWS_segLBuffer
  79 0040 00000000 		.word	LED_Driver_LRBWS_segMBuffer
  80 0044 00000000 		.word	LED_Driver_LRBWS_segHBuffer
  81              		.cfi_endproc
  82              	.LFE0:
  83              		.size	LED_Driver_LRBWS_Sleep, .-LED_Driver_LRBWS_Sleep
  84              		.section	.text.LED_Driver_LRBWS_Wakeup,"ax",%progbits
  85              		.align	2
  86              		.global	LED_Driver_LRBWS_Wakeup
  87              		.thumb
  88              		.thumb_func
  89              		.type	LED_Driver_LRBWS_Wakeup, %function
  90              	LED_Driver_LRBWS_Wakeup:
  91              	.LFB1:
  57:.\Generated_Source\PSoC5/LED_Driver_LRBWS_PM.c **** }
  58:.\Generated_Source\PSoC5/LED_Driver_LRBWS_PM.c **** 
  59:.\Generated_Source\PSoC5/LED_Driver_LRBWS_PM.c **** 
  60:.\Generated_Source\PSoC5/LED_Driver_LRBWS_PM.c **** /*******************************************************************************
  61:.\Generated_Source\PSoC5/LED_Driver_LRBWS_PM.c **** * Function Name: LED_Driver_LRBWS_Wakeup
  62:.\Generated_Source\PSoC5/LED_Driver_LRBWS_PM.c **** ********************************************************************************
  63:.\Generated_Source\PSoC5/LED_Driver_LRBWS_PM.c **** *
  64:.\Generated_Source\PSoC5/LED_Driver_LRBWS_PM.c **** * Summary:
  65:.\Generated_Source\PSoC5/LED_Driver_LRBWS_PM.c **** *  Restores and enables the user configuration
  66:.\Generated_Source\PSoC5/LED_Driver_LRBWS_PM.c **** *
  67:.\Generated_Source\PSoC5/LED_Driver_LRBWS_PM.c **** * Parameters:
  68:.\Generated_Source\PSoC5/LED_Driver_LRBWS_PM.c **** *  None
  69:.\Generated_Source\PSoC5/LED_Driver_LRBWS_PM.c **** *
  70:.\Generated_Source\PSoC5/LED_Driver_LRBWS_PM.c **** * Return:
  71:.\Generated_Source\PSoC5/LED_Driver_LRBWS_PM.c **** *  None
  72:.\Generated_Source\PSoC5/LED_Driver_LRBWS_PM.c **** *
  73:.\Generated_Source\PSoC5/LED_Driver_LRBWS_PM.c **** *******************************************************************************/
  74:.\Generated_Source\PSoC5/LED_Driver_LRBWS_PM.c **** void LED_Driver_LRBWS_Wakeup(void) 
  75:.\Generated_Source\PSoC5/LED_Driver_LRBWS_PM.c **** {
  92              		.loc 1 75 0
  93              		.cfi_startproc
  94              		@ args = 0, pretend = 0, frame = 0
ARM GAS  C:\Users\charl\AppData\Local\Temp\ccQ8rBYw.s 			page 4


  95              		@ frame_needed = 0, uses_anonymous_args = 0
  96 0000 08B5     		push	{r3, lr}
  97              		.cfi_def_cfa_offset 8
  98              		.cfi_offset 3, -8
  99              		.cfi_offset 14, -4
 100              	.LVL5:
  76:.\Generated_Source\PSoC5/LED_Driver_LRBWS_PM.c ****     uint8 i;
  77:.\Generated_Source\PSoC5/LED_Driver_LRBWS_PM.c ****     
  78:.\Generated_Source\PSoC5/LED_Driver_LRBWS_PM.c ****     /* Restore the segment buffers */
  79:.\Generated_Source\PSoC5/LED_Driver_LRBWS_PM.c ****     for(i = 0u; i < LED_Driver_LRBWS_NUM_COM; i++)
 101              		.loc 1 79 0
 102 0002 0023     		movs	r3, #0
 103 0004 0CE0     		b	.L8
 104              	.LVL6:
 105              	.L9:
  80:.\Generated_Source\PSoC5/LED_Driver_LRBWS_PM.c ****     {
  81:.\Generated_Source\PSoC5/LED_Driver_LRBWS_PM.c ****         LED_Driver_LRBWS_segLBuffer[i] = LED_Driver_LRBWS_backup.segLBackup[i];
 106              		.loc 1 81 0 discriminator 3
 107 0006 0B4A     		ldr	r2, .L12
 108 0008 1A44     		add	r2, r2, r3
 109 000a 5078     		ldrb	r0, [r2, #1]	@ zero_extendqisi2
 110 000c 0A49     		ldr	r1, .L12+4
 111 000e C854     		strb	r0, [r1, r3]
  82:.\Generated_Source\PSoC5/LED_Driver_LRBWS_PM.c ****         #if (LED_Driver_LRBWS_NUM_SEG > 8u) 
  83:.\Generated_Source\PSoC5/LED_Driver_LRBWS_PM.c ****             LED_Driver_LRBWS_segMBuffer[i] = LED_Driver_LRBWS_backup.segMBackup[i];
 112              		.loc 1 83 0 discriminator 3
 113 0010 9079     		ldrb	r0, [r2, #6]	@ zero_extendqisi2
 114 0012 0A49     		ldr	r1, .L12+8
 115 0014 C854     		strb	r0, [r1, r3]
  84:.\Generated_Source\PSoC5/LED_Driver_LRBWS_PM.c ****         #endif /* (LED_Driver_LRBWS_NUM_SEG > 8u) */
  85:.\Generated_Source\PSoC5/LED_Driver_LRBWS_PM.c ****         #if (LED_Driver_LRBWS_NUM_SEG > 16u) 
  86:.\Generated_Source\PSoC5/LED_Driver_LRBWS_PM.c ****             LED_Driver_LRBWS_segHBuffer[i] = LED_Driver_LRBWS_backup.segHBackup[i];
 116              		.loc 1 86 0 discriminator 3
 117 0016 D17A     		ldrb	r1, [r2, #11]	@ zero_extendqisi2
 118 0018 094A     		ldr	r2, .L12+12
 119 001a D154     		strb	r1, [r2, r3]
  79:.\Generated_Source\PSoC5/LED_Driver_LRBWS_PM.c ****     {
 120              		.loc 1 79 0 discriminator 3
 121 001c 0133     		adds	r3, r3, #1
 122              	.LVL7:
 123 001e DBB2     		uxtb	r3, r3
 124              	.LVL8:
 125              	.L8:
  79:.\Generated_Source\PSoC5/LED_Driver_LRBWS_PM.c ****     {
 126              		.loc 1 79 0 is_stmt 0 discriminator 1
 127 0020 042B     		cmp	r3, #4
 128 0022 F0D9     		bls	.L9
  87:.\Generated_Source\PSoC5/LED_Driver_LRBWS_PM.c ****         #endif /* (LED_Driver_LRBWS_NUM_SEG > 16u) */
  88:.\Generated_Source\PSoC5/LED_Driver_LRBWS_PM.c ****     }
  89:.\Generated_Source\PSoC5/LED_Driver_LRBWS_PM.c ****     
  90:.\Generated_Source\PSoC5/LED_Driver_LRBWS_PM.c ****     if(LED_Driver_LRBWS_backup.ledEnableState == LED_Driver_LRBWS_ENABLED)
 129              		.loc 1 90 0 is_stmt 1
 130 0024 034B     		ldr	r3, .L12
 131              	.LVL9:
 132 0026 1B78     		ldrb	r3, [r3]	@ zero_extendqisi2
 133 0028 012B     		cmp	r3, #1
 134 002a 01D1     		bne	.L7
ARM GAS  C:\Users\charl\AppData\Local\Temp\ccQ8rBYw.s 			page 5


  91:.\Generated_Source\PSoC5/LED_Driver_LRBWS_PM.c ****     {
  92:.\Generated_Source\PSoC5/LED_Driver_LRBWS_PM.c ****         /* Enable the component */
  93:.\Generated_Source\PSoC5/LED_Driver_LRBWS_PM.c ****         LED_Driver_LRBWS_Enable();
 135              		.loc 1 93 0
 136 002c FFF7FEFF 		bl	LED_Driver_LRBWS_Enable
 137              	.LVL10:
 138              	.L7:
 139 0030 08BD     		pop	{r3, pc}
 140              	.L13:
 141 0032 00BF     		.align	2
 142              	.L12:
 143 0034 00000000 		.word	.LANCHOR0
 144 0038 00000000 		.word	LED_Driver_LRBWS_segLBuffer
 145 003c 00000000 		.word	LED_Driver_LRBWS_segMBuffer
 146 0040 00000000 		.word	LED_Driver_LRBWS_segHBuffer
 147              		.cfi_endproc
 148              	.LFE1:
 149              		.size	LED_Driver_LRBWS_Wakeup, .-LED_Driver_LRBWS_Wakeup
 150              		.bss
 151              		.align	2
 152              		.set	.LANCHOR0,. + 0
 153              		.type	LED_Driver_LRBWS_backup, %object
 154              		.size	LED_Driver_LRBWS_backup, 16
 155              	LED_Driver_LRBWS_backup:
 156 0000 00000000 		.space	16
 156      00000000 
 156      00000000 
 156      00000000 
 157              		.text
 158              	.Letext0:
 159              		.file 2 ".\\Generated_Source\\PSoC5\\LED_Driver_LRBWS.h"
 160              		.file 3 "Generated_Source\\PSoC5/cytypes.h"