ARM GAS  C:\Users\charl\AppData\Local\Temp\ccrxE5Zl.s 			page 1


   1              		.syntax unified
   2              		.cpu cortex-m3
   3              		.fpu softvfp
   4              		.eabi_attribute 20, 1
   5              		.eabi_attribute 21, 1
   6              		.eabi_attribute 23, 3
   7              		.eabi_attribute 24, 1
   8              		.eabi_attribute 25, 1
   9              		.eabi_attribute 26, 1
  10              		.eabi_attribute 30, 1
  11              		.eabi_attribute 34, 1
  12              		.eabi_attribute 18, 4
  13              		.thumb
  14              		.file	"LED_Driver_Gear.c"
  15              		.text
  16              	.Ltext0:
  17              		.cfi_sections	.debug_frame
  18              		.section	.text.LED_Driver_Gear_DmaInit,"ax",%progbits
  19              		.align	2
  20              		.thumb
  21              		.thumb_func
  22              		.type	LED_Driver_Gear_DmaInit, %function
  23              	LED_Driver_Gear_DmaInit:
  24              	.LFB0:
  25              		.file 1 ".\\Generated_Source\\PSoC5\\LED_Driver_Gear.c"
   1:.\Generated_Source\PSoC5/LED_Driver_Gear.c **** /*******************************************************************************
   2:.\Generated_Source\PSoC5/LED_Driver_Gear.c **** * File Name: LED_Driver_Gear.c
   3:.\Generated_Source\PSoC5/LED_Driver_Gear.c **** * Version 1.10
   4:.\Generated_Source\PSoC5/LED_Driver_Gear.c **** *
   5:.\Generated_Source\PSoC5/LED_Driver_Gear.c **** * Description:
   6:.\Generated_Source\PSoC5/LED_Driver_Gear.c **** *  This file contains the setup, control and status commands for the 
   7:.\Generated_Source\PSoC5/LED_Driver_Gear.c **** *  LED Driver component.
   8:.\Generated_Source\PSoC5/LED_Driver_Gear.c **** *
   9:.\Generated_Source\PSoC5/LED_Driver_Gear.c **** * Note:
  10:.\Generated_Source\PSoC5/LED_Driver_Gear.c **** *  None
  11:.\Generated_Source\PSoC5/LED_Driver_Gear.c **** *
  12:.\Generated_Source\PSoC5/LED_Driver_Gear.c **** ********************************************************************************
  13:.\Generated_Source\PSoC5/LED_Driver_Gear.c **** * Copyright 2013-2015, Cypress Semiconductor Corporation.  All rights reserved.
  14:.\Generated_Source\PSoC5/LED_Driver_Gear.c **** * You may use this file only in accordance with the license, terms, conditions,
  15:.\Generated_Source\PSoC5/LED_Driver_Gear.c **** * disclaimers, and limitations in the end user license agreement accompanying
  16:.\Generated_Source\PSoC5/LED_Driver_Gear.c **** * the software package with which this file was provided.
  17:.\Generated_Source\PSoC5/LED_Driver_Gear.c **** ********************************************************************************/
  18:.\Generated_Source\PSoC5/LED_Driver_Gear.c **** 
  19:.\Generated_Source\PSoC5/LED_Driver_Gear.c **** #include "LED_Driver_Gear.h"
  20:.\Generated_Source\PSoC5/LED_Driver_Gear.c **** #include <LED_Driver_Gear_DMA_Com_dma.h>
  21:.\Generated_Source\PSoC5/LED_Driver_Gear.c **** #include <LED_Driver_Gear_DMA_Seg_dma.h>
  22:.\Generated_Source\PSoC5/LED_Driver_Gear.c **** #if (LED_Driver_Gear_BRIGHTNESS_EN == LED_Driver_Gear_ENABLED)
  23:.\Generated_Source\PSoC5/LED_Driver_Gear.c ****     #include <LED_Driver_Gear_DMA_BC_dma.h>
  24:.\Generated_Source\PSoC5/LED_Driver_Gear.c **** #endif /* (LED_Driver_Gear_BRIGHTNESS_EN == LED_Driver_Gear_ENABLED) */
  25:.\Generated_Source\PSoC5/LED_Driver_Gear.c **** 
  26:.\Generated_Source\PSoC5/LED_Driver_Gear.c **** /* Function prototypes */
  27:.\Generated_Source\PSoC5/LED_Driver_Gear.c **** static void LED_Driver_Gear_DmaInit(void) ;
  28:.\Generated_Source\PSoC5/LED_Driver_Gear.c **** static void LED_Driver_Gear_DmaEnable(void) ;
  29:.\Generated_Source\PSoC5/LED_Driver_Gear.c **** static void LED_Driver_Gear_DmaDisable(void) ;
  30:.\Generated_Source\PSoC5/LED_Driver_Gear.c **** 
  31:.\Generated_Source\PSoC5/LED_Driver_Gear.c **** /* Used to hold the common line output sequence */
  32:.\Generated_Source\PSoC5/LED_Driver_Gear.c **** #if(LED_Driver_Gear_COM_DRIVE == LED_Driver_Gear_HIGH)
ARM GAS  C:\Users\charl\AppData\Local\Temp\ccrxE5Zl.s 			page 2


  33:.\Generated_Source\PSoC5/LED_Driver_Gear.c ****     static uint8 LED_Driver_Gear_comBuffer[16] = {0x00u, 0x01u, 0x00u, 0x02u, 0x00u, 0x04u, 0x00u, 
  34:.\Generated_Source\PSoC5/LED_Driver_Gear.c ****                                                     0x00u, 0x10u, 0x00u, 0x20u, 0x00u, 0x40u, 0x00u
  35:.\Generated_Source\PSoC5/LED_Driver_Gear.c **** #else
  36:.\Generated_Source\PSoC5/LED_Driver_Gear.c ****     static uint8 LED_Driver_Gear_comBuffer[16] = {0xFFu, 0xFEu, 0xFFu, 0xFDu, 0xFFu, 0xFBu, 0xFFu, 
  37:.\Generated_Source\PSoC5/LED_Driver_Gear.c ****                                                     0xFFu, 0xEFu, 0xFFu, 0xDFu, 0xFFu, 0xBFu, 0xFFu
  38:.\Generated_Source\PSoC5/LED_Driver_Gear.c **** #endif /* (LED_Driver_Gear_COM_DRIVE == LED_Driver_Gear_HIGH) */
  39:.\Generated_Source\PSoC5/LED_Driver_Gear.c **** 
  40:.\Generated_Source\PSoC5/LED_Driver_Gear.c **** /* Buffers used to hold the display(segment) values to be transferred to the control registers */
  41:.\Generated_Source\PSoC5/LED_Driver_Gear.c **** uint8 LED_Driver_Gear_segLBuffer[LED_Driver_Gear_NUM_COM];
  42:.\Generated_Source\PSoC5/LED_Driver_Gear.c **** #if (LED_Driver_Gear_NUM_SEG > 8u) 
  43:.\Generated_Source\PSoC5/LED_Driver_Gear.c ****     uint8 LED_Driver_Gear_segMBuffer[LED_Driver_Gear_NUM_COM];
  44:.\Generated_Source\PSoC5/LED_Driver_Gear.c **** #endif /* (LED_Driver_Gear_NUM_SEG > 8u) */
  45:.\Generated_Source\PSoC5/LED_Driver_Gear.c **** #if (LED_Driver_Gear_NUM_SEG > 16u) 
  46:.\Generated_Source\PSoC5/LED_Driver_Gear.c ****     uint8 LED_Driver_Gear_segHBuffer[LED_Driver_Gear_NUM_COM];
  47:.\Generated_Source\PSoC5/LED_Driver_Gear.c **** #endif /* (LED_Driver_Gear_NUM_SEG > 16u) */
  48:.\Generated_Source\PSoC5/LED_Driver_Gear.c **** 
  49:.\Generated_Source\PSoC5/LED_Driver_Gear.c **** #if (LED_Driver_Gear_BRIGHTNESS_EN == LED_Driver_Gear_ENABLED)
  50:.\Generated_Source\PSoC5/LED_Driver_Gear.c ****     /* The brightness register used to hold the brightness levels for each common */
  51:.\Generated_Source\PSoC5/LED_Driver_Gear.c ****     static uint8 LED_Driver_Gear_brightnessReg[LED_Driver_Gear_NUM_COM];
  52:.\Generated_Source\PSoC5/LED_Driver_Gear.c **** #endif /* (LED_Driver_Gear_BRIGHTNESS_EN == LED_Driver_Gear_ENABLED) */
  53:.\Generated_Source\PSoC5/LED_Driver_Gear.c **** 
  54:.\Generated_Source\PSoC5/LED_Driver_Gear.c **** /* DMA channel and TD declaractions */
  55:.\Generated_Source\PSoC5/LED_Driver_Gear.c **** static uint8 LED_Driver_Gear_dmaComChannel;
  56:.\Generated_Source\PSoC5/LED_Driver_Gear.c **** static uint8 LED_Driver_Gear_dmaComTd[LED_Driver_Gear_TWO_NUM_COM];
  57:.\Generated_Source\PSoC5/LED_Driver_Gear.c **** 
  58:.\Generated_Source\PSoC5/LED_Driver_Gear.c **** static uint8 LED_Driver_Gear_dmaSegChannel;
  59:.\Generated_Source\PSoC5/LED_Driver_Gear.c **** static uint8 LED_Driver_Gear_dmaSegLTd[LED_Driver_Gear_NUM_COM];
  60:.\Generated_Source\PSoC5/LED_Driver_Gear.c **** 
  61:.\Generated_Source\PSoC5/LED_Driver_Gear.c **** #if (LED_Driver_Gear_BRIGHTNESS_EN == LED_Driver_Gear_ENABLED)
  62:.\Generated_Source\PSoC5/LED_Driver_Gear.c ****     static uint8 LED_Driver_Gear_dmaBCChannel;
  63:.\Generated_Source\PSoC5/LED_Driver_Gear.c ****     static uint8 LED_Driver_Gear_dmaBCTd;
  64:.\Generated_Source\PSoC5/LED_Driver_Gear.c **** #endif /* (LED_Driver_Gear_BRIGHTNESS_EN == LED_Driver_Gear_ENABLED) */
  65:.\Generated_Source\PSoC5/LED_Driver_Gear.c **** 
  66:.\Generated_Source\PSoC5/LED_Driver_Gear.c **** uint8 LED_Driver_Gear_initVar = 0u;
  67:.\Generated_Source\PSoC5/LED_Driver_Gear.c **** uint8 LED_Driver_Gear_enableVar = 0u;
  68:.\Generated_Source\PSoC5/LED_Driver_Gear.c **** 
  69:.\Generated_Source\PSoC5/LED_Driver_Gear.c **** 
  70:.\Generated_Source\PSoC5/LED_Driver_Gear.c **** /*******************************************************************************
  71:.\Generated_Source\PSoC5/LED_Driver_Gear.c **** * Function Name: LED_Driver_Gear_DmaInit
  72:.\Generated_Source\PSoC5/LED_Driver_Gear.c **** ********************************************************************************
  73:.\Generated_Source\PSoC5/LED_Driver_Gear.c **** *
  74:.\Generated_Source\PSoC5/LED_Driver_Gear.c **** * Summary: 
  75:.\Generated_Source\PSoC5/LED_Driver_Gear.c **** *  Initializes the DMAs for transferring from the buffer register arrays to 
  76:.\Generated_Source\PSoC5/LED_Driver_Gear.c **** *  the control registers.
  77:.\Generated_Source\PSoC5/LED_Driver_Gear.c **** *
  78:.\Generated_Source\PSoC5/LED_Driver_Gear.c **** * Parameters:
  79:.\Generated_Source\PSoC5/LED_Driver_Gear.c **** *  None
  80:.\Generated_Source\PSoC5/LED_Driver_Gear.c **** *
  81:.\Generated_Source\PSoC5/LED_Driver_Gear.c **** * Return:
  82:.\Generated_Source\PSoC5/LED_Driver_Gear.c **** *  None
  83:.\Generated_Source\PSoC5/LED_Driver_Gear.c **** *
  84:.\Generated_Source\PSoC5/LED_Driver_Gear.c **** * Side Effects: 
  85:.\Generated_Source\PSoC5/LED_Driver_Gear.c **** *  None
  86:.\Generated_Source\PSoC5/LED_Driver_Gear.c **** *
  87:.\Generated_Source\PSoC5/LED_Driver_Gear.c **** *******************************************************************************/
  88:.\Generated_Source\PSoC5/LED_Driver_Gear.c **** static void LED_Driver_Gear_DmaInit(void) 
  89:.\Generated_Source\PSoC5/LED_Driver_Gear.c **** {
ARM GAS  C:\Users\charl\AppData\Local\Temp\ccrxE5Zl.s 			page 3


  26              		.loc 1 89 0
  27              		.cfi_startproc
  28              		@ args = 0, pretend = 0, frame = 0
  29              		@ frame_needed = 0, uses_anonymous_args = 0
  30 0000 10B5     		push	{r4, lr}
  31              		.cfi_def_cfa_offset 8
  32              		.cfi_offset 4, -8
  33              		.cfi_offset 14, -4
  90:.\Generated_Source\PSoC5/LED_Driver_Gear.c ****     uint8  i;
  91:.\Generated_Source\PSoC5/LED_Driver_Gear.c ****     
  92:.\Generated_Source\PSoC5/LED_Driver_Gear.c ****     /* Segment TDs for Seg_Driver_M and Seg_Driver_H control registers */
  93:.\Generated_Source\PSoC5/LED_Driver_Gear.c ****     #if (LED_Driver_Gear_NUM_SEG > 8u)
  94:.\Generated_Source\PSoC5/LED_Driver_Gear.c ****         static uint8 LED_Driver_Gear_dmaSegMTd[LED_Driver_Gear_NUM_COM];
  95:.\Generated_Source\PSoC5/LED_Driver_Gear.c ****     #endif /* (LED_Driver_Gear_NUM_SEG > 8u) */
  96:.\Generated_Source\PSoC5/LED_Driver_Gear.c ****     #if (LED_Driver_Gear_NUM_SEG > 16u)
  97:.\Generated_Source\PSoC5/LED_Driver_Gear.c ****         static uint8 LED_Driver_Gear_dmaSegHTd[LED_Driver_Gear_NUM_COM];
  98:.\Generated_Source\PSoC5/LED_Driver_Gear.c ****     #endif /* (LED_Driver_Gear_NUM_SEG > 16u) */
  99:.\Generated_Source\PSoC5/LED_Driver_Gear.c **** 
 100:.\Generated_Source\PSoC5/LED_Driver_Gear.c ****     /************************* DMA configuration for the Commons *************************/
 101:.\Generated_Source\PSoC5/LED_Driver_Gear.c ****     /* Common DMA channel */
 102:.\Generated_Source\PSoC5/LED_Driver_Gear.c ****     LED_Driver_Gear_dmaComChannel = LED_Driver_Gear_DMA_Com_DmaInitialize(1u, 1u, 
  34              		.loc 1 102 0
  35 0002 0120     		movs	r0, #1
  36 0004 0146     		mov	r1, r0
  37 0006 41F6FF72 		movw	r2, #8191
  38 000a 4FF48043 		mov	r3, #16384
  39 000e FFF7FEFF 		bl	LED_Driver_Gear_DMA_Com_DmaInitialize
  40              	.LVL0:
  41 0012 384B     		ldr	r3, .L19
  42 0014 1870     		strb	r0, [r3]
 103:.\Generated_Source\PSoC5/LED_Driver_Gear.c ****                                         HI16(LED_Driver_Gear_SRAM_BASE), HI16(LED_Driver_Gear_CONTR
 104:.\Generated_Source\PSoC5/LED_Driver_Gear.c **** 
 105:.\Generated_Source\PSoC5/LED_Driver_Gear.c ****     /* Check if the channel is valid */                                                            
 106:.\Generated_Source\PSoC5/LED_Driver_Gear.c ****     if(LED_Driver_Gear_dmaComChannel != DMA_INVALID_CHANNEL)
  43              		.loc 1 106 0
  44 0016 FF28     		cmp	r0, #255
  45 0018 08D1     		bne	.L16
  46 001a 3BE0     		b	.L3
  47              	.LVL1:
  48              	.L4:
 107:.\Generated_Source\PSoC5/LED_Driver_Gear.c ****     {
 108:.\Generated_Source\PSoC5/LED_Driver_Gear.c ****         /* Allocate the common TDs */
 109:.\Generated_Source\PSoC5/LED_Driver_Gear.c ****         for(i = 0u; i < LED_Driver_Gear_TWO_NUM_COM; i++)
 110:.\Generated_Source\PSoC5/LED_Driver_Gear.c ****         {
 111:.\Generated_Source\PSoC5/LED_Driver_Gear.c ****             LED_Driver_Gear_dmaComTd[i] = CyDmaTdAllocate();
  49              		.loc 1 111 0 discriminator 3
  50 001c FFF7FEFF 		bl	CyDmaTdAllocate
  51              	.LVL2:
  52 0020 344B     		ldr	r3, .L19
  53 0022 2344     		add	r3, r3, r4
  54 0024 1871     		strb	r0, [r3, #4]
 109:.\Generated_Source\PSoC5/LED_Driver_Gear.c ****         {
  55              		.loc 1 109 0 discriminator 3
  56 0026 0134     		adds	r4, r4, #1
  57              	.LVL3:
  58 0028 E4B2     		uxtb	r4, r4
  59              	.LVL4:
ARM GAS  C:\Users\charl\AppData\Local\Temp\ccrxE5Zl.s 			page 4


  60 002a 00E0     		b	.L2
  61              	.LVL5:
  62              	.L16:
  63 002c 0024     		movs	r4, #0
  64              	.L2:
  65              	.LVL6:
 109:.\Generated_Source\PSoC5/LED_Driver_Gear.c ****         {
  66              		.loc 1 109 0 is_stmt 0 discriminator 1
  67 002e 012C     		cmp	r4, #1
  68 0030 F4D9     		bls	.L4
  69 0032 0024     		movs	r4, #0
  70              	.LVL7:
  71 0034 15E0     		b	.L5
  72              	.LVL8:
  73              	.L8:
 112:.\Generated_Source\PSoC5/LED_Driver_Gear.c ****         }
 113:.\Generated_Source\PSoC5/LED_Driver_Gear.c ****         
 114:.\Generated_Source\PSoC5/LED_Driver_Gear.c ****         /* Set configuration for the Common TDs */
 115:.\Generated_Source\PSoC5/LED_Driver_Gear.c ****         for(i = 0u;  i < (LED_Driver_Gear_TWO_NUM_COM - 1u); i++)
 116:.\Generated_Source\PSoC5/LED_Driver_Gear.c ****         {
 117:.\Generated_Source\PSoC5/LED_Driver_Gear.c ****             /* Separate configurations for odd and even TDs */
 118:.\Generated_Source\PSoC5/LED_Driver_Gear.c ****             if((uint8)(i & 1u) == 0u)
  74              		.loc 1 118 0 is_stmt 1
  75 0036 14F0010F 		tst	r4, #1
  76 003a 08D1     		bne	.L6
 119:.\Generated_Source\PSoC5/LED_Driver_Gear.c ****             {
 120:.\Generated_Source\PSoC5/LED_Driver_Gear.c ****                 /* Set configuration for the Common TDs */
 121:.\Generated_Source\PSoC5/LED_Driver_Gear.c ****                 (void) CyDmaTdSetConfiguration(LED_Driver_Gear_dmaComTd[i], 1u, 
  77              		.loc 1 121 0
  78 003c 2D4B     		ldr	r3, .L19
  79 003e 1A19     		adds	r2, r3, r4
  80 0040 1079     		ldrb	r0, [r2, #4]	@ zero_extendqisi2
  81 0042 0121     		movs	r1, #1
  82 0044 5279     		ldrb	r2, [r2, #5]	@ zero_extendqisi2
  83 0046 0523     		movs	r3, #5
  84 0048 FFF7FEFF 		bl	CyDmaTdSetConfiguration
  85              	.LVL9:
  86 004c 07E0     		b	.L7
  87              	.L6:
 122:.\Generated_Source\PSoC5/LED_Driver_Gear.c ****                                                 LED_Driver_Gear_dmaComTd[i+1u],
 123:.\Generated_Source\PSoC5/LED_Driver_Gear.c ****                                                 TD_INC_SRC_ADR | LED_Driver_Gear_DMA_Com__TD_TERMOU
 124:.\Generated_Source\PSoC5/LED_Driver_Gear.c ****             }
 125:.\Generated_Source\PSoC5/LED_Driver_Gear.c ****             else
 126:.\Generated_Source\PSoC5/LED_Driver_Gear.c ****             {
 127:.\Generated_Source\PSoC5/LED_Driver_Gear.c ****                 /* Set configuration for the Common TDs */
 128:.\Generated_Source\PSoC5/LED_Driver_Gear.c ****                 (void) CyDmaTdSetConfiguration(LED_Driver_Gear_dmaComTd[i], 1u,
  88              		.loc 1 128 0
  89 004e 294B     		ldr	r3, .L19
  90 0050 1A19     		adds	r2, r3, r4
  91 0052 1079     		ldrb	r0, [r2, #4]	@ zero_extendqisi2
  92 0054 0121     		movs	r1, #1
  93 0056 5279     		ldrb	r2, [r2, #5]	@ zero_extendqisi2
  94 0058 0B46     		mov	r3, r1
  95 005a FFF7FEFF 		bl	CyDmaTdSetConfiguration
  96              	.LVL10:
  97              	.L7:
 115:.\Generated_Source\PSoC5/LED_Driver_Gear.c ****         {
ARM GAS  C:\Users\charl\AppData\Local\Temp\ccrxE5Zl.s 			page 5


  98              		.loc 1 115 0 discriminator 2
  99 005e 0134     		adds	r4, r4, #1
 100              	.LVL11:
 101 0060 E4B2     		uxtb	r4, r4
 102              	.LVL12:
 103              	.L5:
 115:.\Generated_Source\PSoC5/LED_Driver_Gear.c ****         {
 104              		.loc 1 115 0 is_stmt 0 discriminator 1
 105 0062 002C     		cmp	r4, #0
 106 0064 E7D0     		beq	.L8
 129:.\Generated_Source\PSoC5/LED_Driver_Gear.c ****                                                 LED_Driver_Gear_dmaComTd[i+1u], TD_INC_SRC_ADR);
 130:.\Generated_Source\PSoC5/LED_Driver_Gear.c ****             }
 131:.\Generated_Source\PSoC5/LED_Driver_Gear.c ****         }
 132:.\Generated_Source\PSoC5/LED_Driver_Gear.c ****         /* Set the wraparound Common TD configuration */
 133:.\Generated_Source\PSoC5/LED_Driver_Gear.c ****         (void) CyDmaTdSetConfiguration(LED_Driver_Gear_dmaComTd[LED_Driver_Gear_TWO_NUM_COM - 1u], 
 107              		.loc 1 133 0 is_stmt 1
 108 0066 234B     		ldr	r3, .L19
 109 0068 5879     		ldrb	r0, [r3, #5]	@ zero_extendqisi2
 110 006a 0121     		movs	r1, #1
 111 006c 1A79     		ldrb	r2, [r3, #4]	@ zero_extendqisi2
 112 006e 0B46     		mov	r3, r1
 113 0070 FFF7FEFF 		bl	CyDmaTdSetConfiguration
 114              	.LVL13:
 134:.\Generated_Source\PSoC5/LED_Driver_Gear.c ****                                         1u, LED_Driver_Gear_dmaComTd[0u], TD_INC_SRC_ADR);
 135:.\Generated_Source\PSoC5/LED_Driver_Gear.c ****         
 136:.\Generated_Source\PSoC5/LED_Driver_Gear.c ****         /* Set the lower addresses of the common TDs */
 137:.\Generated_Source\PSoC5/LED_Driver_Gear.c ****         for(i = 0u; i < LED_Driver_Gear_TWO_NUM_COM; i++)
 115              		.loc 1 137 0
 116 0074 0024     		movs	r4, #0
 117 0076 0BE0     		b	.L9
 118              	.LVL14:
 119              	.L10:
 138:.\Generated_Source\PSoC5/LED_Driver_Gear.c ****         {
 139:.\Generated_Source\PSoC5/LED_Driver_Gear.c ****             (void) CyDmaTdSetAddress(LED_Driver_Gear_dmaComTd[i],
 120              		.loc 1 139 0 discriminator 3
 121 0078 1E4B     		ldr	r3, .L19
 122 007a 2344     		add	r3, r3, r4
 140:.\Generated_Source\PSoC5/LED_Driver_Gear.c ****                                         LO16((uint32) &LED_Driver_Gear_comBuffer[i]),
 123              		.loc 1 140 0 discriminator 3
 124 007c 1E49     		ldr	r1, .L19+4
 125 007e 2144     		add	r1, r1, r4
 139:.\Generated_Source\PSoC5/LED_Driver_Gear.c ****                                         LO16((uint32) &LED_Driver_Gear_comBuffer[i]),
 126              		.loc 1 139 0 discriminator 3
 127 0080 1879     		ldrb	r0, [r3, #4]	@ zero_extendqisi2
 128 0082 89B2     		uxth	r1, r1
 129 0084 46F27652 		movw	r2, #25974
 130 0088 FFF7FEFF 		bl	CyDmaTdSetAddress
 131              	.LVL15:
 137:.\Generated_Source\PSoC5/LED_Driver_Gear.c ****         {
 132              		.loc 1 137 0 discriminator 3
 133 008c 0134     		adds	r4, r4, #1
 134              	.LVL16:
 135 008e E4B2     		uxtb	r4, r4
 136              	.LVL17:
 137              	.L9:
 137:.\Generated_Source\PSoC5/LED_Driver_Gear.c ****         {
 138              		.loc 1 137 0 is_stmt 0 discriminator 1
ARM GAS  C:\Users\charl\AppData\Local\Temp\ccrxE5Zl.s 			page 6


 139 0090 012C     		cmp	r4, #1
 140 0092 F1D9     		bls	.L10
 141              	.LVL18:
 142              	.L3:
 141:.\Generated_Source\PSoC5/LED_Driver_Gear.c ****                                         LO16((uint32) LED_Driver_Gear_COM_CONTROL_PTR));
 142:.\Generated_Source\PSoC5/LED_Driver_Gear.c ****         }    
 143:.\Generated_Source\PSoC5/LED_Driver_Gear.c ****     }
 144:.\Generated_Source\PSoC5/LED_Driver_Gear.c ****     
 145:.\Generated_Source\PSoC5/LED_Driver_Gear.c ****     
 146:.\Generated_Source\PSoC5/LED_Driver_Gear.c ****     /*********************** DMA configuration for the Segments ***********************/
 147:.\Generated_Source\PSoC5/LED_Driver_Gear.c ****     /* Get the DMA channels for the segments */
 148:.\Generated_Source\PSoC5/LED_Driver_Gear.c ****     LED_Driver_Gear_dmaSegChannel = LED_Driver_Gear_DMA_Seg_DmaInitialize(1u, 1u, 
 143              		.loc 1 148 0 is_stmt 1
 144 0094 0120     		movs	r0, #1
 145 0096 0146     		mov	r1, r0
 146 0098 41F6FF72 		movw	r2, #8191
 147 009c 4FF48043 		mov	r3, #16384
 148 00a0 FFF7FEFF 		bl	LED_Driver_Gear_DMA_Seg_DmaInitialize
 149              	.LVL19:
 150 00a4 134B     		ldr	r3, .L19
 151 00a6 9871     		strb	r0, [r3, #6]
 149:.\Generated_Source\PSoC5/LED_Driver_Gear.c ****                                         HI16(LED_Driver_Gear_SRAM_BASE), HI16(LED_Driver_Gear_CONTR
 150:.\Generated_Source\PSoC5/LED_Driver_Gear.c ****     
 151:.\Generated_Source\PSoC5/LED_Driver_Gear.c ****     /* Check if the segment channel is valid */
 152:.\Generated_Source\PSoC5/LED_Driver_Gear.c ****     if(LED_Driver_Gear_dmaSegChannel != DMA_INVALID_CHANNEL)
 152              		.loc 1 152 0
 153 00a8 FF28     		cmp	r0, #255
 154 00aa 08D1     		bne	.L17
 155 00ac 10BD     		pop	{r4, pc}
 156              	.LVL20:
 157              	.L13:
 153:.\Generated_Source\PSoC5/LED_Driver_Gear.c ****     {
 154:.\Generated_Source\PSoC5/LED_Driver_Gear.c ****         /* Allocate separate Tds for segments to implement the chain */
 155:.\Generated_Source\PSoC5/LED_Driver_Gear.c ****         for(i = 0u; i < LED_Driver_Gear_NUM_COM; i++)
 156:.\Generated_Source\PSoC5/LED_Driver_Gear.c ****         {
 157:.\Generated_Source\PSoC5/LED_Driver_Gear.c ****             LED_Driver_Gear_dmaSegLTd[i] = CyDmaTdAllocate();
 158              		.loc 1 157 0 discriminator 3
 159 00ae FFF7FEFF 		bl	CyDmaTdAllocate
 160              	.LVL21:
 161 00b2 104B     		ldr	r3, .L19
 162 00b4 2344     		add	r3, r3, r4
 163 00b6 1872     		strb	r0, [r3, #8]
 155:.\Generated_Source\PSoC5/LED_Driver_Gear.c ****         {
 164              		.loc 1 155 0 discriminator 3
 165 00b8 0134     		adds	r4, r4, #1
 166              	.LVL22:
 167 00ba E4B2     		uxtb	r4, r4
 168              	.LVL23:
 169 00bc 00E0     		b	.L11
 170              	.LVL24:
 171              	.L17:
 172 00be 0024     		movs	r4, #0
 173              	.L11:
 174              	.LVL25:
 155:.\Generated_Source\PSoC5/LED_Driver_Gear.c ****         {
 175              		.loc 1 155 0 is_stmt 0 discriminator 1
 176 00c0 002C     		cmp	r4, #0
ARM GAS  C:\Users\charl\AppData\Local\Temp\ccrxE5Zl.s 			page 7


 177 00c2 F4D0     		beq	.L13
 178              	.LVL26:
 158:.\Generated_Source\PSoC5/LED_Driver_Gear.c ****             #if (LED_Driver_Gear_NUM_SEG > 8u)
 159:.\Generated_Source\PSoC5/LED_Driver_Gear.c ****                 LED_Driver_Gear_dmaSegMTd[i] = CyDmaTdAllocate();
 160:.\Generated_Source\PSoC5/LED_Driver_Gear.c ****             #endif /* (LED_Driver_Gear_NUM_SEG > 8u) */
 161:.\Generated_Source\PSoC5/LED_Driver_Gear.c ****             #if (LED_Driver_Gear_NUM_SEG > 16u)
 162:.\Generated_Source\PSoC5/LED_Driver_Gear.c ****                 LED_Driver_Gear_dmaSegHTd[i] = CyDmaTdAllocate();
 163:.\Generated_Source\PSoC5/LED_Driver_Gear.c ****             #endif /* (LED_Driver_Gear_NUM_SEG > 16u) */
 164:.\Generated_Source\PSoC5/LED_Driver_Gear.c ****         }
 165:.\Generated_Source\PSoC5/LED_Driver_Gear.c ****         
 166:.\Generated_Source\PSoC5/LED_Driver_Gear.c ****         /* Set the configuration for the Segment TDs */
 167:.\Generated_Source\PSoC5/LED_Driver_Gear.c ****         for(i = 0u; i < (LED_Driver_Gear_NUM_COM - 1u); i++)
 168:.\Generated_Source\PSoC5/LED_Driver_Gear.c ****         {
 169:.\Generated_Source\PSoC5/LED_Driver_Gear.c ****             #if (LED_Driver_Gear_NUM_SEG <= 8u)
 170:.\Generated_Source\PSoC5/LED_Driver_Gear.c ****                 (void) CyDmaTdSetConfiguration(LED_Driver_Gear_dmaSegLTd[i], 1u, LED_Driver_Gear_dm
 171:.\Generated_Source\PSoC5/LED_Driver_Gear.c ****                                                 TD_INC_SRC_ADR | LED_Driver_Gear_DMA_Seg__TD_TERMOU
 172:.\Generated_Source\PSoC5/LED_Driver_Gear.c ****             #else    
 173:.\Generated_Source\PSoC5/LED_Driver_Gear.c ****                 (void) CyDmaTdSetConfiguration(LED_Driver_Gear_dmaSegLTd[i], 1u, LED_Driver_Gear_dm
 174:.\Generated_Source\PSoC5/LED_Driver_Gear.c ****                                                 TD_INC_SRC_ADR | TD_AUTO_EXEC_NEXT);
 175:.\Generated_Source\PSoC5/LED_Driver_Gear.c **** 
 176:.\Generated_Source\PSoC5/LED_Driver_Gear.c ****                 #if (LED_Driver_Gear_NUM_SEG <= 16u)
 177:.\Generated_Source\PSoC5/LED_Driver_Gear.c ****                     (void) CyDmaTdSetConfiguration(LED_Driver_Gear_dmaSegMTd[i], 1u, LED_Driver_Gea
 178:.\Generated_Source\PSoC5/LED_Driver_Gear.c ****                                                     TD_INC_SRC_ADR | LED_Driver_Gear_DMA_Seg__TD_TE
 179:.\Generated_Source\PSoC5/LED_Driver_Gear.c ****                 #else    
 180:.\Generated_Source\PSoC5/LED_Driver_Gear.c ****                     (void) CyDmaTdSetConfiguration(LED_Driver_Gear_dmaSegMTd[i], 1u, LED_Driver_Gea
 181:.\Generated_Source\PSoC5/LED_Driver_Gear.c ****                                                     TD_INC_SRC_ADR | TD_AUTO_EXEC_NEXT);
 182:.\Generated_Source\PSoC5/LED_Driver_Gear.c ****                     (void) CyDmaTdSetConfiguration(LED_Driver_Gear_dmaSegHTd[i], 1u, LED_Driver_Gea
 183:.\Generated_Source\PSoC5/LED_Driver_Gear.c ****                                                     TD_INC_SRC_ADR | LED_Driver_Gear_DMA_Seg__TD_TE
 184:.\Generated_Source\PSoC5/LED_Driver_Gear.c ****                 #endif /* LED_Driver_Gear_NUM_SEG <= 16u */
 185:.\Generated_Source\PSoC5/LED_Driver_Gear.c ****             #endif /* LED_Driver_Gear_NUM_SEG <= 8u */
 186:.\Generated_Source\PSoC5/LED_Driver_Gear.c ****         }
 187:.\Generated_Source\PSoC5/LED_Driver_Gear.c ****         
 188:.\Generated_Source\PSoC5/LED_Driver_Gear.c ****         /* Set the wraparound Segment TD configurations */
 189:.\Generated_Source\PSoC5/LED_Driver_Gear.c ****         #if (LED_Driver_Gear_NUM_SEG <= 8u)
 190:.\Generated_Source\PSoC5/LED_Driver_Gear.c ****             (void) CyDmaTdSetConfiguration(LED_Driver_Gear_dmaSegLTd[LED_Driver_Gear_NUM_COM - 1u],
 179              		.loc 1 190 0 is_stmt 1
 180 00c4 0B4B     		ldr	r3, .L19
 181 00c6 1A7A     		ldrb	r2, [r3, #8]	@ zero_extendqisi2
 182 00c8 1046     		mov	r0, r2
 183 00ca 0121     		movs	r1, #1
 184 00cc 0523     		movs	r3, #5
 185 00ce FFF7FEFF 		bl	CyDmaTdSetConfiguration
 186              	.LVL27:
 191:.\Generated_Source\PSoC5/LED_Driver_Gear.c ****                                             1u, LED_Driver_Gear_dmaSegLTd[0u], 
 192:.\Generated_Source\PSoC5/LED_Driver_Gear.c ****                                             TD_INC_SRC_ADR | LED_Driver_Gear_DMA_Seg__TD_TERMOUT_EN
 193:.\Generated_Source\PSoC5/LED_Driver_Gear.c ****         #else    
 194:.\Generated_Source\PSoC5/LED_Driver_Gear.c ****             (void) CyDmaTdSetConfiguration(LED_Driver_Gear_dmaSegLTd[LED_Driver_Gear_NUM_COM - 1u],
 195:.\Generated_Source\PSoC5/LED_Driver_Gear.c ****                                             1u, LED_Driver_Gear_dmaSegMTd[LED_Driver_Gear_NUM_COM -
 196:.\Generated_Source\PSoC5/LED_Driver_Gear.c ****                                             TD_INC_SRC_ADR | TD_AUTO_EXEC_NEXT);
 197:.\Generated_Source\PSoC5/LED_Driver_Gear.c ****             #if (LED_Driver_Gear_NUM_SEG <= 16u)
 198:.\Generated_Source\PSoC5/LED_Driver_Gear.c ****                 (void) CyDmaTdSetConfiguration(LED_Driver_Gear_dmaSegMTd[LED_Driver_Gear_NUM_COM - 
 199:.\Generated_Source\PSoC5/LED_Driver_Gear.c ****                                                 1u, LED_Driver_Gear_dmaSegLTd[0u], 
 200:.\Generated_Source\PSoC5/LED_Driver_Gear.c ****                                                 TD_INC_SRC_ADR | LED_Driver_Gear_DMA_Seg__TD_TERMOU
 201:.\Generated_Source\PSoC5/LED_Driver_Gear.c ****             #else    
 202:.\Generated_Source\PSoC5/LED_Driver_Gear.c ****                 (void) CyDmaTdSetConfiguration(LED_Driver_Gear_dmaSegMTd[LED_Driver_Gear_NUM_COM - 
 203:.\Generated_Source\PSoC5/LED_Driver_Gear.c ****                                                 1u, LED_Driver_Gear_dmaSegHTd[LED_Driver_Gear_NUM_C
 204:.\Generated_Source\PSoC5/LED_Driver_Gear.c ****                                                 TD_INC_SRC_ADR | TD_AUTO_EXEC_NEXT);
ARM GAS  C:\Users\charl\AppData\Local\Temp\ccrxE5Zl.s 			page 8


 205:.\Generated_Source\PSoC5/LED_Driver_Gear.c ****                 (void) CyDmaTdSetConfiguration(LED_Driver_Gear_dmaSegHTd[LED_Driver_Gear_NUM_COM - 
 206:.\Generated_Source\PSoC5/LED_Driver_Gear.c ****                                                 1u, LED_Driver_Gear_dmaSegLTd[0u], 
 207:.\Generated_Source\PSoC5/LED_Driver_Gear.c ****                                                 TD_INC_SRC_ADR | LED_Driver_Gear_DMA_Seg__TD_TERMOU
 208:.\Generated_Source\PSoC5/LED_Driver_Gear.c ****             #endif /* (LED_Driver_Gear_NUM_SEG <= 16u) */
 209:.\Generated_Source\PSoC5/LED_Driver_Gear.c ****         #endif /* (LED_Driver_Gear_NUM_SEG <= 8u) */
 210:.\Generated_Source\PSoC5/LED_Driver_Gear.c ****         
 211:.\Generated_Source\PSoC5/LED_Driver_Gear.c ****         /* The lower addresses for the segment TDs */
 212:.\Generated_Source\PSoC5/LED_Driver_Gear.c ****         for(i = 0u; i < LED_Driver_Gear_NUM_COM; i++)
 187              		.loc 1 212 0
 188 00d2 0024     		movs	r4, #0
 189 00d4 0BE0     		b	.L14
 190              	.LVL28:
 191              	.L15:
 213:.\Generated_Source\PSoC5/LED_Driver_Gear.c ****         {
 214:.\Generated_Source\PSoC5/LED_Driver_Gear.c ****             (void) CyDmaTdSetAddress(LED_Driver_Gear_dmaSegLTd[i],
 192              		.loc 1 214 0 discriminator 3
 193 00d6 074B     		ldr	r3, .L19
 194 00d8 2344     		add	r3, r3, r4
 215:.\Generated_Source\PSoC5/LED_Driver_Gear.c ****                                             LO16((uint32) &LED_Driver_Gear_segLBuffer[i]),
 195              		.loc 1 215 0 discriminator 3
 196 00da 0849     		ldr	r1, .L19+8
 197 00dc 2144     		add	r1, r1, r4
 214:.\Generated_Source\PSoC5/LED_Driver_Gear.c ****                                             LO16((uint32) &LED_Driver_Gear_segLBuffer[i]),
 198              		.loc 1 214 0 discriminator 3
 199 00de 187A     		ldrb	r0, [r3, #8]	@ zero_extendqisi2
 200 00e0 89B2     		uxth	r1, r1
 201 00e2 46F27852 		movw	r2, #25976
 202 00e6 FFF7FEFF 		bl	CyDmaTdSetAddress
 203              	.LVL29:
 212:.\Generated_Source\PSoC5/LED_Driver_Gear.c ****         {
 204              		.loc 1 212 0 discriminator 3
 205 00ea 0134     		adds	r4, r4, #1
 206              	.LVL30:
 207 00ec E4B2     		uxtb	r4, r4
 208              	.LVL31:
 209              	.L14:
 212:.\Generated_Source\PSoC5/LED_Driver_Gear.c ****         {
 210              		.loc 1 212 0 is_stmt 0 discriminator 1
 211 00ee 002C     		cmp	r4, #0
 212 00f0 F1D0     		beq	.L15
 213 00f2 10BD     		pop	{r4, pc}
 214              	.LVL32:
 215              	.L20:
 216              		.align	2
 217              	.L19:
 218 00f4 00000000 		.word	.LANCHOR0
 219 00f8 00000000 		.word	.LANCHOR1
 220 00fc 00000000 		.word	LED_Driver_Gear_segLBuffer
 221              		.cfi_endproc
 222              	.LFE0:
 223              		.size	LED_Driver_Gear_DmaInit, .-LED_Driver_Gear_DmaInit
 224              		.section	.text.LED_Driver_Gear_DmaEnable,"ax",%progbits
 225              		.align	2
 226              		.thumb
 227              		.thumb_func
 228              		.type	LED_Driver_Gear_DmaEnable, %function
 229              	LED_Driver_Gear_DmaEnable:
ARM GAS  C:\Users\charl\AppData\Local\Temp\ccrxE5Zl.s 			page 9


 230              	.LFB1:
 216:.\Generated_Source\PSoC5/LED_Driver_Gear.c ****                                             LO16((uint32) LED_Driver_Gear_SEG_L_CONTROL_PTR));
 217:.\Generated_Source\PSoC5/LED_Driver_Gear.c ****             #if (LED_Driver_Gear_NUM_SEG > 8u)
 218:.\Generated_Source\PSoC5/LED_Driver_Gear.c ****                 (void) CyDmaTdSetAddress(LED_Driver_Gear_dmaSegMTd[i],
 219:.\Generated_Source\PSoC5/LED_Driver_Gear.c ****                                             LO16((uint32) &LED_Driver_Gear_segMBuffer[i]),
 220:.\Generated_Source\PSoC5/LED_Driver_Gear.c ****                                             LO16((uint32) LED_Driver_Gear_SEG_M_CONTROL_PTR));
 221:.\Generated_Source\PSoC5/LED_Driver_Gear.c ****             #endif /* (LED_Driver_Gear_NUM_SEG > 8u) */
 222:.\Generated_Source\PSoC5/LED_Driver_Gear.c ****             #if (LED_Driver_Gear_NUM_SEG > 16u)
 223:.\Generated_Source\PSoC5/LED_Driver_Gear.c ****                 (void) CyDmaTdSetAddress(LED_Driver_Gear_dmaSegHTd[i], 
 224:.\Generated_Source\PSoC5/LED_Driver_Gear.c ****                                             LO16((uint32) &LED_Driver_Gear_segHBuffer[i]),
 225:.\Generated_Source\PSoC5/LED_Driver_Gear.c ****                                             LO16((uint32) LED_Driver_Gear_SEG_H_CONTROL_PTR));
 226:.\Generated_Source\PSoC5/LED_Driver_Gear.c ****             #endif /* (LED_Driver_Gear_NUM_SEG > 16u) */
 227:.\Generated_Source\PSoC5/LED_Driver_Gear.c ****         }
 228:.\Generated_Source\PSoC5/LED_Driver_Gear.c ****     }
 229:.\Generated_Source\PSoC5/LED_Driver_Gear.c ****     
 230:.\Generated_Source\PSoC5/LED_Driver_Gear.c ****     
 231:.\Generated_Source\PSoC5/LED_Driver_Gear.c ****     /******************** DMA configuration for Brightness control *********************/
 232:.\Generated_Source\PSoC5/LED_Driver_Gear.c ****     
 233:.\Generated_Source\PSoC5/LED_Driver_Gear.c ****     #if (LED_Driver_Gear_BRIGHTNESS_EN == LED_Driver_Gear_ENABLED)
 234:.\Generated_Source\PSoC5/LED_Driver_Gear.c ****         /* Get the DMA channels */
 235:.\Generated_Source\PSoC5/LED_Driver_Gear.c ****         LED_Driver_Gear_dmaBCChannel = LED_Driver_Gear_DMA_BC_DmaInitialize(1u, 1u, 
 236:.\Generated_Source\PSoC5/LED_Driver_Gear.c ****                                         HI16(LED_Driver_Gear_SRAM_BASE), HI16(LED_Driver_Gear_CONTR
 237:.\Generated_Source\PSoC5/LED_Driver_Gear.c ****             
 238:.\Generated_Source\PSoC5/LED_Driver_Gear.c ****         /* Check if the channels are valid */
 239:.\Generated_Source\PSoC5/LED_Driver_Gear.c ****         if(LED_Driver_Gear_dmaBCChannel != DMA_INVALID_CHANNEL)
 240:.\Generated_Source\PSoC5/LED_Driver_Gear.c ****         {
 241:.\Generated_Source\PSoC5/LED_Driver_Gear.c ****             LED_Driver_Gear_dmaBCTd = CyDmaTdAllocate();
 242:.\Generated_Source\PSoC5/LED_Driver_Gear.c ****             
 243:.\Generated_Source\PSoC5/LED_Driver_Gear.c ****             /* Set the TD configuration for the brightness DMA */
 244:.\Generated_Source\PSoC5/LED_Driver_Gear.c ****             (void) CyDmaTdSetConfiguration(LED_Driver_Gear_dmaBCTd, LED_Driver_Gear_NUM_COM,
 245:.\Generated_Source\PSoC5/LED_Driver_Gear.c ****                                         LED_Driver_Gear_dmaBCTd, TD_INC_SRC_ADR);
 246:.\Generated_Source\PSoC5/LED_Driver_Gear.c ****             
 247:.\Generated_Source\PSoC5/LED_Driver_Gear.c ****             /* Lower address for the brightness Td */
 248:.\Generated_Source\PSoC5/LED_Driver_Gear.c ****             (void) CyDmaTdSetAddress(LED_Driver_Gear_dmaBCTd, LO16((uint32) &LED_Driver_Gear_bright
 249:.\Generated_Source\PSoC5/LED_Driver_Gear.c ****                                                                LO16((uint32)LED_Driver_Gear_COMPARE
 250:.\Generated_Source\PSoC5/LED_Driver_Gear.c ****         }
 251:.\Generated_Source\PSoC5/LED_Driver_Gear.c ****     #endif /* (LED_Driver_Gear_BRIGHTNESS_EN == LED_Driver_Gear_ENABLED) */
 252:.\Generated_Source\PSoC5/LED_Driver_Gear.c **** }
 253:.\Generated_Source\PSoC5/LED_Driver_Gear.c **** 
 254:.\Generated_Source\PSoC5/LED_Driver_Gear.c **** 
 255:.\Generated_Source\PSoC5/LED_Driver_Gear.c **** /*******************************************************************************
 256:.\Generated_Source\PSoC5/LED_Driver_Gear.c **** * Function Name: LED_Driver_Gear_DmaEnable
 257:.\Generated_Source\PSoC5/LED_Driver_Gear.c **** ********************************************************************************
 258:.\Generated_Source\PSoC5/LED_Driver_Gear.c **** *
 259:.\Generated_Source\PSoC5/LED_Driver_Gear.c **** * Summary: 
 260:.\Generated_Source\PSoC5/LED_Driver_Gear.c **** *  Enables the DMAs for transferring from the buffer register arrays to the
 261:.\Generated_Source\PSoC5/LED_Driver_Gear.c **** *  control registers.
 262:.\Generated_Source\PSoC5/LED_Driver_Gear.c **** *
 263:.\Generated_Source\PSoC5/LED_Driver_Gear.c **** * Parameters:
 264:.\Generated_Source\PSoC5/LED_Driver_Gear.c **** *  None
 265:.\Generated_Source\PSoC5/LED_Driver_Gear.c **** *
 266:.\Generated_Source\PSoC5/LED_Driver_Gear.c **** * Return: 
 267:.\Generated_Source\PSoC5/LED_Driver_Gear.c **** *  None
 268:.\Generated_Source\PSoC5/LED_Driver_Gear.c **** *
 269:.\Generated_Source\PSoC5/LED_Driver_Gear.c **** * Side Effects: 
 270:.\Generated_Source\PSoC5/LED_Driver_Gear.c **** *  None
 271:.\Generated_Source\PSoC5/LED_Driver_Gear.c **** *
ARM GAS  C:\Users\charl\AppData\Local\Temp\ccrxE5Zl.s 			page 10


 272:.\Generated_Source\PSoC5/LED_Driver_Gear.c **** *******************************************************************************/
 273:.\Generated_Source\PSoC5/LED_Driver_Gear.c **** static void LED_Driver_Gear_DmaEnable(void) 
 274:.\Generated_Source\PSoC5/LED_Driver_Gear.c **** {
 231              		.loc 1 274 0 is_stmt 1
 232              		.cfi_startproc
 233              		@ args = 0, pretend = 0, frame = 0
 234              		@ frame_needed = 0, uses_anonymous_args = 0
 235 0000 10B5     		push	{r4, lr}
 236              		.cfi_def_cfa_offset 8
 237              		.cfi_offset 4, -8
 238              		.cfi_offset 14, -4
 275:.\Generated_Source\PSoC5/LED_Driver_Gear.c ****     /* Initialize the TDs to the respective channels */
 276:.\Generated_Source\PSoC5/LED_Driver_Gear.c ****     (void) CyDmaChSetInitialTd(LED_Driver_Gear_dmaComChannel, LED_Driver_Gear_dmaComTd[0u]);
 239              		.loc 1 276 0
 240 0002 094C     		ldr	r4, .L23
 241 0004 2078     		ldrb	r0, [r4]	@ zero_extendqisi2
 242 0006 2179     		ldrb	r1, [r4, #4]	@ zero_extendqisi2
 243 0008 FFF7FEFF 		bl	CyDmaChSetInitialTd
 244              	.LVL33:
 277:.\Generated_Source\PSoC5/LED_Driver_Gear.c ****     (void) CyDmaChSetInitialTd(LED_Driver_Gear_dmaSegChannel, LED_Driver_Gear_dmaSegLTd[0u]);
 245              		.loc 1 277 0
 246 000c A079     		ldrb	r0, [r4, #6]	@ zero_extendqisi2
 247 000e 217A     		ldrb	r1, [r4, #8]	@ zero_extendqisi2
 248 0010 FFF7FEFF 		bl	CyDmaChSetInitialTd
 249              	.LVL34:
 278:.\Generated_Source\PSoC5/LED_Driver_Gear.c ****     #if (LED_Driver_Gear_BRIGHTNESS_EN == LED_Driver_Gear_ENABLED)
 279:.\Generated_Source\PSoC5/LED_Driver_Gear.c ****         (void) CyDmaChSetInitialTd(LED_Driver_Gear_dmaBCChannel, LED_Driver_Gear_dmaBCTd);
 280:.\Generated_Source\PSoC5/LED_Driver_Gear.c ****     #endif /* (LED_Driver_Gear_BRIGHTNESS_EN == LED_Driver_Gear_ENABLED) */
 281:.\Generated_Source\PSoC5/LED_Driver_Gear.c ****     
 282:.\Generated_Source\PSoC5/LED_Driver_Gear.c ****     /* Enable all channels */
 283:.\Generated_Source\PSoC5/LED_Driver_Gear.c ****     (void) CyDmaChEnable(LED_Driver_Gear_dmaComChannel, 1u);
 250              		.loc 1 283 0
 251 0014 2078     		ldrb	r0, [r4]	@ zero_extendqisi2
 252 0016 0121     		movs	r1, #1
 253 0018 FFF7FEFF 		bl	CyDmaChEnable
 254              	.LVL35:
 284:.\Generated_Source\PSoC5/LED_Driver_Gear.c ****     (void) CyDmaChEnable(LED_Driver_Gear_dmaSegChannel, 1u);
 255              		.loc 1 284 0
 256 001c A079     		ldrb	r0, [r4, #6]	@ zero_extendqisi2
 257 001e 0121     		movs	r1, #1
 258 0020 FFF7FEFF 		bl	CyDmaChEnable
 259              	.LVL36:
 260 0024 10BD     		pop	{r4, pc}
 261              	.L24:
 262 0026 00BF     		.align	2
 263              	.L23:
 264 0028 00000000 		.word	.LANCHOR0
 265              		.cfi_endproc
 266              	.LFE1:
 267              		.size	LED_Driver_Gear_DmaEnable, .-LED_Driver_Gear_DmaEnable
 268              		.section	.text.LED_Driver_Gear_DmaDisable,"ax",%progbits
 269              		.align	2
 270              		.thumb
 271              		.thumb_func
 272              		.type	LED_Driver_Gear_DmaDisable, %function
 273              	LED_Driver_Gear_DmaDisable:
 274              	.LFB2:
ARM GAS  C:\Users\charl\AppData\Local\Temp\ccrxE5Zl.s 			page 11


 285:.\Generated_Source\PSoC5/LED_Driver_Gear.c ****     #if (LED_Driver_Gear_BRIGHTNESS_EN == LED_Driver_Gear_ENABLED)
 286:.\Generated_Source\PSoC5/LED_Driver_Gear.c ****         (void) CyDmaChEnable(LED_Driver_Gear_dmaBCChannel, 1u);
 287:.\Generated_Source\PSoC5/LED_Driver_Gear.c ****     #endif /* (LED_Driver_Gear_BRIGHTNESS_EN == LED_Driver_Gear_ENABLED) */
 288:.\Generated_Source\PSoC5/LED_Driver_Gear.c **** }
 289:.\Generated_Source\PSoC5/LED_Driver_Gear.c **** 
 290:.\Generated_Source\PSoC5/LED_Driver_Gear.c **** 
 291:.\Generated_Source\PSoC5/LED_Driver_Gear.c **** /*******************************************************************************
 292:.\Generated_Source\PSoC5/LED_Driver_Gear.c **** * Function Name: LED_Driver_Gear_DmaDisable
 293:.\Generated_Source\PSoC5/LED_Driver_Gear.c **** ********************************************************************************
 294:.\Generated_Source\PSoC5/LED_Driver_Gear.c **** *
 295:.\Generated_Source\PSoC5/LED_Driver_Gear.c **** * Summary: 
 296:.\Generated_Source\PSoC5/LED_Driver_Gear.c **** *  Disables the DMAs for transferring from register array to the control 
 297:.\Generated_Source\PSoC5/LED_Driver_Gear.c **** *  register.
 298:.\Generated_Source\PSoC5/LED_Driver_Gear.c **** *
 299:.\Generated_Source\PSoC5/LED_Driver_Gear.c **** * Parameters:
 300:.\Generated_Source\PSoC5/LED_Driver_Gear.c **** *  None
 301:.\Generated_Source\PSoC5/LED_Driver_Gear.c **** *
 302:.\Generated_Source\PSoC5/LED_Driver_Gear.c **** * Return: 
 303:.\Generated_Source\PSoC5/LED_Driver_Gear.c **** *  None
 304:.\Generated_Source\PSoC5/LED_Driver_Gear.c **** *
 305:.\Generated_Source\PSoC5/LED_Driver_Gear.c **** * Side Effects: 
 306:.\Generated_Source\PSoC5/LED_Driver_Gear.c **** *  None
 307:.\Generated_Source\PSoC5/LED_Driver_Gear.c **** *
 308:.\Generated_Source\PSoC5/LED_Driver_Gear.c **** *******************************************************************************/
 309:.\Generated_Source\PSoC5/LED_Driver_Gear.c **** static void LED_Driver_Gear_DmaDisable(void) 
 310:.\Generated_Source\PSoC5/LED_Driver_Gear.c **** {
 275              		.loc 1 310 0
 276              		.cfi_startproc
 277              		@ args = 0, pretend = 0, frame = 8
 278              		@ frame_needed = 0, uses_anonymous_args = 0
 279 0000 70B5     		push	{r4, r5, r6, lr}
 280              		.cfi_def_cfa_offset 16
 281              		.cfi_offset 4, -16
 282              		.cfi_offset 5, -12
 283              		.cfi_offset 6, -8
 284              		.cfi_offset 14, -4
 285 0002 82B0     		sub	sp, sp, #8
 286              		.cfi_def_cfa_offset 24
 311:.\Generated_Source\PSoC5/LED_Driver_Gear.c ****     uint8 i;
 312:.\Generated_Source\PSoC5/LED_Driver_Gear.c ****     uint8 channel;
 313:.\Generated_Source\PSoC5/LED_Driver_Gear.c ****     uint8 dmaChannelList[LED_Driver_Gear_CHANNEL_LIMIT];
 314:.\Generated_Source\PSoC5/LED_Driver_Gear.c ****     
 315:.\Generated_Source\PSoC5/LED_Driver_Gear.c ****     dmaChannelList[0u] = LED_Driver_Gear_dmaComChannel;
 287              		.loc 1 315 0
 288 0004 154B     		ldr	r3, .L31
 289 0006 1A78     		ldrb	r2, [r3]	@ zero_extendqisi2
 290 0008 8DF80420 		strb	r2, [sp, #4]
 316:.\Generated_Source\PSoC5/LED_Driver_Gear.c ****     dmaChannelList[1u] = LED_Driver_Gear_dmaSegChannel;
 291              		.loc 1 316 0
 292 000c 9B79     		ldrb	r3, [r3, #6]	@ zero_extendqisi2
 293 000e 8DF80530 		strb	r3, [sp, #5]
 294              	.LVL37:
 317:.\Generated_Source\PSoC5/LED_Driver_Gear.c ****     #if (LED_Driver_Gear_BRIGHTNESS_EN == LED_Driver_Gear_ENABLED)
 318:.\Generated_Source\PSoC5/LED_Driver_Gear.c ****         dmaChannelList[2u] = LED_Driver_Gear_dmaBCChannel;
 319:.\Generated_Source\PSoC5/LED_Driver_Gear.c ****     #endif /* (LED_Driver_Gear_BRIGHTNESS_EN == LED_Driver_Gear_ENABLED) */
 320:.\Generated_Source\PSoC5/LED_Driver_Gear.c **** 
 321:.\Generated_Source\PSoC5/LED_Driver_Gear.c ****     for(i = 0u; i < LED_Driver_Gear_CHANNEL_LIMIT; i++)
ARM GAS  C:\Users\charl\AppData\Local\Temp\ccrxE5Zl.s 			page 12


 295              		.loc 1 321 0
 296 0012 0026     		movs	r6, #0
 297 0014 1EE0     		b	.L26
 298              	.LVL38:
 299              	.L29:
 322:.\Generated_Source\PSoC5/LED_Driver_Gear.c ****     {
 323:.\Generated_Source\PSoC5/LED_Driver_Gear.c ****         channel = dmaChannelList[i];
 300              		.loc 1 323 0
 301 0016 02AB     		add	r3, sp, #8
 302 0018 3344     		add	r3, r3, r6
 303 001a 13F8045C 		ldrb	r5, [r3, #-4]	@ zero_extendqisi2
 304              	.LVL39:
 324:.\Generated_Source\PSoC5/LED_Driver_Gear.c ****         (void) CyDmaChDisable(channel);
 305              		.loc 1 324 0
 306 001e 2846     		mov	r0, r5
 307 0020 FFF7FEFF 		bl	CyDmaChDisable
 308              	.LVL40:
 325:.\Generated_Source\PSoC5/LED_Driver_Gear.c ****         
 326:.\Generated_Source\PSoC5/LED_Driver_Gear.c ****         LED_Driver_Gear_Com_Driver_Write(LED_Driver_Gear_CLEAR);
 309              		.loc 1 326 0
 310 0024 0020     		movs	r0, #0
 311 0026 FFF7FEFF 		bl	LED_Driver_Gear_Com_Driver_Write
 312              	.LVL41:
 313              	.L27:
 327:.\Generated_Source\PSoC5/LED_Driver_Gear.c ****         
 328:.\Generated_Source\PSoC5/LED_Driver_Gear.c ****         /* Clear any potential DMA requests and re-reset TD pointers */
 329:.\Generated_Source\PSoC5/LED_Driver_Gear.c ****         while(0u != (CY_DMA_CH_STRUCT_PTR[channel].basic_status[0u] & CY_DMA_STATUS_TD_ACTIVE))
 314              		.loc 1 329 0 discriminator 1
 315 002a 0D4C     		ldr	r4, .L31+4
 316 002c 04EB0514 		add	r4, r4, r5, lsl #4
 317 0030 237A     		ldrb	r3, [r4, #8]	@ zero_extendqisi2
 318 0032 13F0020F 		tst	r3, #2
 319 0036 F8D1     		bne	.L27
 330:.\Generated_Source\PSoC5/LED_Driver_Gear.c ****         {
 331:.\Generated_Source\PSoC5/LED_Driver_Gear.c ****             ; /* Wait for to be cleared */
 332:.\Generated_Source\PSoC5/LED_Driver_Gear.c ****         }
 333:.\Generated_Source\PSoC5/LED_Driver_Gear.c **** 
 334:.\Generated_Source\PSoC5/LED_Driver_Gear.c ****         (void) CyDmaChSetRequest(channel, CY_DMA_CPU_TERM_CHAIN);
 320              		.loc 1 334 0
 321 0038 2846     		mov	r0, r5
 322 003a 0421     		movs	r1, #4
 323 003c FFF7FEFF 		bl	CyDmaChSetRequest
 324              	.LVL42:
 335:.\Generated_Source\PSoC5/LED_Driver_Gear.c ****         (void) CyDmaChEnable    (channel, 1u);
 325              		.loc 1 335 0
 326 0040 2846     		mov	r0, r5
 327 0042 0121     		movs	r1, #1
 328 0044 FFF7FEFF 		bl	CyDmaChEnable
 329              	.LVL43:
 330              	.L28:
 336:.\Generated_Source\PSoC5/LED_Driver_Gear.c **** 
 337:.\Generated_Source\PSoC5/LED_Driver_Gear.c ****         while(0u != (CY_DMA_CH_STRUCT_PTR[channel].basic_cfg[0u] & CY_DMA_STATUS_CHAIN_ACTIVE))
 331              		.loc 1 337 0 discriminator 1
 332 0048 2378     		ldrb	r3, [r4]	@ zero_extendqisi2
 333 004a 13F0010F 		tst	r3, #1
 334 004e FBD1     		bne	.L28
 321:.\Generated_Source\PSoC5/LED_Driver_Gear.c ****     {
ARM GAS  C:\Users\charl\AppData\Local\Temp\ccrxE5Zl.s 			page 13


 335              		.loc 1 321 0 discriminator 2
 336 0050 0136     		adds	r6, r6, #1
 337              	.LVL44:
 338 0052 F6B2     		uxtb	r6, r6
 339              	.LVL45:
 340              	.L26:
 321:.\Generated_Source\PSoC5/LED_Driver_Gear.c ****     {
 341              		.loc 1 321 0 is_stmt 0 discriminator 1
 342 0054 012E     		cmp	r6, #1
 343 0056 DED9     		bls	.L29
 338:.\Generated_Source\PSoC5/LED_Driver_Gear.c ****         {
 339:.\Generated_Source\PSoC5/LED_Driver_Gear.c ****             ; /* Wait for to be cleared */
 340:.\Generated_Source\PSoC5/LED_Driver_Gear.c ****         }
 341:.\Generated_Source\PSoC5/LED_Driver_Gear.c ****     }
 342:.\Generated_Source\PSoC5/LED_Driver_Gear.c **** }
 344              		.loc 1 342 0 is_stmt 1
 345 0058 02B0     		add	sp, sp, #8
 346              		.cfi_def_cfa_offset 16
 347              		@ sp needed
 348 005a 70BD     		pop	{r4, r5, r6, pc}
 349              	.LVL46:
 350              	.L32:
 351              		.align	2
 352              	.L31:
 353 005c 00000000 		.word	.LANCHOR0
 354 0060 10700040 		.word	1073770512
 355              		.cfi_endproc
 356              	.LFE2:
 357              		.size	LED_Driver_Gear_DmaDisable, .-LED_Driver_Gear_DmaDisable
 358              		.section	.text.LED_Driver_Gear_Enable,"ax",%progbits
 359              		.align	2
 360              		.global	LED_Driver_Gear_Enable
 361              		.thumb
 362              		.thumb_func
 363              		.type	LED_Driver_Gear_Enable, %function
 364              	LED_Driver_Gear_Enable:
 365              	.LFB4:
 343:.\Generated_Source\PSoC5/LED_Driver_Gear.c **** 
 344:.\Generated_Source\PSoC5/LED_Driver_Gear.c **** 
 345:.\Generated_Source\PSoC5/LED_Driver_Gear.c **** /*******************************************************************************
 346:.\Generated_Source\PSoC5/LED_Driver_Gear.c **** * Function Name: LED_Driver_Gear_Init
 347:.\Generated_Source\PSoC5/LED_Driver_Gear.c **** ********************************************************************************
 348:.\Generated_Source\PSoC5/LED_Driver_Gear.c **** *
 349:.\Generated_Source\PSoC5/LED_Driver_Gear.c **** * Summary: 
 350:.\Generated_Source\PSoC5/LED_Driver_Gear.c **** *  Performs initialization required for the component to operate.
 351:.\Generated_Source\PSoC5/LED_Driver_Gear.c **** *
 352:.\Generated_Source\PSoC5/LED_Driver_Gear.c **** * Parameters:
 353:.\Generated_Source\PSoC5/LED_Driver_Gear.c **** *  None
 354:.\Generated_Source\PSoC5/LED_Driver_Gear.c **** *
 355:.\Generated_Source\PSoC5/LED_Driver_Gear.c **** * Return: 
 356:.\Generated_Source\PSoC5/LED_Driver_Gear.c **** *  None
 357:.\Generated_Source\PSoC5/LED_Driver_Gear.c **** *
 358:.\Generated_Source\PSoC5/LED_Driver_Gear.c **** * Side Effects: 
 359:.\Generated_Source\PSoC5/LED_Driver_Gear.c **** *  This action clears the display.
 360:.\Generated_Source\PSoC5/LED_Driver_Gear.c **** *
 361:.\Generated_Source\PSoC5/LED_Driver_Gear.c **** *******************************************************************************/
 362:.\Generated_Source\PSoC5/LED_Driver_Gear.c **** void LED_Driver_Gear_Init(void) 
ARM GAS  C:\Users\charl\AppData\Local\Temp\ccrxE5Zl.s 			page 14


 363:.\Generated_Source\PSoC5/LED_Driver_Gear.c **** {
 364:.\Generated_Source\PSoC5/LED_Driver_Gear.c ****     static uint8 LED_Driver_Gear_dmaInitDone = 0u;
 365:.\Generated_Source\PSoC5/LED_Driver_Gear.c ****     #if (LED_Driver_Gear_BRIGHTNESS_EN == LED_Driver_Gear_ENABLED)
 366:.\Generated_Source\PSoC5/LED_Driver_Gear.c ****         uint8 i;
 367:.\Generated_Source\PSoC5/LED_Driver_Gear.c ****     #endif /* (LED_Driver_Gear_BRIGHTNESS_EN == LED_Driver_Gear_ENABLED) */
 368:.\Generated_Source\PSoC5/LED_Driver_Gear.c ****     
 369:.\Generated_Source\PSoC5/LED_Driver_Gear.c ****     /* Start fresh by clearing the display */
 370:.\Generated_Source\PSoC5/LED_Driver_Gear.c ****     LED_Driver_Gear_ClearDisplayAll();
 371:.\Generated_Source\PSoC5/LED_Driver_Gear.c ****     
 372:.\Generated_Source\PSoC5/LED_Driver_Gear.c ****     /* Initialize the DMAs */
 373:.\Generated_Source\PSoC5/LED_Driver_Gear.c ****     if(0u == LED_Driver_Gear_dmaInitDone)
 374:.\Generated_Source\PSoC5/LED_Driver_Gear.c ****     {
 375:.\Generated_Source\PSoC5/LED_Driver_Gear.c ****         LED_Driver_Gear_DmaInit();
 376:.\Generated_Source\PSoC5/LED_Driver_Gear.c ****         LED_Driver_Gear_dmaInitDone = 1u;
 377:.\Generated_Source\PSoC5/LED_Driver_Gear.c ****     }
 378:.\Generated_Source\PSoC5/LED_Driver_Gear.c ****     
 379:.\Generated_Source\PSoC5/LED_Driver_Gear.c ****     /* Set the brightness to full */
 380:.\Generated_Source\PSoC5/LED_Driver_Gear.c ****     #if (LED_Driver_Gear_BRIGHTNESS_EN == LED_Driver_Gear_ENABLED)
 381:.\Generated_Source\PSoC5/LED_Driver_Gear.c ****         for(i = 0u; i<(LED_Driver_Gear_NUM_COM); i++)
 382:.\Generated_Source\PSoC5/LED_Driver_Gear.c ****         {
 383:.\Generated_Source\PSoC5/LED_Driver_Gear.c ****             LED_Driver_Gear_brightnessReg[i] = LED_Driver_Gear_INIT_BRIGHT;
 384:.\Generated_Source\PSoC5/LED_Driver_Gear.c ****         }
 385:.\Generated_Source\PSoC5/LED_Driver_Gear.c ****     #endif /* (LED_Driver_Gear_BRIGHTNESS_EN == LED_Driver_Gear_ENABLED) */
 386:.\Generated_Source\PSoC5/LED_Driver_Gear.c **** }
 387:.\Generated_Source\PSoC5/LED_Driver_Gear.c **** 
 388:.\Generated_Source\PSoC5/LED_Driver_Gear.c **** 
 389:.\Generated_Source\PSoC5/LED_Driver_Gear.c **** /*******************************************************************************
 390:.\Generated_Source\PSoC5/LED_Driver_Gear.c **** * Function Name: LED_Driver_Gear_Enable
 391:.\Generated_Source\PSoC5/LED_Driver_Gear.c **** ********************************************************************************
 392:.\Generated_Source\PSoC5/LED_Driver_Gear.c **** *
 393:.\Generated_Source\PSoC5/LED_Driver_Gear.c **** * Summary: 
 394:.\Generated_Source\PSoC5/LED_Driver_Gear.c **** *  Turns on the display.
 395:.\Generated_Source\PSoC5/LED_Driver_Gear.c **** *
 396:.\Generated_Source\PSoC5/LED_Driver_Gear.c **** * Parameters:
 397:.\Generated_Source\PSoC5/LED_Driver_Gear.c **** *  None
 398:.\Generated_Source\PSoC5/LED_Driver_Gear.c **** *
 399:.\Generated_Source\PSoC5/LED_Driver_Gear.c **** * Return: 
 400:.\Generated_Source\PSoC5/LED_Driver_Gear.c **** *  None
 401:.\Generated_Source\PSoC5/LED_Driver_Gear.c **** *
 402:.\Generated_Source\PSoC5/LED_Driver_Gear.c **** * Side Effects: 
 403:.\Generated_Source\PSoC5/LED_Driver_Gear.c **** *  None
 404:.\Generated_Source\PSoC5/LED_Driver_Gear.c **** *
 405:.\Generated_Source\PSoC5/LED_Driver_Gear.c **** *******************************************************************************/
 406:.\Generated_Source\PSoC5/LED_Driver_Gear.c **** void LED_Driver_Gear_Enable(void) 
 407:.\Generated_Source\PSoC5/LED_Driver_Gear.c **** {
 366              		.loc 1 407 0
 367              		.cfi_startproc
 368              		@ args = 0, pretend = 0, frame = 0
 369              		@ frame_needed = 0, uses_anonymous_args = 0
 370 0000 08B5     		push	{r3, lr}
 371              		.cfi_def_cfa_offset 8
 372              		.cfi_offset 3, -8
 373              		.cfi_offset 14, -4
 408:.\Generated_Source\PSoC5/LED_Driver_Gear.c ****     /* Enable the DMAs */
 409:.\Generated_Source\PSoC5/LED_Driver_Gear.c ****     LED_Driver_Gear_DmaEnable();
 374              		.loc 1 409 0
 375 0002 FFF7FEFF 		bl	LED_Driver_Gear_DmaEnable
ARM GAS  C:\Users\charl\AppData\Local\Temp\ccrxE5Zl.s 			page 15


 376              	.LVL47:
 410:.\Generated_Source\PSoC5/LED_Driver_Gear.c ****  
 411:.\Generated_Source\PSoC5/LED_Driver_Gear.c ****     #if (LED_Driver_Gear_BRIGHTNESS_EN == LED_Driver_Gear_ENABLED)
 412:.\Generated_Source\PSoC5/LED_Driver_Gear.c ****        /* Initialize to zero */
 413:.\Generated_Source\PSoC5/LED_Driver_Gear.c ****        LED_Driver_Gear_COUNTER_REG = 0x00u;
 414:.\Generated_Source\PSoC5/LED_Driver_Gear.c ****        LED_Driver_Gear_COMPARE_REG = 0x00u;
 415:.\Generated_Source\PSoC5/LED_Driver_Gear.c ****        
 416:.\Generated_Source\PSoC5/LED_Driver_Gear.c ****         /* Enable the PWM for brightness control */
 417:.\Generated_Source\PSoC5/LED_Driver_Gear.c ****        LED_Driver_Gear_CONTROL_REG = LED_Driver_Gear_CTRL_ENABLE;
 418:.\Generated_Source\PSoC5/LED_Driver_Gear.c ****     #endif /* (LED_Driver_Gear_BRIGHTNESS_EN == LED_Driver_Gear_ENABLED) */
 419:.\Generated_Source\PSoC5/LED_Driver_Gear.c ****     
 420:.\Generated_Source\PSoC5/LED_Driver_Gear.c ****     LED_Driver_Gear_enableVar = LED_Driver_Gear_CTRL_ENABLE;
 377              		.loc 1 420 0
 378 0006 0122     		movs	r2, #1
 379 0008 014B     		ldr	r3, .L35
 380 000a 5A72     		strb	r2, [r3, #9]
 381 000c 08BD     		pop	{r3, pc}
 382              	.L36:
 383 000e 00BF     		.align	2
 384              	.L35:
 385 0010 00000000 		.word	.LANCHOR0
 386              		.cfi_endproc
 387              	.LFE4:
 388              		.size	LED_Driver_Gear_Enable, .-LED_Driver_Gear_Enable
 389              		.section	.text.LED_Driver_Gear_SetDisplayRAM,"ax",%progbits
 390              		.align	2
 391              		.global	LED_Driver_Gear_SetDisplayRAM
 392              		.thumb
 393              		.thumb_func
 394              		.type	LED_Driver_Gear_SetDisplayRAM, %function
 395              	LED_Driver_Gear_SetDisplayRAM:
 396              	.LFB7:
 421:.\Generated_Source\PSoC5/LED_Driver_Gear.c **** }
 422:.\Generated_Source\PSoC5/LED_Driver_Gear.c **** 
 423:.\Generated_Source\PSoC5/LED_Driver_Gear.c **** 
 424:.\Generated_Source\PSoC5/LED_Driver_Gear.c **** /*******************************************************************************
 425:.\Generated_Source\PSoC5/LED_Driver_Gear.c **** * Function Name: LED_Driver_Gear_Start
 426:.\Generated_Source\PSoC5/LED_Driver_Gear.c **** ********************************************************************************
 427:.\Generated_Source\PSoC5/LED_Driver_Gear.c **** *
 428:.\Generated_Source\PSoC5/LED_Driver_Gear.c **** * Summary:
 429:.\Generated_Source\PSoC5/LED_Driver_Gear.c **** *  Configures the hardware (DMA and optional PWM) and enables the LED
 430:.\Generated_Source\PSoC5/LED_Driver_Gear.c **** *  display. Whatever is currently in the display RAM will be displayed on the 
 431:.\Generated_Source\PSoC5/LED_Driver_Gear.c **** *  LED display. The display RAM is an array of 1 to 24 bytes called 
 432:.\Generated_Source\PSoC5/LED_Driver_Gear.c **** *  LED_Driver_1_SegmentRam[].
 433:.\Generated_Source\PSoC5/LED_Driver_Gear.c **** *
 434:.\Generated_Source\PSoC5/LED_Driver_Gear.c **** * Parameters:
 435:.\Generated_Source\PSoC5/LED_Driver_Gear.c **** *  None
 436:.\Generated_Source\PSoC5/LED_Driver_Gear.c **** *
 437:.\Generated_Source\PSoC5/LED_Driver_Gear.c **** * Return:
 438:.\Generated_Source\PSoC5/LED_Driver_Gear.c **** *  None
 439:.\Generated_Source\PSoC5/LED_Driver_Gear.c **** *
 440:.\Generated_Source\PSoC5/LED_Driver_Gear.c **** * Side effects: 
 441:.\Generated_Source\PSoC5/LED_Driver_Gear.c **** *  None
 442:.\Generated_Source\PSoC5/LED_Driver_Gear.c **** *
 443:.\Generated_Source\PSoC5/LED_Driver_Gear.c **** *******************************************************************************/
 444:.\Generated_Source\PSoC5/LED_Driver_Gear.c **** void LED_Driver_Gear_Start(void) 
 445:.\Generated_Source\PSoC5/LED_Driver_Gear.c **** {
ARM GAS  C:\Users\charl\AppData\Local\Temp\ccrxE5Zl.s 			page 16


 446:.\Generated_Source\PSoC5/LED_Driver_Gear.c ****     if(0u == LED_Driver_Gear_initVar)
 447:.\Generated_Source\PSoC5/LED_Driver_Gear.c ****     {
 448:.\Generated_Source\PSoC5/LED_Driver_Gear.c ****         LED_Driver_Gear_Init();
 449:.\Generated_Source\PSoC5/LED_Driver_Gear.c ****         LED_Driver_Gear_initVar = 1u;
 450:.\Generated_Source\PSoC5/LED_Driver_Gear.c ****     }
 451:.\Generated_Source\PSoC5/LED_Driver_Gear.c **** 
 452:.\Generated_Source\PSoC5/LED_Driver_Gear.c ****     LED_Driver_Gear_Enable();
 453:.\Generated_Source\PSoC5/LED_Driver_Gear.c **** }
 454:.\Generated_Source\PSoC5/LED_Driver_Gear.c **** 
 455:.\Generated_Source\PSoC5/LED_Driver_Gear.c **** 
 456:.\Generated_Source\PSoC5/LED_Driver_Gear.c **** /*******************************************************************************
 457:.\Generated_Source\PSoC5/LED_Driver_Gear.c **** * Function Name: LED_Driver_Gear_Stop
 458:.\Generated_Source\PSoC5/LED_Driver_Gear.c **** ********************************************************************************
 459:.\Generated_Source\PSoC5/LED_Driver_Gear.c **** *
 460:.\Generated_Source\PSoC5/LED_Driver_Gear.c **** * Summary:
 461:.\Generated_Source\PSoC5/LED_Driver_Gear.c **** *  Clears the display SRAM, disables all DMA channels and the stops the PWM
 462:.\Generated_Source\PSoC5/LED_Driver_Gear.c **** *  (if enabled in the customizer).
 463:.\Generated_Source\PSoC5/LED_Driver_Gear.c **** *
 464:.\Generated_Source\PSoC5/LED_Driver_Gear.c **** * Parameters:
 465:.\Generated_Source\PSoC5/LED_Driver_Gear.c **** *  None
 466:.\Generated_Source\PSoC5/LED_Driver_Gear.c **** *
 467:.\Generated_Source\PSoC5/LED_Driver_Gear.c **** * Return:
 468:.\Generated_Source\PSoC5/LED_Driver_Gear.c **** *  None
 469:.\Generated_Source\PSoC5/LED_Driver_Gear.c **** *
 470:.\Generated_Source\PSoC5/LED_Driver_Gear.c **** * Side effects:
 471:.\Generated_Source\PSoC5/LED_Driver_Gear.c **** *  None
 472:.\Generated_Source\PSoC5/LED_Driver_Gear.c **** *
 473:.\Generated_Source\PSoC5/LED_Driver_Gear.c **** *******************************************************************************/
 474:.\Generated_Source\PSoC5/LED_Driver_Gear.c **** void LED_Driver_Gear_Stop(void) 
 475:.\Generated_Source\PSoC5/LED_Driver_Gear.c **** {
 476:.\Generated_Source\PSoC5/LED_Driver_Gear.c ****     #if (LED_Driver_Gear_BRIGHTNESS_EN == LED_Driver_Gear_ENABLED)
 477:.\Generated_Source\PSoC5/LED_Driver_Gear.c ****         /* Disable the PWM */
 478:.\Generated_Source\PSoC5/LED_Driver_Gear.c ****         LED_Driver_Gear_CONTROL_REG = LED_Driver_Gear_CTRL_DISABLE;
 479:.\Generated_Source\PSoC5/LED_Driver_Gear.c ****     #endif /* (LED_Driver_Gear_BRIGHTNESS_EN == LED_Driver_Gear_ENABLED) */
 480:.\Generated_Source\PSoC5/LED_Driver_Gear.c ****     
 481:.\Generated_Source\PSoC5/LED_Driver_Gear.c ****     LED_Driver_Gear_DmaDisable();
 482:.\Generated_Source\PSoC5/LED_Driver_Gear.c ****     LED_Driver_Gear_ClearDisplayAll();
 483:.\Generated_Source\PSoC5/LED_Driver_Gear.c ****     
 484:.\Generated_Source\PSoC5/LED_Driver_Gear.c ****     LED_Driver_Gear_enableVar  = LED_Driver_Gear_CTRL_DISABLE;
 485:.\Generated_Source\PSoC5/LED_Driver_Gear.c **** }
 486:.\Generated_Source\PSoC5/LED_Driver_Gear.c **** 
 487:.\Generated_Source\PSoC5/LED_Driver_Gear.c **** 
 488:.\Generated_Source\PSoC5/LED_Driver_Gear.c **** /*******************************************************************************
 489:.\Generated_Source\PSoC5/LED_Driver_Gear.c **** * Function Name: LED_Driver_Gear_SetDisplayRAM
 490:.\Generated_Source\PSoC5/LED_Driver_Gear.c **** ********************************************************************************
 491:.\Generated_Source\PSoC5/LED_Driver_Gear.c **** *
 492:.\Generated_Source\PSoC5/LED_Driver_Gear.c **** * Summary:
 493:.\Generated_Source\PSoC5/LED_Driver_Gear.c **** *  Writes 'value' directly into the display RAM. It is not necessary to use 
 494:.\Generated_Source\PSoC5/LED_Driver_Gear.c **** *  this API to manipulate the display RAM, you can also access the display 
 495:.\Generated_Source\PSoC5/LED_Driver_Gear.c **** *  RAM directly by writing to LED_Driver_Gear_segLBuffer,
 496:.\Generated_Source\PSoC5/LED_Driver_Gear.c **** *  LED_Driver_Gear_segMBuffer, LED_Driver_Gear_segHBuffer.
 497:.\Generated_Source\PSoC5/LED_Driver_Gear.c **** *
 498:.\Generated_Source\PSoC5/LED_Driver_Gear.c **** * Parameters:
 499:.\Generated_Source\PSoC5/LED_Driver_Gear.c **** *  uint8 value: Desired value to write into the display RAM. A '1' enables the
 500:.\Generated_Source\PSoC5/LED_Driver_Gear.c **** *               segment, a '0' disables the segment.
 501:.\Generated_Source\PSoC5/LED_Driver_Gear.c **** *  uint8 position: Position of the display that is modified.
 502:.\Generated_Source\PSoC5/LED_Driver_Gear.c **** *
ARM GAS  C:\Users\charl\AppData\Local\Temp\ccrxE5Zl.s 			page 17


 503:.\Generated_Source\PSoC5/LED_Driver_Gear.c **** * Return:
 504:.\Generated_Source\PSoC5/LED_Driver_Gear.c **** *  None
 505:.\Generated_Source\PSoC5/LED_Driver_Gear.c **** *
 506:.\Generated_Source\PSoC5/LED_Driver_Gear.c **** * Side effects:
 507:.\Generated_Source\PSoC5/LED_Driver_Gear.c **** *  None
 508:.\Generated_Source\PSoC5/LED_Driver_Gear.c **** *
 509:.\Generated_Source\PSoC5/LED_Driver_Gear.c **** *******************************************************************************/
 510:.\Generated_Source\PSoC5/LED_Driver_Gear.c **** void LED_Driver_Gear_SetDisplayRAM(uint8 value, uint8 position) 
 511:.\Generated_Source\PSoC5/LED_Driver_Gear.c **** {
 397              		.loc 1 511 0
 398              		.cfi_startproc
 399              		@ args = 0, pretend = 0, frame = 0
 400              		@ frame_needed = 0, uses_anonymous_args = 0
 401              		@ link register save eliminated.
 402              	.LVL48:
 512:.\Generated_Source\PSoC5/LED_Driver_Gear.c ****     uint8 relPosition;
 513:.\Generated_Source\PSoC5/LED_Driver_Gear.c ****     
 514:.\Generated_Source\PSoC5/LED_Driver_Gear.c ****     if(position < LED_Driver_Gear_NUM_COM)
 403              		.loc 1 514 0
 404 0000 09B9     		cbnz	r1, .L37
 405              	.LVL49:
 515:.\Generated_Source\PSoC5/LED_Driver_Gear.c ****     {
 516:.\Generated_Source\PSoC5/LED_Driver_Gear.c ****         relPosition = position;
 517:.\Generated_Source\PSoC5/LED_Driver_Gear.c ****         #if(LED_Driver_Gear_SEG_DRIVE == LED_Driver_Gear_HIGH)
 518:.\Generated_Source\PSoC5/LED_Driver_Gear.c ****             LED_Driver_Gear_segLBuffer[relPosition] = value;
 406              		.loc 1 518 0
 407 0002 014A     		ldr	r2, .L39
 408 0004 5054     		strb	r0, [r2, r1]
 409              	.LVL50:
 410              	.L37:
 411 0006 7047     		bx	lr
 412              	.L40:
 413              		.align	2
 414              	.L39:
 415 0008 00000000 		.word	LED_Driver_Gear_segLBuffer
 416              		.cfi_endproc
 417              	.LFE7:
 418              		.size	LED_Driver_Gear_SetDisplayRAM, .-LED_Driver_Gear_SetDisplayRAM
 419              		.section	.text.LED_Driver_Gear_SetRC,"ax",%progbits
 420              		.align	2
 421              		.global	LED_Driver_Gear_SetRC
 422              		.thumb
 423              		.thumb_func
 424              		.type	LED_Driver_Gear_SetRC, %function
 425              	LED_Driver_Gear_SetRC:
 426              	.LFB8:
 519:.\Generated_Source\PSoC5/LED_Driver_Gear.c ****         #else
 520:.\Generated_Source\PSoC5/LED_Driver_Gear.c ****             LED_Driver_Gear_segLBuffer[relPosition] = ((uint8) ~value);
 521:.\Generated_Source\PSoC5/LED_Driver_Gear.c ****         #endif /* LED_Driver_Gear_SEG_DRIVE == LED_Driver_Gear_HIGH */
 522:.\Generated_Source\PSoC5/LED_Driver_Gear.c ****     }    
 523:.\Generated_Source\PSoC5/LED_Driver_Gear.c ****     else if (position < LED_Driver_Gear_TWO_NUM_COM)
 524:.\Generated_Source\PSoC5/LED_Driver_Gear.c ****     {
 525:.\Generated_Source\PSoC5/LED_Driver_Gear.c ****         #if (LED_Driver_Gear_NUM_SEG > 8u)
 526:.\Generated_Source\PSoC5/LED_Driver_Gear.c ****             relPosition = position - LED_Driver_Gear_NUM_COM;
 527:.\Generated_Source\PSoC5/LED_Driver_Gear.c ****             #if(LED_Driver_Gear_SEG_DRIVE == LED_Driver_Gear_HIGH)
 528:.\Generated_Source\PSoC5/LED_Driver_Gear.c ****                 LED_Driver_Gear_segMBuffer[relPosition] = value;
 529:.\Generated_Source\PSoC5/LED_Driver_Gear.c ****             #else
ARM GAS  C:\Users\charl\AppData\Local\Temp\ccrxE5Zl.s 			page 18


 530:.\Generated_Source\PSoC5/LED_Driver_Gear.c ****                 LED_Driver_Gear_segMBuffer[relPosition] = ((uint8) ~value);
 531:.\Generated_Source\PSoC5/LED_Driver_Gear.c ****             #endif /* LED_Driver_Gear_SEG_DRIVE == LED_Driver_Gear_HIGH */
 532:.\Generated_Source\PSoC5/LED_Driver_Gear.c ****         #endif /* (LED_Driver_Gear_NUM_SEG > 8u) */
 533:.\Generated_Source\PSoC5/LED_Driver_Gear.c ****     }
 534:.\Generated_Source\PSoC5/LED_Driver_Gear.c ****     else
 535:.\Generated_Source\PSoC5/LED_Driver_Gear.c ****     {
 536:.\Generated_Source\PSoC5/LED_Driver_Gear.c ****         #if (LED_Driver_Gear_NUM_SEG > 16u)
 537:.\Generated_Source\PSoC5/LED_Driver_Gear.c ****             relPosition = position - LED_Driver_Gear_TWO_NUM_COM;
 538:.\Generated_Source\PSoC5/LED_Driver_Gear.c ****             if(relPosition < LED_Driver_Gear_NUM_COM)
 539:.\Generated_Source\PSoC5/LED_Driver_Gear.c ****             {
 540:.\Generated_Source\PSoC5/LED_Driver_Gear.c ****                 #if(LED_Driver_Gear_SEG_DRIVE == LED_Driver_Gear_HIGH)
 541:.\Generated_Source\PSoC5/LED_Driver_Gear.c ****                     LED_Driver_Gear_segHBuffer[relPosition] = value;
 542:.\Generated_Source\PSoC5/LED_Driver_Gear.c ****                 #else
 543:.\Generated_Source\PSoC5/LED_Driver_Gear.c ****                     LED_Driver_Gear_segMBuffer[relPosition] = ((uint8) ~value);
 544:.\Generated_Source\PSoC5/LED_Driver_Gear.c ****                 #endif /* LED_Driver_Gear_SEG_DRIVE == LED_Driver_Gear_HIGH */
 545:.\Generated_Source\PSoC5/LED_Driver_Gear.c ****             }
 546:.\Generated_Source\PSoC5/LED_Driver_Gear.c ****         #endif /* (LED_Driver_Gear_NUM_SEG > 16u) */
 547:.\Generated_Source\PSoC5/LED_Driver_Gear.c ****     }
 548:.\Generated_Source\PSoC5/LED_Driver_Gear.c **** }
 549:.\Generated_Source\PSoC5/LED_Driver_Gear.c **** 
 550:.\Generated_Source\PSoC5/LED_Driver_Gear.c **** 
 551:.\Generated_Source\PSoC5/LED_Driver_Gear.c **** /*******************************************************************************
 552:.\Generated_Source\PSoC5/LED_Driver_Gear.c **** * Function Name: LED_Driver_Gear_SetRC
 553:.\Generated_Source\PSoC5/LED_Driver_Gear.c **** ********************************************************************************
 554:.\Generated_Source\PSoC5/LED_Driver_Gear.c **** *
 555:.\Generated_Source\PSoC5/LED_Driver_Gear.c **** * Summary:
 556:.\Generated_Source\PSoC5/LED_Driver_Gear.c **** *  Sets the bit in the display RAM corresponding to the LED in the designated
 557:.\Generated_Source\PSoC5/LED_Driver_Gear.c **** *  row and column. Rows are the segments and columns are the commons.
 558:.\Generated_Source\PSoC5/LED_Driver_Gear.c **** *
 559:.\Generated_Source\PSoC5/LED_Driver_Gear.c **** * Parameters:
 560:.\Generated_Source\PSoC5/LED_Driver_Gear.c **** *  uint8 row: Row value 0 to 23.
 561:.\Generated_Source\PSoC5/LED_Driver_Gear.c **** *  uint8 col: Column between 0 and 7.
 562:.\Generated_Source\PSoC5/LED_Driver_Gear.c **** *
 563:.\Generated_Source\PSoC5/LED_Driver_Gear.c **** * Return:
 564:.\Generated_Source\PSoC5/LED_Driver_Gear.c **** *  None
 565:.\Generated_Source\PSoC5/LED_Driver_Gear.c **** *
 566:.\Generated_Source\PSoC5/LED_Driver_Gear.c **** * Side effects:
 567:.\Generated_Source\PSoC5/LED_Driver_Gear.c **** *  None
 568:.\Generated_Source\PSoC5/LED_Driver_Gear.c **** *
 569:.\Generated_Source\PSoC5/LED_Driver_Gear.c **** *******************************************************************************/
 570:.\Generated_Source\PSoC5/LED_Driver_Gear.c **** void LED_Driver_Gear_SetRC(uint8 row, uint8 column) 
 571:.\Generated_Source\PSoC5/LED_Driver_Gear.c **** {
 427              		.loc 1 571 0
 428              		.cfi_startproc
 429              		@ args = 0, pretend = 0, frame = 0
 430              		@ frame_needed = 0, uses_anonymous_args = 0
 431              		@ link register save eliminated.
 432              	.LVL51:
 572:.\Generated_Source\PSoC5/LED_Driver_Gear.c ****     uint8 rowSeg;
 573:.\Generated_Source\PSoC5/LED_Driver_Gear.c ****     
 574:.\Generated_Source\PSoC5/LED_Driver_Gear.c ****     if(column < LED_Driver_Gear_NUM_COM)
 433              		.loc 1 574 0
 434 0000 0B46     		mov	r3, r1
 435 0002 39B9     		cbnz	r1, .L41
 575:.\Generated_Source\PSoC5/LED_Driver_Gear.c ****     {
 576:.\Generated_Source\PSoC5/LED_Driver_Gear.c ****         if(row < 8u)
 436              		.loc 1 576 0
ARM GAS  C:\Users\charl\AppData\Local\Temp\ccrxE5Zl.s 			page 19


 437 0004 0728     		cmp	r0, #7
 438 0006 05D8     		bhi	.L41
 439              	.LVL52:
 577:.\Generated_Source\PSoC5/LED_Driver_Gear.c ****         {
 578:.\Generated_Source\PSoC5/LED_Driver_Gear.c ****             rowSeg = row;
 579:.\Generated_Source\PSoC5/LED_Driver_Gear.c ****             #if(LED_Driver_Gear_SEG_DRIVE == LED_Driver_Gear_HIGH)
 580:.\Generated_Source\PSoC5/LED_Driver_Gear.c ****                 LED_Driver_Gear_segLBuffer[column] |= ((uint8)((uint8)0x01u << rowSeg));
 440              		.loc 1 580 0
 441 0008 0122     		movs	r2, #1
 442 000a 8240     		lsls	r2, r2, r0
 443 000c 0248     		ldr	r0, .L43
 444              	.LVL53:
 445 000e 415C     		ldrb	r1, [r0, r1]	@ zero_extendqisi2
 446              	.LVL54:
 447 0010 0A43     		orrs	r2, r2, r1
 448 0012 C254     		strb	r2, [r0, r3]
 449              	.LVL55:
 450              	.L41:
 451 0014 7047     		bx	lr
 452              	.L44:
 453 0016 00BF     		.align	2
 454              	.L43:
 455 0018 00000000 		.word	LED_Driver_Gear_segLBuffer
 456              		.cfi_endproc
 457              	.LFE8:
 458              		.size	LED_Driver_Gear_SetRC, .-LED_Driver_Gear_SetRC
 459              		.section	.text.LED_Driver_Gear_ClearRC,"ax",%progbits
 460              		.align	2
 461              		.global	LED_Driver_Gear_ClearRC
 462              		.thumb
 463              		.thumb_func
 464              		.type	LED_Driver_Gear_ClearRC, %function
 465              	LED_Driver_Gear_ClearRC:
 466              	.LFB9:
 581:.\Generated_Source\PSoC5/LED_Driver_Gear.c ****             #else
 582:.\Generated_Source\PSoC5/LED_Driver_Gear.c ****                 LED_Driver_Gear_segLBuffer[column] &= ((uint8)~((uint8)((uint8)0x01u << rowSeg)));
 583:.\Generated_Source\PSoC5/LED_Driver_Gear.c ****             #endif /* LED_Driver_Gear_SEG_DRIVE == LED_Driver_Gear_HIGH */
 584:.\Generated_Source\PSoC5/LED_Driver_Gear.c ****         }
 585:.\Generated_Source\PSoC5/LED_Driver_Gear.c ****         else if (row < 16u)
 586:.\Generated_Source\PSoC5/LED_Driver_Gear.c ****         {
 587:.\Generated_Source\PSoC5/LED_Driver_Gear.c ****             #if (LED_Driver_Gear_NUM_SEG > 8u) 
 588:.\Generated_Source\PSoC5/LED_Driver_Gear.c ****                 rowSeg = row - 8u;
 589:.\Generated_Source\PSoC5/LED_Driver_Gear.c ****                 #if(LED_Driver_Gear_SEG_DRIVE == LED_Driver_Gear_HIGH)
 590:.\Generated_Source\PSoC5/LED_Driver_Gear.c ****                     LED_Driver_Gear_segMBuffer[column] |= ((uint8)((uint8)0x01u << rowSeg));
 591:.\Generated_Source\PSoC5/LED_Driver_Gear.c ****                 #else
 592:.\Generated_Source\PSoC5/LED_Driver_Gear.c ****                     LED_Driver_Gear_segMBuffer[column] &= ((uint8)~((uint8)((uint8)0x01u << rowSeg)
 593:.\Generated_Source\PSoC5/LED_Driver_Gear.c ****                 #endif /* LED_Driver_Gear_SEG_DRIVE == LED_Driver_Gear_HIGH */
 594:.\Generated_Source\PSoC5/LED_Driver_Gear.c ****             #endif /* (LED_Driver_Gear_NUM_SEG > 8u) */
 595:.\Generated_Source\PSoC5/LED_Driver_Gear.c ****         }
 596:.\Generated_Source\PSoC5/LED_Driver_Gear.c ****         else
 597:.\Generated_Source\PSoC5/LED_Driver_Gear.c ****         {
 598:.\Generated_Source\PSoC5/LED_Driver_Gear.c ****             #if (LED_Driver_Gear_NUM_SEG > 16u)
 599:.\Generated_Source\PSoC5/LED_Driver_Gear.c ****                 rowSeg = row - 16u;
 600:.\Generated_Source\PSoC5/LED_Driver_Gear.c ****                 #if(LED_Driver_Gear_SEG_DRIVE == LED_Driver_Gear_HIGH)
 601:.\Generated_Source\PSoC5/LED_Driver_Gear.c ****                     LED_Driver_Gear_segHBuffer[column] |= ((uint8)((uint8)0x01u << rowSeg));
 602:.\Generated_Source\PSoC5/LED_Driver_Gear.c ****                 #else
 603:.\Generated_Source\PSoC5/LED_Driver_Gear.c ****                     LED_Driver_Gear_segHBuffer[column] &= ((uint8)~((uint8)((uint8)0x01u << rowSeg)
ARM GAS  C:\Users\charl\AppData\Local\Temp\ccrxE5Zl.s 			page 20


 604:.\Generated_Source\PSoC5/LED_Driver_Gear.c ****                 #endif /* LED_Driver_Gear_SEG_DRIVE == LED_Driver_Gear_HIGH */
 605:.\Generated_Source\PSoC5/LED_Driver_Gear.c ****             #endif /* (LED_Driver_Gear_NUM_SEG > 16u) */
 606:.\Generated_Source\PSoC5/LED_Driver_Gear.c ****         }
 607:.\Generated_Source\PSoC5/LED_Driver_Gear.c ****     }
 608:.\Generated_Source\PSoC5/LED_Driver_Gear.c **** }
 609:.\Generated_Source\PSoC5/LED_Driver_Gear.c **** 
 610:.\Generated_Source\PSoC5/LED_Driver_Gear.c **** 
 611:.\Generated_Source\PSoC5/LED_Driver_Gear.c **** /*******************************************************************************
 612:.\Generated_Source\PSoC5/LED_Driver_Gear.c **** * Function Name: LED_Driver_Gear_ClearRC
 613:.\Generated_Source\PSoC5/LED_Driver_Gear.c **** ********************************************************************************
 614:.\Generated_Source\PSoC5/LED_Driver_Gear.c **** *
 615:.\Generated_Source\PSoC5/LED_Driver_Gear.c **** * Summary:
 616:.\Generated_Source\PSoC5/LED_Driver_Gear.c **** *  Clears the bit in the display RAM corresponding to the LED in the designated
 617:.\Generated_Source\PSoC5/LED_Driver_Gear.c **** *  row and column.
 618:.\Generated_Source\PSoC5/LED_Driver_Gear.c **** *
 619:.\Generated_Source\PSoC5/LED_Driver_Gear.c **** * Parameters:
 620:.\Generated_Source\PSoC5/LED_Driver_Gear.c **** *  uint8 row: Row value 0 to 23.
 621:.\Generated_Source\PSoC5/LED_Driver_Gear.c **** *  uint8 col: Column between 0 and 7.
 622:.\Generated_Source\PSoC5/LED_Driver_Gear.c **** *
 623:.\Generated_Source\PSoC5/LED_Driver_Gear.c **** * Return:
 624:.\Generated_Source\PSoC5/LED_Driver_Gear.c **** *  None
 625:.\Generated_Source\PSoC5/LED_Driver_Gear.c **** *
 626:.\Generated_Source\PSoC5/LED_Driver_Gear.c **** * Side effects:
 627:.\Generated_Source\PSoC5/LED_Driver_Gear.c **** *  None
 628:.\Generated_Source\PSoC5/LED_Driver_Gear.c **** *
 629:.\Generated_Source\PSoC5/LED_Driver_Gear.c **** *******************************************************************************/
 630:.\Generated_Source\PSoC5/LED_Driver_Gear.c **** void LED_Driver_Gear_ClearRC(uint8 row, uint8 column) 
 631:.\Generated_Source\PSoC5/LED_Driver_Gear.c **** {
 467              		.loc 1 631 0
 468              		.cfi_startproc
 469              		@ args = 0, pretend = 0, frame = 0
 470              		@ frame_needed = 0, uses_anonymous_args = 0
 471              		@ link register save eliminated.
 472              	.LVL56:
 632:.\Generated_Source\PSoC5/LED_Driver_Gear.c ****     uint8 rowSeg;
 633:.\Generated_Source\PSoC5/LED_Driver_Gear.c ****     uint8 rowSelect;
 634:.\Generated_Source\PSoC5/LED_Driver_Gear.c ****     
 635:.\Generated_Source\PSoC5/LED_Driver_Gear.c ****     if(column < LED_Driver_Gear_NUM_COM)
 473              		.loc 1 635 0
 474 0000 0B46     		mov	r3, r1
 475 0002 41B9     		cbnz	r1, .L45
 636:.\Generated_Source\PSoC5/LED_Driver_Gear.c ****     {
 637:.\Generated_Source\PSoC5/LED_Driver_Gear.c ****         if(row < 8u)
 476              		.loc 1 637 0
 477 0004 0728     		cmp	r0, #7
 478 0006 06D8     		bhi	.L45
 479              	.LVL57:
 638:.\Generated_Source\PSoC5/LED_Driver_Gear.c ****         {
 639:.\Generated_Source\PSoC5/LED_Driver_Gear.c ****             rowSeg = row;
 640:.\Generated_Source\PSoC5/LED_Driver_Gear.c ****             rowSelect = ((uint8)((uint8)0x01u << rowSeg));
 480              		.loc 1 640 0
 481 0008 0122     		movs	r2, #1
 482 000a 8240     		lsls	r2, r2, r0
 483              	.LVL58:
 641:.\Generated_Source\PSoC5/LED_Driver_Gear.c ****             #if(LED_Driver_Gear_SEG_DRIVE == LED_Driver_Gear_HIGH)
 642:.\Generated_Source\PSoC5/LED_Driver_Gear.c ****                 LED_Driver_Gear_segLBuffer[column] &= ((uint8)(~(uint8)rowSelect));
 484              		.loc 1 642 0
ARM GAS  C:\Users\charl\AppData\Local\Temp\ccrxE5Zl.s 			page 21


 485 000c 0248     		ldr	r0, .L47
 486              	.LVL59:
 487 000e 415C     		ldrb	r1, [r0, r1]	@ zero_extendqisi2
 488              	.LVL60:
 489 0010 21EA0202 		bic	r2, r1, r2
 490              	.LVL61:
 491 0014 C254     		strb	r2, [r0, r3]
 492              	.LVL62:
 493              	.L45:
 494 0016 7047     		bx	lr
 495              	.L48:
 496              		.align	2
 497              	.L47:
 498 0018 00000000 		.word	LED_Driver_Gear_segLBuffer
 499              		.cfi_endproc
 500              	.LFE9:
 501              		.size	LED_Driver_Gear_ClearRC, .-LED_Driver_Gear_ClearRC
 502              		.section	.text.LED_Driver_Gear_ToggleRC,"ax",%progbits
 503              		.align	2
 504              		.global	LED_Driver_Gear_ToggleRC
 505              		.thumb
 506              		.thumb_func
 507              		.type	LED_Driver_Gear_ToggleRC, %function
 508              	LED_Driver_Gear_ToggleRC:
 509              	.LFB10:
 643:.\Generated_Source\PSoC5/LED_Driver_Gear.c ****             #else
 644:.\Generated_Source\PSoC5/LED_Driver_Gear.c ****                 LED_Driver_Gear_segLBuffer[column] |= rowSelect;
 645:.\Generated_Source\PSoC5/LED_Driver_Gear.c ****             #endif /* LED_Driver_Gear_SEG_DRIVE == LED_Driver_Gear_HIGH */
 646:.\Generated_Source\PSoC5/LED_Driver_Gear.c ****         }    
 647:.\Generated_Source\PSoC5/LED_Driver_Gear.c ****         else if (row < 16u)
 648:.\Generated_Source\PSoC5/LED_Driver_Gear.c ****         {
 649:.\Generated_Source\PSoC5/LED_Driver_Gear.c ****             #if (LED_Driver_Gear_NUM_SEG > 8u) 
 650:.\Generated_Source\PSoC5/LED_Driver_Gear.c ****                 rowSeg = row - 8u;
 651:.\Generated_Source\PSoC5/LED_Driver_Gear.c ****                 rowSelect = ((uint8)((uint8)0x01u << rowSeg));
 652:.\Generated_Source\PSoC5/LED_Driver_Gear.c ****                 #if(LED_Driver_Gear_SEG_DRIVE == LED_Driver_Gear_HIGH)
 653:.\Generated_Source\PSoC5/LED_Driver_Gear.c ****                     LED_Driver_Gear_segMBuffer[column] &= ((uint8)(~(uint8)rowSelect));
 654:.\Generated_Source\PSoC5/LED_Driver_Gear.c ****                 #else
 655:.\Generated_Source\PSoC5/LED_Driver_Gear.c ****                     LED_Driver_Gear_segMBuffer[column] |= rowSelect;
 656:.\Generated_Source\PSoC5/LED_Driver_Gear.c ****                 #endif /* LED_Driver_Gear_SEG_DRIVE == LED_Driver_Gear_HIGH */
 657:.\Generated_Source\PSoC5/LED_Driver_Gear.c ****             #endif /* (LED_Driver_Gear_NUM_SEG > 8u) */
 658:.\Generated_Source\PSoC5/LED_Driver_Gear.c ****         }
 659:.\Generated_Source\PSoC5/LED_Driver_Gear.c ****         else
 660:.\Generated_Source\PSoC5/LED_Driver_Gear.c ****         {
 661:.\Generated_Source\PSoC5/LED_Driver_Gear.c ****             #if (LED_Driver_Gear_NUM_SEG > 16u)
 662:.\Generated_Source\PSoC5/LED_Driver_Gear.c ****                 rowSeg = row - 16u;
 663:.\Generated_Source\PSoC5/LED_Driver_Gear.c ****                 rowSelect = ((uint8)((uint8)0x01u << rowSeg));
 664:.\Generated_Source\PSoC5/LED_Driver_Gear.c ****                 #if(LED_Driver_Gear_SEG_DRIVE == LED_Driver_Gear_HIGH)
 665:.\Generated_Source\PSoC5/LED_Driver_Gear.c ****                     LED_Driver_Gear_segHBuffer[column] &= ((uint8)(~(uint8)rowSelect));
 666:.\Generated_Source\PSoC5/LED_Driver_Gear.c ****                 #else
 667:.\Generated_Source\PSoC5/LED_Driver_Gear.c ****                     LED_Driver_Gear_segHBuffer[column] |= rowSelect;
 668:.\Generated_Source\PSoC5/LED_Driver_Gear.c ****                 #endif /* LED_Driver_Gear_SEG_DRIVE == LED_Driver_Gear_HIGH */
 669:.\Generated_Source\PSoC5/LED_Driver_Gear.c ****             #endif /* (LED_Driver_Gear_NUM_SEG > 16u) */
 670:.\Generated_Source\PSoC5/LED_Driver_Gear.c ****         }
 671:.\Generated_Source\PSoC5/LED_Driver_Gear.c ****     }
 672:.\Generated_Source\PSoC5/LED_Driver_Gear.c **** }
 673:.\Generated_Source\PSoC5/LED_Driver_Gear.c **** 
 674:.\Generated_Source\PSoC5/LED_Driver_Gear.c **** 
ARM GAS  C:\Users\charl\AppData\Local\Temp\ccrxE5Zl.s 			page 22


 675:.\Generated_Source\PSoC5/LED_Driver_Gear.c **** /*******************************************************************************
 676:.\Generated_Source\PSoC5/LED_Driver_Gear.c **** * Function Name: LED_Driver_Gear_ToggleRC
 677:.\Generated_Source\PSoC5/LED_Driver_Gear.c **** ********************************************************************************
 678:.\Generated_Source\PSoC5/LED_Driver_Gear.c **** *
 679:.\Generated_Source\PSoC5/LED_Driver_Gear.c **** * Summary:
 680:.\Generated_Source\PSoC5/LED_Driver_Gear.c **** *  Toggles the bit in the display RAM corresponding to the LED in the designated
 681:.\Generated_Source\PSoC5/LED_Driver_Gear.c **** *  row and column.
 682:.\Generated_Source\PSoC5/LED_Driver_Gear.c **** *
 683:.\Generated_Source\PSoC5/LED_Driver_Gear.c **** * Parameters:
 684:.\Generated_Source\PSoC5/LED_Driver_Gear.c **** *  uint8 row: Row value 0 to 23.
 685:.\Generated_Source\PSoC5/LED_Driver_Gear.c **** *  uint8 col: Column between 0 and 7.
 686:.\Generated_Source\PSoC5/LED_Driver_Gear.c **** *
 687:.\Generated_Source\PSoC5/LED_Driver_Gear.c **** * Return:
 688:.\Generated_Source\PSoC5/LED_Driver_Gear.c **** *  None
 689:.\Generated_Source\PSoC5/LED_Driver_Gear.c **** *
 690:.\Generated_Source\PSoC5/LED_Driver_Gear.c **** * Side effects:
 691:.\Generated_Source\PSoC5/LED_Driver_Gear.c **** *  None
 692:.\Generated_Source\PSoC5/LED_Driver_Gear.c **** *
 693:.\Generated_Source\PSoC5/LED_Driver_Gear.c **** *******************************************************************************/
 694:.\Generated_Source\PSoC5/LED_Driver_Gear.c **** void LED_Driver_Gear_ToggleRC(uint8 row, uint8 column) 
 695:.\Generated_Source\PSoC5/LED_Driver_Gear.c **** {
 510              		.loc 1 695 0
 511              		.cfi_startproc
 512              		@ args = 0, pretend = 0, frame = 0
 513              		@ frame_needed = 0, uses_anonymous_args = 0
 514              		@ link register save eliminated.
 515              	.LVL63:
 696:.\Generated_Source\PSoC5/LED_Driver_Gear.c ****     uint8 rowSeg;
 697:.\Generated_Source\PSoC5/LED_Driver_Gear.c ****     
 698:.\Generated_Source\PSoC5/LED_Driver_Gear.c ****     if(column < LED_Driver_Gear_NUM_COM)
 516              		.loc 1 698 0
 517 0000 0B46     		mov	r3, r1
 518 0002 39B9     		cbnz	r1, .L49
 699:.\Generated_Source\PSoC5/LED_Driver_Gear.c ****     {
 700:.\Generated_Source\PSoC5/LED_Driver_Gear.c ****         if(row < 8u)
 519              		.loc 1 700 0
 520 0004 0728     		cmp	r0, #7
 521 0006 05D8     		bhi	.L49
 522              	.LVL64:
 701:.\Generated_Source\PSoC5/LED_Driver_Gear.c ****         {
 702:.\Generated_Source\PSoC5/LED_Driver_Gear.c ****             rowSeg = row;
 703:.\Generated_Source\PSoC5/LED_Driver_Gear.c ****             LED_Driver_Gear_segLBuffer[column] ^= ((uint8)((uint8)0x01u << rowSeg));
 523              		.loc 1 703 0
 524 0008 0122     		movs	r2, #1
 525 000a 8240     		lsls	r2, r2, r0
 526 000c 0248     		ldr	r0, .L51
 527              	.LVL65:
 528 000e 415C     		ldrb	r1, [r0, r1]	@ zero_extendqisi2
 529              	.LVL66:
 530 0010 4A40     		eors	r2, r2, r1
 531 0012 C254     		strb	r2, [r0, r3]
 532              	.LVL67:
 533              	.L49:
 534 0014 7047     		bx	lr
 535              	.L52:
 536 0016 00BF     		.align	2
 537              	.L51:
ARM GAS  C:\Users\charl\AppData\Local\Temp\ccrxE5Zl.s 			page 23


 538 0018 00000000 		.word	LED_Driver_Gear_segLBuffer
 539              		.cfi_endproc
 540              	.LFE10:
 541              		.size	LED_Driver_Gear_ToggleRC, .-LED_Driver_Gear_ToggleRC
 542              		.section	.text.LED_Driver_Gear_GetRC,"ax",%progbits
 543              		.align	2
 544              		.global	LED_Driver_Gear_GetRC
 545              		.thumb
 546              		.thumb_func
 547              		.type	LED_Driver_Gear_GetRC, %function
 548              	LED_Driver_Gear_GetRC:
 549              	.LFB11:
 704:.\Generated_Source\PSoC5/LED_Driver_Gear.c ****         }    
 705:.\Generated_Source\PSoC5/LED_Driver_Gear.c ****         else if (row < 16u)
 706:.\Generated_Source\PSoC5/LED_Driver_Gear.c ****         {
 707:.\Generated_Source\PSoC5/LED_Driver_Gear.c ****             #if (LED_Driver_Gear_NUM_SEG > 8u)
 708:.\Generated_Source\PSoC5/LED_Driver_Gear.c ****                 rowSeg = row - 8u;
 709:.\Generated_Source\PSoC5/LED_Driver_Gear.c ****                 LED_Driver_Gear_segMBuffer[column] ^= ((uint8)((uint8)0x01u << rowSeg));
 710:.\Generated_Source\PSoC5/LED_Driver_Gear.c ****             #endif /* (LED_Driver_Gear_NUM_SEG > 8u) */
 711:.\Generated_Source\PSoC5/LED_Driver_Gear.c ****         } 
 712:.\Generated_Source\PSoC5/LED_Driver_Gear.c ****         else
 713:.\Generated_Source\PSoC5/LED_Driver_Gear.c ****         {
 714:.\Generated_Source\PSoC5/LED_Driver_Gear.c ****             #if (LED_Driver_Gear_NUM_SEG > 16u)
 715:.\Generated_Source\PSoC5/LED_Driver_Gear.c ****                 rowSeg = row - 16u;
 716:.\Generated_Source\PSoC5/LED_Driver_Gear.c ****                 LED_Driver_Gear_segHBuffer[column] ^= ((uint8)((uint8)0x01u << rowSeg));
 717:.\Generated_Source\PSoC5/LED_Driver_Gear.c ****             #endif /* (LED_Driver_Gear_NUM_SEG > 16u) */
 718:.\Generated_Source\PSoC5/LED_Driver_Gear.c ****         }
 719:.\Generated_Source\PSoC5/LED_Driver_Gear.c ****     }
 720:.\Generated_Source\PSoC5/LED_Driver_Gear.c **** }
 721:.\Generated_Source\PSoC5/LED_Driver_Gear.c **** 
 722:.\Generated_Source\PSoC5/LED_Driver_Gear.c **** 
 723:.\Generated_Source\PSoC5/LED_Driver_Gear.c **** /*******************************************************************************
 724:.\Generated_Source\PSoC5/LED_Driver_Gear.c **** * Function Name: LED_Driver_Gear_GetRC
 725:.\Generated_Source\PSoC5/LED_Driver_Gear.c **** ********************************************************************************
 726:.\Generated_Source\PSoC5/LED_Driver_Gear.c **** *
 727:.\Generated_Source\PSoC5/LED_Driver_Gear.c **** * Summary:
 728:.\Generated_Source\PSoC5/LED_Driver_Gear.c **** *  Returns the bit value in the display RAM corresponding to the LED in the
 729:.\Generated_Source\PSoC5/LED_Driver_Gear.c **** *  designated row and column.
 730:.\Generated_Source\PSoC5/LED_Driver_Gear.c **** *
 731:.\Generated_Source\PSoC5/LED_Driver_Gear.c **** * Parameters:
 732:.\Generated_Source\PSoC5/LED_Driver_Gear.c **** *  uint8 row: Row value 0 to 23.
 733:.\Generated_Source\PSoC5/LED_Driver_Gear.c **** *  uint8 col: Column between 0 and 7.
 734:.\Generated_Source\PSoC5/LED_Driver_Gear.c **** *
 735:.\Generated_Source\PSoC5/LED_Driver_Gear.c **** * Return:
 736:.\Generated_Source\PSoC5/LED_Driver_Gear.c **** *  uint8 - bit value of the display RAM at the corresponding row and column. 
 737:.\Generated_Source\PSoC5/LED_Driver_Gear.c **** *
 738:.\Generated_Source\PSoC5/LED_Driver_Gear.c **** * Side effects:
 739:.\Generated_Source\PSoC5/LED_Driver_Gear.c **** *  None
 740:.\Generated_Source\PSoC5/LED_Driver_Gear.c **** *
 741:.\Generated_Source\PSoC5/LED_Driver_Gear.c **** *******************************************************************************/
 742:.\Generated_Source\PSoC5/LED_Driver_Gear.c **** uint8 LED_Driver_Gear_GetRC(uint8 row, uint8 column) 
 743:.\Generated_Source\PSoC5/LED_Driver_Gear.c **** {
 550              		.loc 1 743 0
 551              		.cfi_startproc
 552              		@ args = 0, pretend = 0, frame = 0
 553              		@ frame_needed = 0, uses_anonymous_args = 0
 554              		@ link register save eliminated.
ARM GAS  C:\Users\charl\AppData\Local\Temp\ccrxE5Zl.s 			page 24


 555              	.LVL68:
 744:.\Generated_Source\PSoC5/LED_Driver_Gear.c ****     uint8 valueRC = 0u;
 745:.\Generated_Source\PSoC5/LED_Driver_Gear.c ****     uint8 rowSeg;
 746:.\Generated_Source\PSoC5/LED_Driver_Gear.c ****     uint8 rowSegSelect = 0u;
 747:.\Generated_Source\PSoC5/LED_Driver_Gear.c ****     
 748:.\Generated_Source\PSoC5/LED_Driver_Gear.c ****     if(column < LED_Driver_Gear_NUM_COM)
 556              		.loc 1 748 0
 557 0000 59B9     		cbnz	r1, .L56
 749:.\Generated_Source\PSoC5/LED_Driver_Gear.c ****     {
 750:.\Generated_Source\PSoC5/LED_Driver_Gear.c ****         if(row < 8u)
 558              		.loc 1 750 0
 559 0002 0728     		cmp	r0, #7
 560 0004 05D8     		bhi	.L57
 561              	.LVL69:
 751:.\Generated_Source\PSoC5/LED_Driver_Gear.c ****         {
 752:.\Generated_Source\PSoC5/LED_Driver_Gear.c ****             rowSeg = row;
 753:.\Generated_Source\PSoC5/LED_Driver_Gear.c ****             rowSegSelect = (uint8)((uint8)LED_Driver_Gear_segLBuffer[column] >> rowSeg);
 562              		.loc 1 753 0
 563 0006 064A     		ldr	r2, .L58
 564 0008 535C     		ldrb	r3, [r2, r1]	@ zero_extendqisi2
 565 000a 43FA00F0 		asr	r0, r3, r0
 566              	.LVL70:
 567 000e C0B2     		uxtb	r0, r0
 568              	.LVL71:
 569 0010 00E0     		b	.L55
 570              	.LVL72:
 571              	.L57:
 746:.\Generated_Source\PSoC5/LED_Driver_Gear.c ****     
 572              		.loc 1 746 0
 573 0012 0020     		movs	r0, #0
 574              	.LVL73:
 575              	.L55:
 754:.\Generated_Source\PSoC5/LED_Driver_Gear.c ****         }    
 755:.\Generated_Source\PSoC5/LED_Driver_Gear.c ****         else if (row < 16u)
 756:.\Generated_Source\PSoC5/LED_Driver_Gear.c ****         {
 757:.\Generated_Source\PSoC5/LED_Driver_Gear.c ****             #if (LED_Driver_Gear_NUM_SEG > 8u) 
 758:.\Generated_Source\PSoC5/LED_Driver_Gear.c ****                 rowSeg = row - 8u;
 759:.\Generated_Source\PSoC5/LED_Driver_Gear.c ****                 rowSegSelect = (uint8)((uint8)LED_Driver_Gear_segMBuffer[column] >> rowSeg);
 760:.\Generated_Source\PSoC5/LED_Driver_Gear.c ****             #endif /* (LED_Driver_Gear_NUM_SEG > 8u) */
 761:.\Generated_Source\PSoC5/LED_Driver_Gear.c ****         }
 762:.\Generated_Source\PSoC5/LED_Driver_Gear.c ****         else
 763:.\Generated_Source\PSoC5/LED_Driver_Gear.c ****         {
 764:.\Generated_Source\PSoC5/LED_Driver_Gear.c ****             #if (LED_Driver_Gear_NUM_SEG > 16u)
 765:.\Generated_Source\PSoC5/LED_Driver_Gear.c ****                 rowSeg = row - 16u;
 766:.\Generated_Source\PSoC5/LED_Driver_Gear.c ****                 rowSegSelect = (uint8)((uint8)LED_Driver_Gear_segHBuffer[column] >> rowSeg);
 767:.\Generated_Source\PSoC5/LED_Driver_Gear.c ****             #endif /* (LED_Driver_Gear_NUM_SEG > 16u) */
 768:.\Generated_Source\PSoC5/LED_Driver_Gear.c ****         }
 769:.\Generated_Source\PSoC5/LED_Driver_Gear.c ****         
 770:.\Generated_Source\PSoC5/LED_Driver_Gear.c ****         #if(LED_Driver_Gear_SEG_DRIVE == LED_Driver_Gear_HIGH)
 771:.\Generated_Source\PSoC5/LED_Driver_Gear.c ****             valueRC = (uint8)((uint8)rowSegSelect & 0x01u);
 576              		.loc 1 771 0
 577 0014 00F00100 		and	r0, r0, #1
 578              	.LVL74:
 579 0018 7047     		bx	lr
 580              	.LVL75:
 581              	.L56:
 744:.\Generated_Source\PSoC5/LED_Driver_Gear.c ****     uint8 rowSeg;
ARM GAS  C:\Users\charl\AppData\Local\Temp\ccrxE5Zl.s 			page 25


 582              		.loc 1 744 0
 583 001a 0020     		movs	r0, #0
 584              	.LVL76:
 772:.\Generated_Source\PSoC5/LED_Driver_Gear.c ****         #else
 773:.\Generated_Source\PSoC5/LED_Driver_Gear.c ****             valueRC = (uint8)((uint8)((uint8)~rowSegSelect) & 0x01u);
 774:.\Generated_Source\PSoC5/LED_Driver_Gear.c ****         #endif /* LED_Driver_Gear_SEG_DRIVE == LED_Driver_Gear_HIGH */
 775:.\Generated_Source\PSoC5/LED_Driver_Gear.c ****     }
 776:.\Generated_Source\PSoC5/LED_Driver_Gear.c ****     
 777:.\Generated_Source\PSoC5/LED_Driver_Gear.c ****     return(valueRC);
 778:.\Generated_Source\PSoC5/LED_Driver_Gear.c **** }
 585              		.loc 1 778 0
 586 001c 7047     		bx	lr
 587              	.L59:
 588 001e 00BF     		.align	2
 589              	.L58:
 590 0020 00000000 		.word	LED_Driver_Gear_segLBuffer
 591              		.cfi_endproc
 592              	.LFE11:
 593              		.size	LED_Driver_Gear_GetRC, .-LED_Driver_Gear_GetRC
 594              		.section	.text.LED_Driver_Gear_ClearDisplay,"ax",%progbits
 595              		.align	2
 596              		.global	LED_Driver_Gear_ClearDisplay
 597              		.thumb
 598              		.thumb_func
 599              		.type	LED_Driver_Gear_ClearDisplay, %function
 600              	LED_Driver_Gear_ClearDisplay:
 601              	.LFB12:
 779:.\Generated_Source\PSoC5/LED_Driver_Gear.c **** 
 780:.\Generated_Source\PSoC5/LED_Driver_Gear.c **** 
 781:.\Generated_Source\PSoC5/LED_Driver_Gear.c **** /*******************************************************************************
 782:.\Generated_Source\PSoC5/LED_Driver_Gear.c **** * Function Name: LED_Driver_Gear_ClearDisplay
 783:.\Generated_Source\PSoC5/LED_Driver_Gear.c **** ********************************************************************************
 784:.\Generated_Source\PSoC5/LED_Driver_Gear.c **** *
 785:.\Generated_Source\PSoC5/LED_Driver_Gear.c **** * Summary:
 786:.\Generated_Source\PSoC5/LED_Driver_Gear.c **** *  Clears the display (disables all the LEDs) for the associated position by
 787:.\Generated_Source\PSoC5/LED_Driver_Gear.c **** *  setting the display RAM to zero.
 788:.\Generated_Source\PSoC5/LED_Driver_Gear.c **** *
 789:.\Generated_Source\PSoC5/LED_Driver_Gear.c **** * Parameters:
 790:.\Generated_Source\PSoC5/LED_Driver_Gear.c **** *  uint8 position: The digit position to clear.
 791:.\Generated_Source\PSoC5/LED_Driver_Gear.c **** *
 792:.\Generated_Source\PSoC5/LED_Driver_Gear.c **** * Return:
 793:.\Generated_Source\PSoC5/LED_Driver_Gear.c **** *  None
 794:.\Generated_Source\PSoC5/LED_Driver_Gear.c **** *
 795:.\Generated_Source\PSoC5/LED_Driver_Gear.c **** * Side effects:
 796:.\Generated_Source\PSoC5/LED_Driver_Gear.c **** *  None
 797:.\Generated_Source\PSoC5/LED_Driver_Gear.c **** *
 798:.\Generated_Source\PSoC5/LED_Driver_Gear.c **** *******************************************************************************/
 799:.\Generated_Source\PSoC5/LED_Driver_Gear.c **** void LED_Driver_Gear_ClearDisplay(uint8 position) 
 800:.\Generated_Source\PSoC5/LED_Driver_Gear.c **** {  
 602              		.loc 1 800 0
 603              		.cfi_startproc
 604              		@ args = 0, pretend = 0, frame = 0
 605              		@ frame_needed = 0, uses_anonymous_args = 0
 606              		@ link register save eliminated.
 607              	.LVL77:
 801:.\Generated_Source\PSoC5/LED_Driver_Gear.c ****     uint8 relPosition;
 802:.\Generated_Source\PSoC5/LED_Driver_Gear.c ****     
ARM GAS  C:\Users\charl\AppData\Local\Temp\ccrxE5Zl.s 			page 26


 803:.\Generated_Source\PSoC5/LED_Driver_Gear.c ****     if(position < LED_Driver_Gear_NUM_COM)
 608              		.loc 1 803 0
 609 0000 10B9     		cbnz	r0, .L60
 610              	.LVL78:
 804:.\Generated_Source\PSoC5/LED_Driver_Gear.c ****     {
 805:.\Generated_Source\PSoC5/LED_Driver_Gear.c ****         relPosition = position;
 806:.\Generated_Source\PSoC5/LED_Driver_Gear.c ****         LED_Driver_Gear_segLBuffer[relPosition] = LED_Driver_Gear_CLEAR;
 611              		.loc 1 806 0
 612 0002 0021     		movs	r1, #0
 613 0004 014A     		ldr	r2, .L62
 614 0006 1154     		strb	r1, [r2, r0]
 615              	.LVL79:
 616              	.L60:
 617 0008 7047     		bx	lr
 618              	.L63:
 619 000a 00BF     		.align	2
 620              	.L62:
 621 000c 00000000 		.word	LED_Driver_Gear_segLBuffer
 622              		.cfi_endproc
 623              	.LFE12:
 624              		.size	LED_Driver_Gear_ClearDisplay, .-LED_Driver_Gear_ClearDisplay
 625              		.section	.text.LED_Driver_Gear_ClearDisplayAll,"ax",%progbits
 626              		.align	2
 627              		.global	LED_Driver_Gear_ClearDisplayAll
 628              		.thumb
 629              		.thumb_func
 630              		.type	LED_Driver_Gear_ClearDisplayAll, %function
 631              	LED_Driver_Gear_ClearDisplayAll:
 632              	.LFB13:
 807:.\Generated_Source\PSoC5/LED_Driver_Gear.c ****     }    
 808:.\Generated_Source\PSoC5/LED_Driver_Gear.c ****     else if (position < LED_Driver_Gear_TWO_NUM_COM)
 809:.\Generated_Source\PSoC5/LED_Driver_Gear.c ****     {
 810:.\Generated_Source\PSoC5/LED_Driver_Gear.c ****         #if (LED_Driver_Gear_NUM_SEG > 8u)
 811:.\Generated_Source\PSoC5/LED_Driver_Gear.c ****             relPosition = position - LED_Driver_Gear_NUM_COM;
 812:.\Generated_Source\PSoC5/LED_Driver_Gear.c ****             LED_Driver_Gear_segMBuffer[relPosition] = LED_Driver_Gear_CLEAR;
 813:.\Generated_Source\PSoC5/LED_Driver_Gear.c ****         #endif /* (LED_Driver_Gear_NUM_SEG > 8u) */
 814:.\Generated_Source\PSoC5/LED_Driver_Gear.c ****     }
 815:.\Generated_Source\PSoC5/LED_Driver_Gear.c ****     else
 816:.\Generated_Source\PSoC5/LED_Driver_Gear.c ****     {
 817:.\Generated_Source\PSoC5/LED_Driver_Gear.c ****         #if (LED_Driver_Gear_NUM_SEG > 16u)
 818:.\Generated_Source\PSoC5/LED_Driver_Gear.c ****             relPosition = position - LED_Driver_Gear_TWO_NUM_COM;
 819:.\Generated_Source\PSoC5/LED_Driver_Gear.c ****             if(relPosition < LED_Driver_Gear_NUM_COM)
 820:.\Generated_Source\PSoC5/LED_Driver_Gear.c ****             {
 821:.\Generated_Source\PSoC5/LED_Driver_Gear.c ****                 LED_Driver_Gear_segHBuffer[relPosition] = LED_Driver_Gear_CLEAR;
 822:.\Generated_Source\PSoC5/LED_Driver_Gear.c ****             }
 823:.\Generated_Source\PSoC5/LED_Driver_Gear.c ****         #endif /* (LED_Driver_Gear_NUM_SEG > 16u) */
 824:.\Generated_Source\PSoC5/LED_Driver_Gear.c ****     }
 825:.\Generated_Source\PSoC5/LED_Driver_Gear.c **** }
 826:.\Generated_Source\PSoC5/LED_Driver_Gear.c **** 
 827:.\Generated_Source\PSoC5/LED_Driver_Gear.c **** 
 828:.\Generated_Source\PSoC5/LED_Driver_Gear.c **** /*******************************************************************************
 829:.\Generated_Source\PSoC5/LED_Driver_Gear.c **** * Function Name: LED_Driver_Gear_ClearDisplayAll
 830:.\Generated_Source\PSoC5/LED_Driver_Gear.c **** ********************************************************************************
 831:.\Generated_Source\PSoC5/LED_Driver_Gear.c **** *
 832:.\Generated_Source\PSoC5/LED_Driver_Gear.c **** * Summary:
 833:.\Generated_Source\PSoC5/LED_Driver_Gear.c **** *  Clears the entire display by writing zeros to all the display RAM locations.
 834:.\Generated_Source\PSoC5/LED_Driver_Gear.c **** *
ARM GAS  C:\Users\charl\AppData\Local\Temp\ccrxE5Zl.s 			page 27


 835:.\Generated_Source\PSoC5/LED_Driver_Gear.c **** * Parameters:
 836:.\Generated_Source\PSoC5/LED_Driver_Gear.c **** *  None
 837:.\Generated_Source\PSoC5/LED_Driver_Gear.c **** *
 838:.\Generated_Source\PSoC5/LED_Driver_Gear.c **** * Return:
 839:.\Generated_Source\PSoC5/LED_Driver_Gear.c **** *  None
 840:.\Generated_Source\PSoC5/LED_Driver_Gear.c **** *
 841:.\Generated_Source\PSoC5/LED_Driver_Gear.c **** * Side effects:
 842:.\Generated_Source\PSoC5/LED_Driver_Gear.c **** *  None
 843:.\Generated_Source\PSoC5/LED_Driver_Gear.c **** *
 844:.\Generated_Source\PSoC5/LED_Driver_Gear.c **** *******************************************************************************/
 845:.\Generated_Source\PSoC5/LED_Driver_Gear.c **** void LED_Driver_Gear_ClearDisplayAll(void) 
 846:.\Generated_Source\PSoC5/LED_Driver_Gear.c **** {
 633              		.loc 1 846 0
 634              		.cfi_startproc
 635              		@ args = 0, pretend = 0, frame = 0
 636              		@ frame_needed = 0, uses_anonymous_args = 0
 637              		@ link register save eliminated.
 638              	.LVL80:
 847:.\Generated_Source\PSoC5/LED_Driver_Gear.c ****     uint8 position;
 848:.\Generated_Source\PSoC5/LED_Driver_Gear.c ****     
 849:.\Generated_Source\PSoC5/LED_Driver_Gear.c ****     for(position = 0u; position < LED_Driver_Gear_NUM_COM; position++)
 639              		.loc 1 849 0
 640 0000 0023     		movs	r3, #0
 641 0002 04E0     		b	.L65
 642              	.LVL81:
 643              	.L66:
 850:.\Generated_Source\PSoC5/LED_Driver_Gear.c ****     {
 851:.\Generated_Source\PSoC5/LED_Driver_Gear.c ****         LED_Driver_Gear_segLBuffer[position] = LED_Driver_Gear_CLEAR; 
 644              		.loc 1 851 0 discriminator 3
 645 0004 0021     		movs	r1, #0
 646 0006 034A     		ldr	r2, .L67
 647 0008 D154     		strb	r1, [r2, r3]
 849:.\Generated_Source\PSoC5/LED_Driver_Gear.c ****     {
 648              		.loc 1 849 0 discriminator 3
 649 000a 0133     		adds	r3, r3, #1
 650              	.LVL82:
 651 000c DBB2     		uxtb	r3, r3
 652              	.LVL83:
 653              	.L65:
 849:.\Generated_Source\PSoC5/LED_Driver_Gear.c ****     {
 654              		.loc 1 849 0 is_stmt 0 discriminator 1
 655 000e 002B     		cmp	r3, #0
 656 0010 F8D0     		beq	.L66
 852:.\Generated_Source\PSoC5/LED_Driver_Gear.c ****         
 853:.\Generated_Source\PSoC5/LED_Driver_Gear.c ****         #if (LED_Driver_Gear_NUM_SEG > 8u) 
 854:.\Generated_Source\PSoC5/LED_Driver_Gear.c ****             LED_Driver_Gear_segMBuffer[position] = LED_Driver_Gear_CLEAR;
 855:.\Generated_Source\PSoC5/LED_Driver_Gear.c ****         #endif /* (LED_Driver_Gear_NUM_SEG > 8u) */
 856:.\Generated_Source\PSoC5/LED_Driver_Gear.c ****         
 857:.\Generated_Source\PSoC5/LED_Driver_Gear.c ****         #if (LED_Driver_Gear_NUM_SEG > 16u)
 858:.\Generated_Source\PSoC5/LED_Driver_Gear.c ****             LED_Driver_Gear_segHBuffer[position] = LED_Driver_Gear_CLEAR;
 859:.\Generated_Source\PSoC5/LED_Driver_Gear.c ****         #endif /* (LED_Driver_Gear_NUM_SEG > 16u) */
 860:.\Generated_Source\PSoC5/LED_Driver_Gear.c ****     }
 861:.\Generated_Source\PSoC5/LED_Driver_Gear.c **** }
 657              		.loc 1 861 0 is_stmt 1
 658 0012 7047     		bx	lr
 659              	.L68:
 660              		.align	2
ARM GAS  C:\Users\charl\AppData\Local\Temp\ccrxE5Zl.s 			page 28


 661              	.L67:
 662 0014 00000000 		.word	LED_Driver_Gear_segLBuffer
 663              		.cfi_endproc
 664              	.LFE13:
 665              		.size	LED_Driver_Gear_ClearDisplayAll, .-LED_Driver_Gear_ClearDisplayAll
 666              		.section	.text.LED_Driver_Gear_Init,"ax",%progbits
 667              		.align	2
 668              		.global	LED_Driver_Gear_Init
 669              		.thumb
 670              		.thumb_func
 671              		.type	LED_Driver_Gear_Init, %function
 672              	LED_Driver_Gear_Init:
 673              	.LFB3:
 363:.\Generated_Source\PSoC5/LED_Driver_Gear.c ****     static uint8 LED_Driver_Gear_dmaInitDone = 0u;
 674              		.loc 1 363 0
 675              		.cfi_startproc
 676              		@ args = 0, pretend = 0, frame = 0
 677              		@ frame_needed = 0, uses_anonymous_args = 0
 678 0000 08B5     		push	{r3, lr}
 679              		.cfi_def_cfa_offset 8
 680              		.cfi_offset 3, -8
 681              		.cfi_offset 14, -4
 370:.\Generated_Source\PSoC5/LED_Driver_Gear.c ****     
 682              		.loc 1 370 0
 683 0002 FFF7FEFF 		bl	LED_Driver_Gear_ClearDisplayAll
 684              	.LVL84:
 373:.\Generated_Source\PSoC5/LED_Driver_Gear.c ****     {
 685              		.loc 1 373 0
 686 0006 044B     		ldr	r3, .L72
 687 0008 9B7A     		ldrb	r3, [r3, #10]	@ zero_extendqisi2
 688 000a 23B9     		cbnz	r3, .L69
 375:.\Generated_Source\PSoC5/LED_Driver_Gear.c ****         LED_Driver_Gear_dmaInitDone = 1u;
 689              		.loc 1 375 0
 690 000c FFF7FEFF 		bl	LED_Driver_Gear_DmaInit
 691              	.LVL85:
 376:.\Generated_Source\PSoC5/LED_Driver_Gear.c ****     }
 692              		.loc 1 376 0
 693 0010 0122     		movs	r2, #1
 694 0012 014B     		ldr	r3, .L72
 695 0014 9A72     		strb	r2, [r3, #10]
 696              	.L69:
 697 0016 08BD     		pop	{r3, pc}
 698              	.L73:
 699              		.align	2
 700              	.L72:
 701 0018 00000000 		.word	.LANCHOR0
 702              		.cfi_endproc
 703              	.LFE3:
 704              		.size	LED_Driver_Gear_Init, .-LED_Driver_Gear_Init
 705              		.section	.text.LED_Driver_Gear_Start,"ax",%progbits
 706              		.align	2
 707              		.global	LED_Driver_Gear_Start
 708              		.thumb
 709              		.thumb_func
 710              		.type	LED_Driver_Gear_Start, %function
 711              	LED_Driver_Gear_Start:
 712              	.LFB5:
ARM GAS  C:\Users\charl\AppData\Local\Temp\ccrxE5Zl.s 			page 29


 445:.\Generated_Source\PSoC5/LED_Driver_Gear.c ****     if(0u == LED_Driver_Gear_initVar)
 713              		.loc 1 445 0
 714              		.cfi_startproc
 715              		@ args = 0, pretend = 0, frame = 0
 716              		@ frame_needed = 0, uses_anonymous_args = 0
 717 0000 08B5     		push	{r3, lr}
 718              		.cfi_def_cfa_offset 8
 719              		.cfi_offset 3, -8
 720              		.cfi_offset 14, -4
 446:.\Generated_Source\PSoC5/LED_Driver_Gear.c ****     {
 721              		.loc 1 446 0
 722 0002 054B     		ldr	r3, .L77
 723 0004 DB7A     		ldrb	r3, [r3, #11]	@ zero_extendqisi2
 724 0006 23B9     		cbnz	r3, .L75
 448:.\Generated_Source\PSoC5/LED_Driver_Gear.c ****         LED_Driver_Gear_initVar = 1u;
 725              		.loc 1 448 0
 726 0008 FFF7FEFF 		bl	LED_Driver_Gear_Init
 727              	.LVL86:
 449:.\Generated_Source\PSoC5/LED_Driver_Gear.c ****     }
 728              		.loc 1 449 0
 729 000c 0122     		movs	r2, #1
 730 000e 024B     		ldr	r3, .L77
 731 0010 DA72     		strb	r2, [r3, #11]
 732              	.L75:
 452:.\Generated_Source\PSoC5/LED_Driver_Gear.c **** }
 733              		.loc 1 452 0
 734 0012 FFF7FEFF 		bl	LED_Driver_Gear_Enable
 735              	.LVL87:
 736 0016 08BD     		pop	{r3, pc}
 737              	.L78:
 738              		.align	2
 739              	.L77:
 740 0018 00000000 		.word	.LANCHOR0
 741              		.cfi_endproc
 742              	.LFE5:
 743              		.size	LED_Driver_Gear_Start, .-LED_Driver_Gear_Start
 744              		.section	.text.LED_Driver_Gear_Stop,"ax",%progbits
 745              		.align	2
 746              		.global	LED_Driver_Gear_Stop
 747              		.thumb
 748              		.thumb_func
 749              		.type	LED_Driver_Gear_Stop, %function
 750              	LED_Driver_Gear_Stop:
 751              	.LFB6:
 475:.\Generated_Source\PSoC5/LED_Driver_Gear.c ****     #if (LED_Driver_Gear_BRIGHTNESS_EN == LED_Driver_Gear_ENABLED)
 752              		.loc 1 475 0
 753              		.cfi_startproc
 754              		@ args = 0, pretend = 0, frame = 0
 755              		@ frame_needed = 0, uses_anonymous_args = 0
 756 0000 08B5     		push	{r3, lr}
 757              		.cfi_def_cfa_offset 8
 758              		.cfi_offset 3, -8
 759              		.cfi_offset 14, -4
 481:.\Generated_Source\PSoC5/LED_Driver_Gear.c ****     LED_Driver_Gear_ClearDisplayAll();
 760              		.loc 1 481 0
 761 0002 FFF7FEFF 		bl	LED_Driver_Gear_DmaDisable
 762              	.LVL88:
ARM GAS  C:\Users\charl\AppData\Local\Temp\ccrxE5Zl.s 			page 30


 482:.\Generated_Source\PSoC5/LED_Driver_Gear.c ****     
 763              		.loc 1 482 0
 764 0006 FFF7FEFF 		bl	LED_Driver_Gear_ClearDisplayAll
 765              	.LVL89:
 484:.\Generated_Source\PSoC5/LED_Driver_Gear.c **** }
 766              		.loc 1 484 0
 767 000a 0022     		movs	r2, #0
 768 000c 014B     		ldr	r3, .L81
 769 000e 5A72     		strb	r2, [r3, #9]
 770 0010 08BD     		pop	{r3, pc}
 771              	.L82:
 772 0012 00BF     		.align	2
 773              	.L81:
 774 0014 00000000 		.word	.LANCHOR0
 775              		.cfi_endproc
 776              	.LFE6:
 777              		.size	LED_Driver_Gear_Stop, .-LED_Driver_Gear_Stop
 778              		.section	.text.LED_Driver_Gear_PutDecimalPoint,"ax",%progbits
 779              		.align	2
 780              		.global	LED_Driver_Gear_PutDecimalPoint
 781              		.thumb
 782              		.thumb_func
 783              		.type	LED_Driver_Gear_PutDecimalPoint, %function
 784              	LED_Driver_Gear_PutDecimalPoint:
 785              	.LFB32:
 862:.\Generated_Source\PSoC5/LED_Driver_Gear.c **** 
 863:.\Generated_Source\PSoC5/LED_Driver_Gear.c **** 
 864:.\Generated_Source\PSoC5/LED_Driver_Gear.c **** /*******************************************************************************
 865:.\Generated_Source\PSoC5/LED_Driver_Gear.c **** * Function Name: LED_Driver_Gear_Write7SegNumberDec
 866:.\Generated_Source\PSoC5/LED_Driver_Gear.c **** ********************************************************************************
 867:.\Generated_Source\PSoC5/LED_Driver_Gear.c **** *
 868:.\Generated_Source\PSoC5/LED_Driver_Gear.c **** * Summary:
 869:.\Generated_Source\PSoC5/LED_Driver_Gear.c **** *  Displays a signed integer up to 8 characters long, starting at 'position' 
 870:.\Generated_Source\PSoC5/LED_Driver_Gear.c **** *  and extending for 'digits' characters. The negative sign will consume one 
 871:.\Generated_Source\PSoC5/LED_Driver_Gear.c **** *  digit if it is required. If you do not use the correct number of digits for
 872:.\Generated_Source\PSoC5/LED_Driver_Gear.c **** *  your number, the least significant digits will be displayed. For example, 
 873:.\Generated_Source\PSoC5/LED_Driver_Gear.c **** *  if value is -1234, display is 0 and digits is 4, the result will be: -234.
 874:.\Generated_Source\PSoC5/LED_Driver_Gear.c **** *
 875:.\Generated_Source\PSoC5/LED_Driver_Gear.c **** * Parameters:
 876:.\Generated_Source\PSoC5/LED_Driver_Gear.c **** *  int32 number: a signed integer number to display. It is the responsibility 
 877:.\Generated_Source\PSoC5/LED_Driver_Gear.c **** *                of the user to ensure that the display has enough digits to 
 878:.\Generated_Source\PSoC5/LED_Driver_Gear.c **** *                accurately represent the number passed to this function. If 
 879:.\Generated_Source\PSoC5/LED_Driver_Gear.c **** *                not, the least significant digits will be displayed. Also note
 880:.\Generated_Source\PSoC5/LED_Driver_Gear.c **** *                that a negative number will require 1 more digit than the
 881:.\Generated_Source\PSoC5/LED_Driver_Gear.c **** *                equivalent positive number to display the negative sign.
 882:.\Generated_Source\PSoC5/LED_Driver_Gear.c **** *  uint8 position: Digit position of the Display/Common RAM to start.
 883:.\Generated_Source\PSoC5/LED_Driver_Gear.c **** *  uint8 digits: The number of digits you wish to use to display the value 
 884:.\Generated_Source\PSoC5/LED_Driver_Gear.c **** *                passed into the function. The negative sign will consume one 
 885:.\Generated_Source\PSoC5/LED_Driver_Gear.c **** *                digit if it is required.
 886:.\Generated_Source\PSoC5/LED_Driver_Gear.c **** *  uint8 alignment: How to align the provided number in the allocated digits.
 887:.\Generated_Source\PSoC5/LED_Driver_Gear.c **** *       RIGHT_ALIGN - Least significant digit occupies the rightmost digit
 888:.\Generated_Source\PSoC5/LED_Driver_Gear.c **** *                     (position + digits). Unused digits are turned off unless
 889:.\Generated_Source\PSoC5/LED_Driver_Gear.c **** *                     ZERO_PAD enabled.
 890:.\Generated_Source\PSoC5/LED_Driver_Gear.c **** *       LEFT_ALIGN - Most significant digit (or negative sign) occupies the
 891:.\Generated_Source\PSoC5/LED_Driver_Gear.c **** *                    digit specified by position. Unused digits are turned off.
 892:.\Generated_Source\PSoC5/LED_Driver_Gear.c **** *       ZERO_PAD - Unused digits to the left are padded with leading zeros.
 893:.\Generated_Source\PSoC5/LED_Driver_Gear.c **** *
ARM GAS  C:\Users\charl\AppData\Local\Temp\ccrxE5Zl.s 			page 31


 894:.\Generated_Source\PSoC5/LED_Driver_Gear.c **** * Return:
 895:.\Generated_Source\PSoC5/LED_Driver_Gear.c **** *  None
 896:.\Generated_Source\PSoC5/LED_Driver_Gear.c **** *
 897:.\Generated_Source\PSoC5/LED_Driver_Gear.c **** * Side effects:
 898:.\Generated_Source\PSoC5/LED_Driver_Gear.c **** *  None
 899:.\Generated_Source\PSoC5/LED_Driver_Gear.c **** *
 900:.\Generated_Source\PSoC5/LED_Driver_Gear.c **** *******************************************************************************/
 901:.\Generated_Source\PSoC5/LED_Driver_Gear.c **** void LED_Driver_Gear_Write7SegNumberDec(int32 number, uint8 position, uint8 digits, uint8 alignment
 902:.\Generated_Source\PSoC5/LED_Driver_Gear.c **** 
 903:.\Generated_Source\PSoC5/LED_Driver_Gear.c **** {
 904:.\Generated_Source\PSoC5/LED_Driver_Gear.c ****     uint8 i;
 905:.\Generated_Source\PSoC5/LED_Driver_Gear.c ****     uint8 relPosition;
 906:.\Generated_Source\PSoC5/LED_Driver_Gear.c ****     uint8 choiceReg;
 907:.\Generated_Source\PSoC5/LED_Driver_Gear.c ****     uint8 numberSign;
 908:.\Generated_Source\PSoC5/LED_Driver_Gear.c ****     uint8 selectVal;
 909:.\Generated_Source\PSoC5/LED_Driver_Gear.c ****     uint8 zeroCount = 0u;
 910:.\Generated_Source\PSoC5/LED_Driver_Gear.c ****     uint8 bufArray[8u] = {0u};
 911:.\Generated_Source\PSoC5/LED_Driver_Gear.c ****     uint32 numberVal;
 912:.\Generated_Source\PSoC5/LED_Driver_Gear.c ****         
 913:.\Generated_Source\PSoC5/LED_Driver_Gear.c ****     /* Choose to use either the low, mid or high control registers */
 914:.\Generated_Source\PSoC5/LED_Driver_Gear.c ****     if(position < LED_Driver_Gear_NUM_COM)
 915:.\Generated_Source\PSoC5/LED_Driver_Gear.c ****     {
 916:.\Generated_Source\PSoC5/LED_Driver_Gear.c ****         choiceReg = LED_Driver_Gear_SEG_REG_LOW;
 917:.\Generated_Source\PSoC5/LED_Driver_Gear.c ****         relPosition = position;
 918:.\Generated_Source\PSoC5/LED_Driver_Gear.c ****     }
 919:.\Generated_Source\PSoC5/LED_Driver_Gear.c ****     else if (position < LED_Driver_Gear_TWO_NUM_COM)
 920:.\Generated_Source\PSoC5/LED_Driver_Gear.c ****     {
 921:.\Generated_Source\PSoC5/LED_Driver_Gear.c ****         choiceReg = LED_Driver_Gear_SEG_REG_MID;
 922:.\Generated_Source\PSoC5/LED_Driver_Gear.c ****         relPosition = position - LED_Driver_Gear_NUM_COM;
 923:.\Generated_Source\PSoC5/LED_Driver_Gear.c ****     }
 924:.\Generated_Source\PSoC5/LED_Driver_Gear.c ****     else
 925:.\Generated_Source\PSoC5/LED_Driver_Gear.c ****     {
 926:.\Generated_Source\PSoC5/LED_Driver_Gear.c ****         choiceReg = LED_Driver_Gear_SEG_REG_HIGH;
 927:.\Generated_Source\PSoC5/LED_Driver_Gear.c ****         relPosition = position - LED_Driver_Gear_TWO_NUM_COM;
 928:.\Generated_Source\PSoC5/LED_Driver_Gear.c ****     }
 929:.\Generated_Source\PSoC5/LED_Driver_Gear.c ****     
 930:.\Generated_Source\PSoC5/LED_Driver_Gear.c ****     /* Routine to extract the sign and to convert to unsigned */
 931:.\Generated_Source\PSoC5/LED_Driver_Gear.c ****     if(number >= LED_Driver_Gear_ZERO_NEG)
 932:.\Generated_Source\PSoC5/LED_Driver_Gear.c ****     {
 933:.\Generated_Source\PSoC5/LED_Driver_Gear.c ****         numberVal = (uint32)number;
 934:.\Generated_Source\PSoC5/LED_Driver_Gear.c ****         numberSign = LED_Driver_Gear_UNSIGNED;
 935:.\Generated_Source\PSoC5/LED_Driver_Gear.c ****     }
 936:.\Generated_Source\PSoC5/LED_Driver_Gear.c ****     else
 937:.\Generated_Source\PSoC5/LED_Driver_Gear.c ****     {
 938:.\Generated_Source\PSoC5/LED_Driver_Gear.c ****         numberVal = (uint32)(-number);
 939:.\Generated_Source\PSoC5/LED_Driver_Gear.c ****         numberSign = LED_Driver_Gear_SIGNED;
 940:.\Generated_Source\PSoC5/LED_Driver_Gear.c ****     }
 941:.\Generated_Source\PSoC5/LED_Driver_Gear.c ****     
 942:.\Generated_Source\PSoC5/LED_Driver_Gear.c ****     /* Fill up the temporary array */
 943:.\Generated_Source\PSoC5/LED_Driver_Gear.c ****     for(i = digits; i > 0u; i--)
 944:.\Generated_Source\PSoC5/LED_Driver_Gear.c ****     {
 945:.\Generated_Source\PSoC5/LED_Driver_Gear.c ****         selectVal = (uint8)(numberVal % 10u);
 946:.\Generated_Source\PSoC5/LED_Driver_Gear.c ****         bufArray[i-1u] = LED_Driver_Gear_EncodeNumber7Seg(selectVal);
 947:.\Generated_Source\PSoC5/LED_Driver_Gear.c ****         numberVal = numberVal / 10u;
 948:.\Generated_Source\PSoC5/LED_Driver_Gear.c ****     }
 949:.\Generated_Source\PSoC5/LED_Driver_Gear.c ****     
 950:.\Generated_Source\PSoC5/LED_Driver_Gear.c ****     /* Clean up the array and place sign if needed */
ARM GAS  C:\Users\charl\AppData\Local\Temp\ccrxE5Zl.s 			page 32


 951:.\Generated_Source\PSoC5/LED_Driver_Gear.c ****     if(alignment == LED_Driver_Gear_ZERO_PAD)
 952:.\Generated_Source\PSoC5/LED_Driver_Gear.c ****     {
 953:.\Generated_Source\PSoC5/LED_Driver_Gear.c ****         if(numberSign == LED_Driver_Gear_SIGNED)
 954:.\Generated_Source\PSoC5/LED_Driver_Gear.c ****         {
 955:.\Generated_Source\PSoC5/LED_Driver_Gear.c ****             /* Place sign on the MSB */
 956:.\Generated_Source\PSoC5/LED_Driver_Gear.c ****             bufArray[0u] = LED_Driver_Gear_EncodeChar7Seg('-');
 957:.\Generated_Source\PSoC5/LED_Driver_Gear.c ****         }
 958:.\Generated_Source\PSoC5/LED_Driver_Gear.c ****     }
 959:.\Generated_Source\PSoC5/LED_Driver_Gear.c ****     else
 960:.\Generated_Source\PSoC5/LED_Driver_Gear.c ****     {
 961:.\Generated_Source\PSoC5/LED_Driver_Gear.c ****         for(i = 0u; i < digits; i++)
 962:.\Generated_Source\PSoC5/LED_Driver_Gear.c ****         {
 963:.\Generated_Source\PSoC5/LED_Driver_Gear.c ****             if (bufArray[i] != LED_Driver_Gear_ZERO_7CHAR)
 964:.\Generated_Source\PSoC5/LED_Driver_Gear.c ****             {
 965:.\Generated_Source\PSoC5/LED_Driver_Gear.c ****                 if(numberSign == LED_Driver_Gear_SIGNED)
 966:.\Generated_Source\PSoC5/LED_Driver_Gear.c ****                 {
 967:.\Generated_Source\PSoC5/LED_Driver_Gear.c ****                     if(i == 0u)
 968:.\Generated_Source\PSoC5/LED_Driver_Gear.c ****                     {
 969:.\Generated_Source\PSoC5/LED_Driver_Gear.c ****                         /* Place sign on the MSB */
 970:.\Generated_Source\PSoC5/LED_Driver_Gear.c ****                         bufArray[i] = LED_Driver_Gear_EncodeChar7Seg('-');
 971:.\Generated_Source\PSoC5/LED_Driver_Gear.c ****                     }
 972:.\Generated_Source\PSoC5/LED_Driver_Gear.c ****                     else
 973:.\Generated_Source\PSoC5/LED_Driver_Gear.c ****                     {
 974:.\Generated_Source\PSoC5/LED_Driver_Gear.c ****                         /* Place sign before MSB */
 975:.\Generated_Source\PSoC5/LED_Driver_Gear.c ****                         bufArray[i-1u] = LED_Driver_Gear_EncodeChar7Seg('-');
 976:.\Generated_Source\PSoC5/LED_Driver_Gear.c ****                     }
 977:.\Generated_Source\PSoC5/LED_Driver_Gear.c ****                 }
 978:.\Generated_Source\PSoC5/LED_Driver_Gear.c ****                 /* Exit when encountering non-zero number */
 979:.\Generated_Source\PSoC5/LED_Driver_Gear.c ****                 break;
 980:.\Generated_Source\PSoC5/LED_Driver_Gear.c ****             }
 981:.\Generated_Source\PSoC5/LED_Driver_Gear.c ****             else
 982:.\Generated_Source\PSoC5/LED_Driver_Gear.c ****             {
 983:.\Generated_Source\PSoC5/LED_Driver_Gear.c ****                 if(zeroCount != (digits - 1u))
 984:.\Generated_Source\PSoC5/LED_Driver_Gear.c ****                 {
 985:.\Generated_Source\PSoC5/LED_Driver_Gear.c ****                     /* Turn off the display */
 986:.\Generated_Source\PSoC5/LED_Driver_Gear.c ****                     bufArray[i] = LED_Driver_Gear_CLEAR;
 987:.\Generated_Source\PSoC5/LED_Driver_Gear.c ****                     zeroCount++;
 988:.\Generated_Source\PSoC5/LED_Driver_Gear.c ****                 }
 989:.\Generated_Source\PSoC5/LED_Driver_Gear.c ****             }    
 990:.\Generated_Source\PSoC5/LED_Driver_Gear.c ****         }
 991:.\Generated_Source\PSoC5/LED_Driver_Gear.c ****     }
 992:.\Generated_Source\PSoC5/LED_Driver_Gear.c ****     
 993:.\Generated_Source\PSoC5/LED_Driver_Gear.c ****     /* Place the values in the segment array according to alignment */
 994:.\Generated_Source\PSoC5/LED_Driver_Gear.c ****     if(alignment == LED_Driver_Gear_LEFT_ALIGN)
 995:.\Generated_Source\PSoC5/LED_Driver_Gear.c ****     {
 996:.\Generated_Source\PSoC5/LED_Driver_Gear.c ****         for(i = 0u; i < digits; i++)
 997:.\Generated_Source\PSoC5/LED_Driver_Gear.c ****         {
 998:.\Generated_Source\PSoC5/LED_Driver_Gear.c ****             if(bufArray[i] != LED_Driver_Gear_CLEAR)
 999:.\Generated_Source\PSoC5/LED_Driver_Gear.c ****             {
1000:.\Generated_Source\PSoC5/LED_Driver_Gear.c ****                 if(relPosition < LED_Driver_Gear_NUM_COM)
1001:.\Generated_Source\PSoC5/LED_Driver_Gear.c ****                 {
1002:.\Generated_Source\PSoC5/LED_Driver_Gear.c ****                     /* Only show displays that are not empty */
1003:.\Generated_Source\PSoC5/LED_Driver_Gear.c ****                     switch(choiceReg)
1004:.\Generated_Source\PSoC5/LED_Driver_Gear.c ****                     {
1005:.\Generated_Source\PSoC5/LED_Driver_Gear.c ****                         case LED_Driver_Gear_SEG_REG_LOW :
1006:.\Generated_Source\PSoC5/LED_Driver_Gear.c ****                             LED_Driver_Gear_segLBuffer[relPosition] = bufArray[i];
1007:.\Generated_Source\PSoC5/LED_Driver_Gear.c ****                             break;
ARM GAS  C:\Users\charl\AppData\Local\Temp\ccrxE5Zl.s 			page 33


1008:.\Generated_Source\PSoC5/LED_Driver_Gear.c ****                         case LED_Driver_Gear_SEG_REG_MID :
1009:.\Generated_Source\PSoC5/LED_Driver_Gear.c ****                             #if (LED_Driver_Gear_NUM_SEG > 8u)
1010:.\Generated_Source\PSoC5/LED_Driver_Gear.c ****                                 LED_Driver_Gear_segMBuffer[relPosition] = bufArray[i];
1011:.\Generated_Source\PSoC5/LED_Driver_Gear.c ****                             #endif /* (LED_Driver_Gear_NUM_SEG > 8u) */
1012:.\Generated_Source\PSoC5/LED_Driver_Gear.c ****                             break;
1013:.\Generated_Source\PSoC5/LED_Driver_Gear.c ****                         case LED_Driver_Gear_SEG_REG_HIGH :
1014:.\Generated_Source\PSoC5/LED_Driver_Gear.c ****                             #if (LED_Driver_Gear_NUM_SEG > 16u)
1015:.\Generated_Source\PSoC5/LED_Driver_Gear.c ****                                 LED_Driver_Gear_segHBuffer[relPosition] = bufArray[i];
1016:.\Generated_Source\PSoC5/LED_Driver_Gear.c ****                             #endif /* (LED_Driver_Gear_NUM_SEG > 16u) */
1017:.\Generated_Source\PSoC5/LED_Driver_Gear.c ****                             break;
1018:.\Generated_Source\PSoC5/LED_Driver_Gear.c ****                         default :
1019:.\Generated_Source\PSoC5/LED_Driver_Gear.c ****                             LED_Driver_Gear_segLBuffer[relPosition] = bufArray[i];
1020:.\Generated_Source\PSoC5/LED_Driver_Gear.c ****                             break;
1021:.\Generated_Source\PSoC5/LED_Driver_Gear.c ****                     }
1022:.\Generated_Source\PSoC5/LED_Driver_Gear.c ****                 }
1023:.\Generated_Source\PSoC5/LED_Driver_Gear.c ****                 relPosition++;
1024:.\Generated_Source\PSoC5/LED_Driver_Gear.c ****             }
1025:.\Generated_Source\PSoC5/LED_Driver_Gear.c ****         }
1026:.\Generated_Source\PSoC5/LED_Driver_Gear.c ****         /* Clear the rest of the positions to the right of value */
1027:.\Generated_Source\PSoC5/LED_Driver_Gear.c ****         while(relPosition < digits)
1028:.\Generated_Source\PSoC5/LED_Driver_Gear.c ****         {
1029:.\Generated_Source\PSoC5/LED_Driver_Gear.c ****             switch(choiceReg)
1030:.\Generated_Source\PSoC5/LED_Driver_Gear.c ****             {
1031:.\Generated_Source\PSoC5/LED_Driver_Gear.c ****                 case LED_Driver_Gear_SEG_REG_LOW :
1032:.\Generated_Source\PSoC5/LED_Driver_Gear.c ****                     LED_Driver_Gear_segLBuffer[relPosition] = LED_Driver_Gear_CLEAR;
1033:.\Generated_Source\PSoC5/LED_Driver_Gear.c ****                     break;
1034:.\Generated_Source\PSoC5/LED_Driver_Gear.c ****                 case LED_Driver_Gear_SEG_REG_MID :
1035:.\Generated_Source\PSoC5/LED_Driver_Gear.c ****                     #if (LED_Driver_Gear_NUM_SEG > 8u)
1036:.\Generated_Source\PSoC5/LED_Driver_Gear.c ****                         LED_Driver_Gear_segMBuffer[relPosition] = LED_Driver_Gear_CLEAR;
1037:.\Generated_Source\PSoC5/LED_Driver_Gear.c ****                     #endif /* (LED_Driver_Gear_NUM_SEG > 8u) */
1038:.\Generated_Source\PSoC5/LED_Driver_Gear.c ****                     break;
1039:.\Generated_Source\PSoC5/LED_Driver_Gear.c ****                 case LED_Driver_Gear_SEG_REG_HIGH :
1040:.\Generated_Source\PSoC5/LED_Driver_Gear.c ****                     #if (LED_Driver_Gear_NUM_SEG > 16u)
1041:.\Generated_Source\PSoC5/LED_Driver_Gear.c ****                         LED_Driver_Gear_segHBuffer[relPosition] = LED_Driver_Gear_CLEAR;
1042:.\Generated_Source\PSoC5/LED_Driver_Gear.c ****                     #endif /* (LED_Driver_Gear_NUM_SEG > 16u) */
1043:.\Generated_Source\PSoC5/LED_Driver_Gear.c ****                     break;
1044:.\Generated_Source\PSoC5/LED_Driver_Gear.c ****                 default :
1045:.\Generated_Source\PSoC5/LED_Driver_Gear.c ****                     LED_Driver_Gear_segLBuffer[relPosition] = LED_Driver_Gear_CLEAR;
1046:.\Generated_Source\PSoC5/LED_Driver_Gear.c ****                     break;
1047:.\Generated_Source\PSoC5/LED_Driver_Gear.c ****             }
1048:.\Generated_Source\PSoC5/LED_Driver_Gear.c ****             relPosition++;
1049:.\Generated_Source\PSoC5/LED_Driver_Gear.c ****         }
1050:.\Generated_Source\PSoC5/LED_Driver_Gear.c ****     }
1051:.\Generated_Source\PSoC5/LED_Driver_Gear.c ****     else
1052:.\Generated_Source\PSoC5/LED_Driver_Gear.c ****     {
1053:.\Generated_Source\PSoC5/LED_Driver_Gear.c ****         /* Alignment for Right and zero padded */
1054:.\Generated_Source\PSoC5/LED_Driver_Gear.c ****         for(i = digits; i > 0u; i--)
1055:.\Generated_Source\PSoC5/LED_Driver_Gear.c ****         {
1056:.\Generated_Source\PSoC5/LED_Driver_Gear.c ****             if(((i + relPosition) - 1u) < LED_Driver_Gear_NUM_COM)
1057:.\Generated_Source\PSoC5/LED_Driver_Gear.c ****             {
1058:.\Generated_Source\PSoC5/LED_Driver_Gear.c ****                 /* Decide which row to use */
1059:.\Generated_Source\PSoC5/LED_Driver_Gear.c ****                 switch(choiceReg)
1060:.\Generated_Source\PSoC5/LED_Driver_Gear.c ****                 {
1061:.\Generated_Source\PSoC5/LED_Driver_Gear.c ****                     case LED_Driver_Gear_SEG_REG_LOW :
1062:.\Generated_Source\PSoC5/LED_Driver_Gear.c ****                         LED_Driver_Gear_segLBuffer[(i + relPosition) - 1u] = bufArray[i-1u];
1063:.\Generated_Source\PSoC5/LED_Driver_Gear.c ****                         break;
1064:.\Generated_Source\PSoC5/LED_Driver_Gear.c ****                     case LED_Driver_Gear_SEG_REG_MID :
ARM GAS  C:\Users\charl\AppData\Local\Temp\ccrxE5Zl.s 			page 34


1065:.\Generated_Source\PSoC5/LED_Driver_Gear.c ****                         #if (LED_Driver_Gear_NUM_SEG > 8u)
1066:.\Generated_Source\PSoC5/LED_Driver_Gear.c ****                             LED_Driver_Gear_segMBuffer[(i + relPosition) - 1u] = bufArray[i-1u];
1067:.\Generated_Source\PSoC5/LED_Driver_Gear.c ****                         #endif /* (LED_Driver_Gear_NUM_SEG > 8u) */
1068:.\Generated_Source\PSoC5/LED_Driver_Gear.c ****                         break;
1069:.\Generated_Source\PSoC5/LED_Driver_Gear.c ****                     case LED_Driver_Gear_SEG_REG_HIGH :
1070:.\Generated_Source\PSoC5/LED_Driver_Gear.c ****                         #if (LED_Driver_Gear_NUM_SEG > 16u)
1071:.\Generated_Source\PSoC5/LED_Driver_Gear.c ****                             LED_Driver_Gear_segHBuffer[(i + relPosition) - 1u] = bufArray[i-1u];
1072:.\Generated_Source\PSoC5/LED_Driver_Gear.c ****                         #endif /* (LED_Driver_Gear_NUM_SEG > 16u) */
1073:.\Generated_Source\PSoC5/LED_Driver_Gear.c ****                         break;
1074:.\Generated_Source\PSoC5/LED_Driver_Gear.c ****                     default :
1075:.\Generated_Source\PSoC5/LED_Driver_Gear.c ****                         LED_Driver_Gear_segLBuffer[(i + relPosition) - 1u] = bufArray[i-1u];
1076:.\Generated_Source\PSoC5/LED_Driver_Gear.c ****                         break;
1077:.\Generated_Source\PSoC5/LED_Driver_Gear.c ****                 }
1078:.\Generated_Source\PSoC5/LED_Driver_Gear.c ****             }
1079:.\Generated_Source\PSoC5/LED_Driver_Gear.c ****         }
1080:.\Generated_Source\PSoC5/LED_Driver_Gear.c ****     }
1081:.\Generated_Source\PSoC5/LED_Driver_Gear.c **** }
1082:.\Generated_Source\PSoC5/LED_Driver_Gear.c **** 
1083:.\Generated_Source\PSoC5/LED_Driver_Gear.c **** 
1084:.\Generated_Source\PSoC5/LED_Driver_Gear.c **** /*******************************************************************************
1085:.\Generated_Source\PSoC5/LED_Driver_Gear.c **** * Function Name: LED_Driver_Gear_Write7SegNumberHex
1086:.\Generated_Source\PSoC5/LED_Driver_Gear.c **** ********************************************************************************
1087:.\Generated_Source\PSoC5/LED_Driver_Gear.c **** *
1088:.\Generated_Source\PSoC5/LED_Driver_Gear.c **** * Summary:
1089:.\Generated_Source\PSoC5/LED_Driver_Gear.c **** *  Displays a hexadecimal number up to 8 characters long, starting at 'position'
1090:.\Generated_Source\PSoC5/LED_Driver_Gear.c **** *  and extending for 'digits' characters. If you do not use the correct number 
1091:.\Generated_Source\PSoC5/LED_Driver_Gear.c **** *  of digits for your number, the least significant digits will be displayed. 
1092:.\Generated_Source\PSoC5/LED_Driver_Gear.c **** *  For example, if value is 0xDEADBEEF, display is 0 and digits is 4, the result 
1093:.\Generated_Source\PSoC5/LED_Driver_Gear.c **** *  will be: BEEF.
1094:.\Generated_Source\PSoC5/LED_Driver_Gear.c **** *
1095:.\Generated_Source\PSoC5/LED_Driver_Gear.c **** * Parameters:
1096:.\Generated_Source\PSoC5/LED_Driver_Gear.c **** *  uint32 number: The hexadecimal number to display. It is the responsibility of
1097:.\Generated_Source\PSoC5/LED_Driver_Gear.c **** *                 the user to ensure that the display has enough digits to 
1098:.\Generated_Source\PSoC5/LED_Driver_Gear.c **** *                 accurately representthe number passed to this function. If 
1099:.\Generated_Source\PSoC5/LED_Driver_Gear.c **** *                 not, the least significant digits will be displayed.
1100:.\Generated_Source\PSoC5/LED_Driver_Gear.c **** *  uint8 position: Position of the Display/Common to start number.
1101:.\Generated_Source\PSoC5/LED_Driver_Gear.c **** *  uint8 digits: The number of digits you wish to use to display the value 
1102:.\Generated_Source\PSoC5/LED_Driver_Gear.c **** *                passed into the function. If you do not use the correct number 
1103:.\Generated_Source\PSoC5/LED_Driver_Gear.c **** *                of digits for your number, the least significant digits will be
1104:.\Generated_Source\PSoC5/LED_Driver_Gear.c **** *                displayed.
1105:.\Generated_Source\PSoC5/LED_Driver_Gear.c **** *  uint8 alignment: How to align the provided number in the allocated digits.
1106:.\Generated_Source\PSoC5/LED_Driver_Gear.c **** *       RIGHT_ALIGN - Least significant digit occupies the rightmost digit
1107:.\Generated_Source\PSoC5/LED_Driver_Gear.c **** *                     (position + digits). Unused digits are turned off unless
1108:.\Generated_Source\PSoC5/LED_Driver_Gear.c **** *                     ZERO_PAD enabled.
1109:.\Generated_Source\PSoC5/LED_Driver_Gear.c **** *       LEFT_ALIGN - Most significant digit (or negative sign) occupies the
1110:.\Generated_Source\PSoC5/LED_Driver_Gear.c **** *                    digit specified by position. Unused digits are turned off.
1111:.\Generated_Source\PSoC5/LED_Driver_Gear.c **** *       ZERO_PAD - Unused digits to the left are padded with leading zeros.
1112:.\Generated_Source\PSoC5/LED_Driver_Gear.c **** *
1113:.\Generated_Source\PSoC5/LED_Driver_Gear.c **** * Return:
1114:.\Generated_Source\PSoC5/LED_Driver_Gear.c **** *  None
1115:.\Generated_Source\PSoC5/LED_Driver_Gear.c **** *
1116:.\Generated_Source\PSoC5/LED_Driver_Gear.c **** * Side effects:
1117:.\Generated_Source\PSoC5/LED_Driver_Gear.c **** *  None
1118:.\Generated_Source\PSoC5/LED_Driver_Gear.c **** *
1119:.\Generated_Source\PSoC5/LED_Driver_Gear.c **** *******************************************************************************/
1120:.\Generated_Source\PSoC5/LED_Driver_Gear.c **** void LED_Driver_Gear_Write7SegNumberHex(uint32 number, uint8 position, uint8 digits, uint8 alignmen
1121:.\Generated_Source\PSoC5/LED_Driver_Gear.c **** 
ARM GAS  C:\Users\charl\AppData\Local\Temp\ccrxE5Zl.s 			page 35


1122:.\Generated_Source\PSoC5/LED_Driver_Gear.c **** {
1123:.\Generated_Source\PSoC5/LED_Driver_Gear.c ****     uint8 i;
1124:.\Generated_Source\PSoC5/LED_Driver_Gear.c ****     uint8 relPosition;
1125:.\Generated_Source\PSoC5/LED_Driver_Gear.c ****     uint8 choiceReg;
1126:.\Generated_Source\PSoC5/LED_Driver_Gear.c ****     uint8 selectVal;
1127:.\Generated_Source\PSoC5/LED_Driver_Gear.c ****     uint8 zeroCount = 0u;
1128:.\Generated_Source\PSoC5/LED_Driver_Gear.c ****     uint8 bufArray[8u] = {0u};
1129:.\Generated_Source\PSoC5/LED_Driver_Gear.c ****     uint32 numberVal;
1130:.\Generated_Source\PSoC5/LED_Driver_Gear.c ****         
1131:.\Generated_Source\PSoC5/LED_Driver_Gear.c ****     numberVal = number;
1132:.\Generated_Source\PSoC5/LED_Driver_Gear.c ****     
1133:.\Generated_Source\PSoC5/LED_Driver_Gear.c ****     /* Choose to use either the low, mid or high control registers */
1134:.\Generated_Source\PSoC5/LED_Driver_Gear.c ****     if(position < LED_Driver_Gear_NUM_COM)
1135:.\Generated_Source\PSoC5/LED_Driver_Gear.c ****     {
1136:.\Generated_Source\PSoC5/LED_Driver_Gear.c ****         choiceReg = LED_Driver_Gear_SEG_REG_LOW;
1137:.\Generated_Source\PSoC5/LED_Driver_Gear.c ****         relPosition = position;
1138:.\Generated_Source\PSoC5/LED_Driver_Gear.c ****     }
1139:.\Generated_Source\PSoC5/LED_Driver_Gear.c ****     else if (position < LED_Driver_Gear_TWO_NUM_COM)
1140:.\Generated_Source\PSoC5/LED_Driver_Gear.c ****     {
1141:.\Generated_Source\PSoC5/LED_Driver_Gear.c ****         choiceReg = LED_Driver_Gear_SEG_REG_MID;
1142:.\Generated_Source\PSoC5/LED_Driver_Gear.c ****         relPosition = position - LED_Driver_Gear_NUM_COM;
1143:.\Generated_Source\PSoC5/LED_Driver_Gear.c ****     }
1144:.\Generated_Source\PSoC5/LED_Driver_Gear.c ****     else
1145:.\Generated_Source\PSoC5/LED_Driver_Gear.c ****     {
1146:.\Generated_Source\PSoC5/LED_Driver_Gear.c ****         choiceReg = LED_Driver_Gear_SEG_REG_HIGH;
1147:.\Generated_Source\PSoC5/LED_Driver_Gear.c ****         relPosition = position - LED_Driver_Gear_TWO_NUM_COM;
1148:.\Generated_Source\PSoC5/LED_Driver_Gear.c ****     }
1149:.\Generated_Source\PSoC5/LED_Driver_Gear.c ****     
1150:.\Generated_Source\PSoC5/LED_Driver_Gear.c ****     /* Fill up the temporary array */
1151:.\Generated_Source\PSoC5/LED_Driver_Gear.c ****     for(i = digits; i > 0u; i--)
1152:.\Generated_Source\PSoC5/LED_Driver_Gear.c ****     {
1153:.\Generated_Source\PSoC5/LED_Driver_Gear.c ****         selectVal = (uint8)((uint8)numberVal & LED_Driver_Gear_NIBBLE_MASK);
1154:.\Generated_Source\PSoC5/LED_Driver_Gear.c ****         bufArray[i-1u] = LED_Driver_Gear_EncodeNumber7Seg(selectVal);
1155:.\Generated_Source\PSoC5/LED_Driver_Gear.c ****         numberVal = (uint32)((uint32)numberVal >> LED_Driver_Gear_SHIFT_NIBBLE);
1156:.\Generated_Source\PSoC5/LED_Driver_Gear.c ****     }
1157:.\Generated_Source\PSoC5/LED_Driver_Gear.c ****     
1158:.\Generated_Source\PSoC5/LED_Driver_Gear.c ****     /* Clean up the array */
1159:.\Generated_Source\PSoC5/LED_Driver_Gear.c ****     if(alignment != LED_Driver_Gear_ZERO_PAD)
1160:.\Generated_Source\PSoC5/LED_Driver_Gear.c ****     {
1161:.\Generated_Source\PSoC5/LED_Driver_Gear.c ****         for(i = 0u; i < digits; i++)
1162:.\Generated_Source\PSoC5/LED_Driver_Gear.c ****         {
1163:.\Generated_Source\PSoC5/LED_Driver_Gear.c ****             if (bufArray[i] != LED_Driver_Gear_ZERO_7CHAR)
1164:.\Generated_Source\PSoC5/LED_Driver_Gear.c ****             {
1165:.\Generated_Source\PSoC5/LED_Driver_Gear.c ****                 /* Exit when encountering non-zero number */
1166:.\Generated_Source\PSoC5/LED_Driver_Gear.c ****                 break;
1167:.\Generated_Source\PSoC5/LED_Driver_Gear.c ****             }
1168:.\Generated_Source\PSoC5/LED_Driver_Gear.c ****             else
1169:.\Generated_Source\PSoC5/LED_Driver_Gear.c ****             {
1170:.\Generated_Source\PSoC5/LED_Driver_Gear.c ****                 if(zeroCount != (digits - 1u))
1171:.\Generated_Source\PSoC5/LED_Driver_Gear.c ****                 {
1172:.\Generated_Source\PSoC5/LED_Driver_Gear.c ****                     /* Turn off the display */
1173:.\Generated_Source\PSoC5/LED_Driver_Gear.c ****                     bufArray[i] = LED_Driver_Gear_CLEAR;
1174:.\Generated_Source\PSoC5/LED_Driver_Gear.c ****                     zeroCount++;
1175:.\Generated_Source\PSoC5/LED_Driver_Gear.c ****                 }
1176:.\Generated_Source\PSoC5/LED_Driver_Gear.c ****             }    
1177:.\Generated_Source\PSoC5/LED_Driver_Gear.c ****         }
1178:.\Generated_Source\PSoC5/LED_Driver_Gear.c ****     }
ARM GAS  C:\Users\charl\AppData\Local\Temp\ccrxE5Zl.s 			page 36


1179:.\Generated_Source\PSoC5/LED_Driver_Gear.c ****     
1180:.\Generated_Source\PSoC5/LED_Driver_Gear.c ****     /* Place the values in the segment array according to alignment */
1181:.\Generated_Source\PSoC5/LED_Driver_Gear.c ****     if(alignment == LED_Driver_Gear_LEFT_ALIGN)
1182:.\Generated_Source\PSoC5/LED_Driver_Gear.c ****     {
1183:.\Generated_Source\PSoC5/LED_Driver_Gear.c ****         for(i = 0u; i < digits; i++)
1184:.\Generated_Source\PSoC5/LED_Driver_Gear.c ****         {
1185:.\Generated_Source\PSoC5/LED_Driver_Gear.c ****             if(bufArray[i] != LED_Driver_Gear_CLEAR)
1186:.\Generated_Source\PSoC5/LED_Driver_Gear.c ****             {
1187:.\Generated_Source\PSoC5/LED_Driver_Gear.c ****                 if(relPosition < LED_Driver_Gear_NUM_COM)
1188:.\Generated_Source\PSoC5/LED_Driver_Gear.c ****                 {
1189:.\Generated_Source\PSoC5/LED_Driver_Gear.c ****                     /* Only show displays that are not empty */
1190:.\Generated_Source\PSoC5/LED_Driver_Gear.c ****                     switch(choiceReg)
1191:.\Generated_Source\PSoC5/LED_Driver_Gear.c ****                     {
1192:.\Generated_Source\PSoC5/LED_Driver_Gear.c ****                         case LED_Driver_Gear_SEG_REG_LOW :
1193:.\Generated_Source\PSoC5/LED_Driver_Gear.c ****                             LED_Driver_Gear_segLBuffer[relPosition] = bufArray[i];
1194:.\Generated_Source\PSoC5/LED_Driver_Gear.c ****                             break;
1195:.\Generated_Source\PSoC5/LED_Driver_Gear.c ****                         case LED_Driver_Gear_SEG_REG_MID :
1196:.\Generated_Source\PSoC5/LED_Driver_Gear.c ****                             #if (LED_Driver_Gear_NUM_SEG > 8u)
1197:.\Generated_Source\PSoC5/LED_Driver_Gear.c ****                                 LED_Driver_Gear_segMBuffer[relPosition] = bufArray[i];
1198:.\Generated_Source\PSoC5/LED_Driver_Gear.c ****                             #endif /* (LED_Driver_Gear_NUM_SEG > 8u) */
1199:.\Generated_Source\PSoC5/LED_Driver_Gear.c ****                             break;
1200:.\Generated_Source\PSoC5/LED_Driver_Gear.c ****                         case LED_Driver_Gear_SEG_REG_HIGH :
1201:.\Generated_Source\PSoC5/LED_Driver_Gear.c ****                             #if (LED_Driver_Gear_NUM_SEG > 16u)
1202:.\Generated_Source\PSoC5/LED_Driver_Gear.c ****                                 LED_Driver_Gear_segHBuffer[relPosition] = bufArray[i];
1203:.\Generated_Source\PSoC5/LED_Driver_Gear.c ****                             #endif /* (LED_Driver_Gear_NUM_SEG > 16u) */
1204:.\Generated_Source\PSoC5/LED_Driver_Gear.c ****                             break;
1205:.\Generated_Source\PSoC5/LED_Driver_Gear.c ****                         default :
1206:.\Generated_Source\PSoC5/LED_Driver_Gear.c ****                             LED_Driver_Gear_segLBuffer[relPosition] = bufArray[i];
1207:.\Generated_Source\PSoC5/LED_Driver_Gear.c ****                             break;
1208:.\Generated_Source\PSoC5/LED_Driver_Gear.c ****                     }
1209:.\Generated_Source\PSoC5/LED_Driver_Gear.c ****                 }
1210:.\Generated_Source\PSoC5/LED_Driver_Gear.c ****                 relPosition++;
1211:.\Generated_Source\PSoC5/LED_Driver_Gear.c ****             }
1212:.\Generated_Source\PSoC5/LED_Driver_Gear.c ****         }
1213:.\Generated_Source\PSoC5/LED_Driver_Gear.c ****         /* Clear the rest of the positions to the right of value */
1214:.\Generated_Source\PSoC5/LED_Driver_Gear.c ****         while(relPosition < digits)
1215:.\Generated_Source\PSoC5/LED_Driver_Gear.c ****         {
1216:.\Generated_Source\PSoC5/LED_Driver_Gear.c ****             switch(choiceReg)
1217:.\Generated_Source\PSoC5/LED_Driver_Gear.c ****             {
1218:.\Generated_Source\PSoC5/LED_Driver_Gear.c ****                 case LED_Driver_Gear_SEG_REG_LOW :
1219:.\Generated_Source\PSoC5/LED_Driver_Gear.c ****                     LED_Driver_Gear_segLBuffer[relPosition] = LED_Driver_Gear_CLEAR;
1220:.\Generated_Source\PSoC5/LED_Driver_Gear.c ****                     break;
1221:.\Generated_Source\PSoC5/LED_Driver_Gear.c ****                 case LED_Driver_Gear_SEG_REG_MID :
1222:.\Generated_Source\PSoC5/LED_Driver_Gear.c ****                     #if (LED_Driver_Gear_NUM_SEG > 8u)
1223:.\Generated_Source\PSoC5/LED_Driver_Gear.c ****                         LED_Driver_Gear_segMBuffer[relPosition] = LED_Driver_Gear_CLEAR;
1224:.\Generated_Source\PSoC5/LED_Driver_Gear.c ****                     #endif /* (LED_Driver_Gear_NUM_SEG > 8u) */
1225:.\Generated_Source\PSoC5/LED_Driver_Gear.c ****                     break;
1226:.\Generated_Source\PSoC5/LED_Driver_Gear.c ****                 case LED_Driver_Gear_SEG_REG_HIGH :
1227:.\Generated_Source\PSoC5/LED_Driver_Gear.c ****                     #if (LED_Driver_Gear_NUM_SEG > 16u)
1228:.\Generated_Source\PSoC5/LED_Driver_Gear.c ****                         LED_Driver_Gear_segHBuffer[relPosition] = LED_Driver_Gear_CLEAR;
1229:.\Generated_Source\PSoC5/LED_Driver_Gear.c ****                     #endif /* (LED_Driver_Gear_NUM_SEG > 16u) */
1230:.\Generated_Source\PSoC5/LED_Driver_Gear.c ****                     break;
1231:.\Generated_Source\PSoC5/LED_Driver_Gear.c ****                 default :
1232:.\Generated_Source\PSoC5/LED_Driver_Gear.c ****                     LED_Driver_Gear_segLBuffer[relPosition] = LED_Driver_Gear_CLEAR;
1233:.\Generated_Source\PSoC5/LED_Driver_Gear.c ****                     break;
1234:.\Generated_Source\PSoC5/LED_Driver_Gear.c ****             }
1235:.\Generated_Source\PSoC5/LED_Driver_Gear.c ****             relPosition++;
ARM GAS  C:\Users\charl\AppData\Local\Temp\ccrxE5Zl.s 			page 37


1236:.\Generated_Source\PSoC5/LED_Driver_Gear.c ****         }
1237:.\Generated_Source\PSoC5/LED_Driver_Gear.c ****     }
1238:.\Generated_Source\PSoC5/LED_Driver_Gear.c ****     else
1239:.\Generated_Source\PSoC5/LED_Driver_Gear.c ****     {
1240:.\Generated_Source\PSoC5/LED_Driver_Gear.c ****         /* Alignment for right and zero padded */
1241:.\Generated_Source\PSoC5/LED_Driver_Gear.c ****         for(i = digits; i > 0u; i--)
1242:.\Generated_Source\PSoC5/LED_Driver_Gear.c ****         {
1243:.\Generated_Source\PSoC5/LED_Driver_Gear.c ****             if(((i + relPosition) - 1u) < LED_Driver_Gear_NUM_COM)
1244:.\Generated_Source\PSoC5/LED_Driver_Gear.c ****             {
1245:.\Generated_Source\PSoC5/LED_Driver_Gear.c ****                 /* Decide which row to use */
1246:.\Generated_Source\PSoC5/LED_Driver_Gear.c ****                 switch(choiceReg)
1247:.\Generated_Source\PSoC5/LED_Driver_Gear.c ****                 {
1248:.\Generated_Source\PSoC5/LED_Driver_Gear.c ****                     case LED_Driver_Gear_SEG_REG_LOW :
1249:.\Generated_Source\PSoC5/LED_Driver_Gear.c ****                         LED_Driver_Gear_segLBuffer[(i + relPosition) - 1u] = bufArray[i-1u];
1250:.\Generated_Source\PSoC5/LED_Driver_Gear.c ****                         break;
1251:.\Generated_Source\PSoC5/LED_Driver_Gear.c ****                     case LED_Driver_Gear_SEG_REG_MID :
1252:.\Generated_Source\PSoC5/LED_Driver_Gear.c ****                         #if (LED_Driver_Gear_NUM_SEG > 8u)
1253:.\Generated_Source\PSoC5/LED_Driver_Gear.c ****                             LED_Driver_Gear_segMBuffer[(i + relPosition) - 1u] = bufArray[i-1u];
1254:.\Generated_Source\PSoC5/LED_Driver_Gear.c ****                         #endif /* (LED_Driver_Gear_NUM_SEG > 8u) */
1255:.\Generated_Source\PSoC5/LED_Driver_Gear.c ****                         break;
1256:.\Generated_Source\PSoC5/LED_Driver_Gear.c ****                     case LED_Driver_Gear_SEG_REG_HIGH :
1257:.\Generated_Source\PSoC5/LED_Driver_Gear.c ****                         #if (LED_Driver_Gear_NUM_SEG > 16u)
1258:.\Generated_Source\PSoC5/LED_Driver_Gear.c ****                             LED_Driver_Gear_segHBuffer[(i + relPosition) - 1u] = bufArray[i-1u];
1259:.\Generated_Source\PSoC5/LED_Driver_Gear.c ****                         #endif /* (LED_Driver_Gear_NUM_SEG > 16u) */
1260:.\Generated_Source\PSoC5/LED_Driver_Gear.c ****                         break;
1261:.\Generated_Source\PSoC5/LED_Driver_Gear.c ****                     default :
1262:.\Generated_Source\PSoC5/LED_Driver_Gear.c ****                         LED_Driver_Gear_segLBuffer[(i + relPosition) - 1u] = bufArray[i-1u];
1263:.\Generated_Source\PSoC5/LED_Driver_Gear.c ****                         break;
1264:.\Generated_Source\PSoC5/LED_Driver_Gear.c ****                 }
1265:.\Generated_Source\PSoC5/LED_Driver_Gear.c ****             }
1266:.\Generated_Source\PSoC5/LED_Driver_Gear.c ****         }
1267:.\Generated_Source\PSoC5/LED_Driver_Gear.c ****     }
1268:.\Generated_Source\PSoC5/LED_Driver_Gear.c **** }
1269:.\Generated_Source\PSoC5/LED_Driver_Gear.c **** 
1270:.\Generated_Source\PSoC5/LED_Driver_Gear.c **** 
1271:.\Generated_Source\PSoC5/LED_Driver_Gear.c **** /*******************************************************************************
1272:.\Generated_Source\PSoC5/LED_Driver_Gear.c **** * Function Name: LED_Driver_Gear_WriteString7Seg
1273:.\Generated_Source\PSoC5/LED_Driver_Gear.c **** ********************************************************************************
1274:.\Generated_Source\PSoC5/LED_Driver_Gear.c **** *
1275:.\Generated_Source\PSoC5/LED_Driver_Gear.c **** * Summary:
1276:.\Generated_Source\PSoC5/LED_Driver_Gear.c **** *  Displays a null terminated string starting at 'position' and ending at either
1277:.\Generated_Source\PSoC5/LED_Driver_Gear.c **** *  at the end the string or the end of the display. The displayable characters 
1278:.\Generated_Source\PSoC5/LED_Driver_Gear.c **** *  are the same for the LED_Driver_PutChar7Seg() function. Non-displayable
1279:.\Generated_Source\PSoC5/LED_Driver_Gear.c **** *  characters will produce a blank space.
1280:.\Generated_Source\PSoC5/LED_Driver_Gear.c **** *
1281:.\Generated_Source\PSoC5/LED_Driver_Gear.c **** * Parameters:
1282:.\Generated_Source\PSoC5/LED_Driver_Gear.c **** *  char8 const character[]: The null terminated string to be displayed.
1283:.\Generated_Source\PSoC5/LED_Driver_Gear.c **** *  uint8 position: The position to start the string.
1284:.\Generated_Source\PSoC5/LED_Driver_Gear.c **** *
1285:.\Generated_Source\PSoC5/LED_Driver_Gear.c **** * Return:
1286:.\Generated_Source\PSoC5/LED_Driver_Gear.c **** *  None
1287:.\Generated_Source\PSoC5/LED_Driver_Gear.c **** *
1288:.\Generated_Source\PSoC5/LED_Driver_Gear.c **** * Side effects:
1289:.\Generated_Source\PSoC5/LED_Driver_Gear.c **** *  None
1290:.\Generated_Source\PSoC5/LED_Driver_Gear.c **** *
1291:.\Generated_Source\PSoC5/LED_Driver_Gear.c **** *******************************************************************************/
1292:.\Generated_Source\PSoC5/LED_Driver_Gear.c **** void LED_Driver_Gear_WriteString7Seg(char8 const character[], uint8 position)
ARM GAS  C:\Users\charl\AppData\Local\Temp\ccrxE5Zl.s 			page 38


1293:.\Generated_Source\PSoC5/LED_Driver_Gear.c **** 
1294:.\Generated_Source\PSoC5/LED_Driver_Gear.c **** {
1295:.\Generated_Source\PSoC5/LED_Driver_Gear.c ****     uint8 relPosition;
1296:.\Generated_Source\PSoC5/LED_Driver_Gear.c ****     uint8 sizeLimit;
1297:.\Generated_Source\PSoC5/LED_Driver_Gear.c ****     uint8 i = 0u;
1298:.\Generated_Source\PSoC5/LED_Driver_Gear.c ****     
1299:.\Generated_Source\PSoC5/LED_Driver_Gear.c ****     if(position < LED_Driver_Gear_NUM_COM)
1300:.\Generated_Source\PSoC5/LED_Driver_Gear.c ****     {
1301:.\Generated_Source\PSoC5/LED_Driver_Gear.c ****         sizeLimit = (uint8)(strlen(character)) + position;
1302:.\Generated_Source\PSoC5/LED_Driver_Gear.c ****         for(relPosition = position; relPosition < LED_Driver_Gear_NUM_COM; relPosition++)
1303:.\Generated_Source\PSoC5/LED_Driver_Gear.c ****         {
1304:.\Generated_Source\PSoC5/LED_Driver_Gear.c ****             if(relPosition < sizeLimit)
1305:.\Generated_Source\PSoC5/LED_Driver_Gear.c ****             {
1306:.\Generated_Source\PSoC5/LED_Driver_Gear.c ****                 LED_Driver_Gear_segLBuffer[relPosition] = LED_Driver_Gear_EncodeChar7Seg(character[
1307:.\Generated_Source\PSoC5/LED_Driver_Gear.c ****                 i++;
1308:.\Generated_Source\PSoC5/LED_Driver_Gear.c ****             }
1309:.\Generated_Source\PSoC5/LED_Driver_Gear.c ****         }
1310:.\Generated_Source\PSoC5/LED_Driver_Gear.c ****     }    
1311:.\Generated_Source\PSoC5/LED_Driver_Gear.c ****     else if (position < LED_Driver_Gear_TWO_NUM_COM)
1312:.\Generated_Source\PSoC5/LED_Driver_Gear.c ****     {
1313:.\Generated_Source\PSoC5/LED_Driver_Gear.c ****         #if (LED_Driver_Gear_NUM_SEG > 8u) 
1314:.\Generated_Source\PSoC5/LED_Driver_Gear.c ****             sizeLimit = ((uint8)(strlen(character)) + position) - LED_Driver_Gear_NUM_COM;
1315:.\Generated_Source\PSoC5/LED_Driver_Gear.c ****             for(relPosition = position - LED_Driver_Gear_NUM_COM;
1316:.\Generated_Source\PSoC5/LED_Driver_Gear.c ****                 relPosition < LED_Driver_Gear_NUM_COM; 
1317:.\Generated_Source\PSoC5/LED_Driver_Gear.c ****                 relPosition++)
1318:.\Generated_Source\PSoC5/LED_Driver_Gear.c ****             {
1319:.\Generated_Source\PSoC5/LED_Driver_Gear.c ****                 if(relPosition < sizeLimit)
1320:.\Generated_Source\PSoC5/LED_Driver_Gear.c ****                 {
1321:.\Generated_Source\PSoC5/LED_Driver_Gear.c ****                     LED_Driver_Gear_segMBuffer[relPosition] = LED_Driver_Gear_EncodeChar7Seg(charac
1322:.\Generated_Source\PSoC5/LED_Driver_Gear.c ****                     i++;
1323:.\Generated_Source\PSoC5/LED_Driver_Gear.c ****                 }
1324:.\Generated_Source\PSoC5/LED_Driver_Gear.c ****             }
1325:.\Generated_Source\PSoC5/LED_Driver_Gear.c ****         #endif /* (LED_Driver_Gear_NUM_SEG > 8u) */
1326:.\Generated_Source\PSoC5/LED_Driver_Gear.c ****     }
1327:.\Generated_Source\PSoC5/LED_Driver_Gear.c ****     else
1328:.\Generated_Source\PSoC5/LED_Driver_Gear.c ****     {
1329:.\Generated_Source\PSoC5/LED_Driver_Gear.c ****         #if (LED_Driver_Gear_NUM_SEG > 16u)
1330:.\Generated_Source\PSoC5/LED_Driver_Gear.c ****             sizeLimit = ((uint8)(strlen(character)) + position) - LED_Driver_Gear_TWO_NUM_COM;
1331:.\Generated_Source\PSoC5/LED_Driver_Gear.c ****             for(relPosition = position - LED_Driver_Gear_TWO_NUM_COM;
1332:.\Generated_Source\PSoC5/LED_Driver_Gear.c ****                 relPosition < LED_Driver_Gear_NUM_COM; 
1333:.\Generated_Source\PSoC5/LED_Driver_Gear.c ****                 relPosition++)
1334:.\Generated_Source\PSoC5/LED_Driver_Gear.c ****             {
1335:.\Generated_Source\PSoC5/LED_Driver_Gear.c ****                 if(relPosition < sizeLimit)
1336:.\Generated_Source\PSoC5/LED_Driver_Gear.c ****                 {
1337:.\Generated_Source\PSoC5/LED_Driver_Gear.c ****                     LED_Driver_Gear_segHBuffer[relPosition] = LED_Driver_Gear_EncodeChar7Seg(charac
1338:.\Generated_Source\PSoC5/LED_Driver_Gear.c ****                     i++;
1339:.\Generated_Source\PSoC5/LED_Driver_Gear.c ****                 }    
1340:.\Generated_Source\PSoC5/LED_Driver_Gear.c ****             }
1341:.\Generated_Source\PSoC5/LED_Driver_Gear.c ****         #endif /* (LED_Driver_Gear_NUM_SEG > 16u) */
1342:.\Generated_Source\PSoC5/LED_Driver_Gear.c ****     }
1343:.\Generated_Source\PSoC5/LED_Driver_Gear.c **** }
1344:.\Generated_Source\PSoC5/LED_Driver_Gear.c **** 
1345:.\Generated_Source\PSoC5/LED_Driver_Gear.c **** 
1346:.\Generated_Source\PSoC5/LED_Driver_Gear.c **** /*******************************************************************************
1347:.\Generated_Source\PSoC5/LED_Driver_Gear.c **** * Function Name: LED_Driver_Gear_PutChar7Seg
1348:.\Generated_Source\PSoC5/LED_Driver_Gear.c **** ********************************************************************************
1349:.\Generated_Source\PSoC5/LED_Driver_Gear.c **** *
ARM GAS  C:\Users\charl\AppData\Local\Temp\ccrxE5Zl.s 			page 39


1350:.\Generated_Source\PSoC5/LED_Driver_Gear.c **** * Summary:
1351:.\Generated_Source\PSoC5/LED_Driver_Gear.c **** *  Displays an ascii encoded character at 'position'. This function can display 
1352:.\Generated_Source\PSoC5/LED_Driver_Gear.c **** *  all alphanumeric characters. The function can also display '-', '.', '_', 
1353:.\Generated_Source\PSoC5/LED_Driver_Gear.c **** *  ' ', and '='. All unknown characters are displayed as a space.
1354:.\Generated_Source\PSoC5/LED_Driver_Gear.c **** *
1355:.\Generated_Source\PSoC5/LED_Driver_Gear.c **** * Parameters:
1356:.\Generated_Source\PSoC5/LED_Driver_Gear.c **** *  char8 character: ASCII character.
1357:.\Generated_Source\PSoC5/LED_Driver_Gear.c **** *  uint8 position: The position of the character.
1358:.\Generated_Source\PSoC5/LED_Driver_Gear.c **** *
1359:.\Generated_Source\PSoC5/LED_Driver_Gear.c **** * Return:
1360:.\Generated_Source\PSoC5/LED_Driver_Gear.c **** *  None
1361:.\Generated_Source\PSoC5/LED_Driver_Gear.c **** *
1362:.\Generated_Source\PSoC5/LED_Driver_Gear.c **** * Side effects:
1363:.\Generated_Source\PSoC5/LED_Driver_Gear.c **** *  None
1364:.\Generated_Source\PSoC5/LED_Driver_Gear.c **** *
1365:.\Generated_Source\PSoC5/LED_Driver_Gear.c **** *******************************************************************************/
1366:.\Generated_Source\PSoC5/LED_Driver_Gear.c **** void LED_Driver_Gear_PutChar7Seg(char8 character , uint8 position)
1367:.\Generated_Source\PSoC5/LED_Driver_Gear.c **** 
1368:.\Generated_Source\PSoC5/LED_Driver_Gear.c **** {
1369:.\Generated_Source\PSoC5/LED_Driver_Gear.c ****     uint8 relPosition;
1370:.\Generated_Source\PSoC5/LED_Driver_Gear.c ****     
1371:.\Generated_Source\PSoC5/LED_Driver_Gear.c ****     if(position < LED_Driver_Gear_NUM_COM)
1372:.\Generated_Source\PSoC5/LED_Driver_Gear.c ****     {
1373:.\Generated_Source\PSoC5/LED_Driver_Gear.c ****         relPosition = position;
1374:.\Generated_Source\PSoC5/LED_Driver_Gear.c ****         LED_Driver_Gear_segLBuffer[relPosition] = LED_Driver_Gear_EncodeChar7Seg(character);
1375:.\Generated_Source\PSoC5/LED_Driver_Gear.c ****     }    
1376:.\Generated_Source\PSoC5/LED_Driver_Gear.c ****     else if (position < LED_Driver_Gear_TWO_NUM_COM)
1377:.\Generated_Source\PSoC5/LED_Driver_Gear.c ****     {
1378:.\Generated_Source\PSoC5/LED_Driver_Gear.c ****         #if (LED_Driver_Gear_NUM_SEG > 8u) 
1379:.\Generated_Source\PSoC5/LED_Driver_Gear.c ****             relPosition = position - LED_Driver_Gear_NUM_COM;
1380:.\Generated_Source\PSoC5/LED_Driver_Gear.c ****             LED_Driver_Gear_segMBuffer[relPosition] = LED_Driver_Gear_EncodeChar7Seg(character);
1381:.\Generated_Source\PSoC5/LED_Driver_Gear.c ****         #endif /* (LED_Driver_Gear_NUM_SEG > 8u) */
1382:.\Generated_Source\PSoC5/LED_Driver_Gear.c ****     }
1383:.\Generated_Source\PSoC5/LED_Driver_Gear.c ****     else
1384:.\Generated_Source\PSoC5/LED_Driver_Gear.c ****     {
1385:.\Generated_Source\PSoC5/LED_Driver_Gear.c ****         #if (LED_Driver_Gear_NUM_SEG > 16u)
1386:.\Generated_Source\PSoC5/LED_Driver_Gear.c ****             relPosition = position - LED_Driver_Gear_TWO_NUM_COM;
1387:.\Generated_Source\PSoC5/LED_Driver_Gear.c ****             if(relPosition < LED_Driver_Gear_NUM_COM)
1388:.\Generated_Source\PSoC5/LED_Driver_Gear.c ****             {
1389:.\Generated_Source\PSoC5/LED_Driver_Gear.c ****                 LED_Driver_Gear_segHBuffer[relPosition] = LED_Driver_Gear_EncodeChar7Seg(character)
1390:.\Generated_Source\PSoC5/LED_Driver_Gear.c ****             }
1391:.\Generated_Source\PSoC5/LED_Driver_Gear.c ****         #endif /* (LED_Driver_Gear_NUM_SEG > 16u) */
1392:.\Generated_Source\PSoC5/LED_Driver_Gear.c ****     }
1393:.\Generated_Source\PSoC5/LED_Driver_Gear.c **** }
1394:.\Generated_Source\PSoC5/LED_Driver_Gear.c **** 
1395:.\Generated_Source\PSoC5/LED_Driver_Gear.c **** 
1396:.\Generated_Source\PSoC5/LED_Driver_Gear.c **** /*******************************************************************************
1397:.\Generated_Source\PSoC5/LED_Driver_Gear.c **** * Function Name: LED_Driver_Gear_Write7SegDigitDec
1398:.\Generated_Source\PSoC5/LED_Driver_Gear.c **** ********************************************************************************
1399:.\Generated_Source\PSoC5/LED_Driver_Gear.c **** *
1400:.\Generated_Source\PSoC5/LED_Driver_Gear.c **** * Summary:
1401:.\Generated_Source\PSoC5/LED_Driver_Gear.c **** *  Displays a single digit on the specified display. The number in 'digit' 
1402:.\Generated_Source\PSoC5/LED_Driver_Gear.c **** *  (0-9) is placed on 'position.'
1403:.\Generated_Source\PSoC5/LED_Driver_Gear.c **** *
1404:.\Generated_Source\PSoC5/LED_Driver_Gear.c **** * Parameters:
1405:.\Generated_Source\PSoC5/LED_Driver_Gear.c **** *  uint8 digit: A number between 0 and 9 to display.
1406:.\Generated_Source\PSoC5/LED_Driver_Gear.c **** *  uint8 position: Position of the display in which to place the number.
ARM GAS  C:\Users\charl\AppData\Local\Temp\ccrxE5Zl.s 			page 40


1407:.\Generated_Source\PSoC5/LED_Driver_Gear.c **** *
1408:.\Generated_Source\PSoC5/LED_Driver_Gear.c **** * Return:
1409:.\Generated_Source\PSoC5/LED_Driver_Gear.c **** *  None
1410:.\Generated_Source\PSoC5/LED_Driver_Gear.c **** *
1411:.\Generated_Source\PSoC5/LED_Driver_Gear.c **** * Side effects:
1412:.\Generated_Source\PSoC5/LED_Driver_Gear.c **** *  None
1413:.\Generated_Source\PSoC5/LED_Driver_Gear.c **** *
1414:.\Generated_Source\PSoC5/LED_Driver_Gear.c **** *******************************************************************************/
1415:.\Generated_Source\PSoC5/LED_Driver_Gear.c **** void LED_Driver_Gear_Write7SegDigitDec(uint8 digit, uint8 position)
1416:.\Generated_Source\PSoC5/LED_Driver_Gear.c **** 
1417:.\Generated_Source\PSoC5/LED_Driver_Gear.c **** {
1418:.\Generated_Source\PSoC5/LED_Driver_Gear.c ****     uint8 relPosition;
1419:.\Generated_Source\PSoC5/LED_Driver_Gear.c ****     
1420:.\Generated_Source\PSoC5/LED_Driver_Gear.c ****     /* Only display numerical values */
1421:.\Generated_Source\PSoC5/LED_Driver_Gear.c ****     if (digit < 10u)
1422:.\Generated_Source\PSoC5/LED_Driver_Gear.c ****     {
1423:.\Generated_Source\PSoC5/LED_Driver_Gear.c ****         if(position < LED_Driver_Gear_NUM_COM)
1424:.\Generated_Source\PSoC5/LED_Driver_Gear.c ****         {
1425:.\Generated_Source\PSoC5/LED_Driver_Gear.c ****             relPosition = position;
1426:.\Generated_Source\PSoC5/LED_Driver_Gear.c ****             LED_Driver_Gear_segLBuffer[relPosition] = LED_Driver_Gear_EncodeNumber7Seg(digit);
1427:.\Generated_Source\PSoC5/LED_Driver_Gear.c ****         }    
1428:.\Generated_Source\PSoC5/LED_Driver_Gear.c ****         else if (position < LED_Driver_Gear_TWO_NUM_COM)
1429:.\Generated_Source\PSoC5/LED_Driver_Gear.c ****         {
1430:.\Generated_Source\PSoC5/LED_Driver_Gear.c ****             #if (LED_Driver_Gear_NUM_SEG > 8u)
1431:.\Generated_Source\PSoC5/LED_Driver_Gear.c ****                 relPosition = position - LED_Driver_Gear_NUM_COM;
1432:.\Generated_Source\PSoC5/LED_Driver_Gear.c ****                 LED_Driver_Gear_segMBuffer[relPosition] = LED_Driver_Gear_EncodeNumber7Seg(digit);
1433:.\Generated_Source\PSoC5/LED_Driver_Gear.c ****             #endif /* (LED_Driver_Gear_NUM_SEG > 8u) */
1434:.\Generated_Source\PSoC5/LED_Driver_Gear.c ****         } 
1435:.\Generated_Source\PSoC5/LED_Driver_Gear.c ****         else
1436:.\Generated_Source\PSoC5/LED_Driver_Gear.c ****         {
1437:.\Generated_Source\PSoC5/LED_Driver_Gear.c ****             #if (LED_Driver_Gear_NUM_SEG > 16u)
1438:.\Generated_Source\PSoC5/LED_Driver_Gear.c ****                 relPosition = position - LED_Driver_Gear_TWO_NUM_COM;
1439:.\Generated_Source\PSoC5/LED_Driver_Gear.c ****                 if(relPosition < LED_Driver_Gear_TWO_NUM_COM)
1440:.\Generated_Source\PSoC5/LED_Driver_Gear.c ****                 {
1441:.\Generated_Source\PSoC5/LED_Driver_Gear.c ****                     LED_Driver_Gear_segHBuffer[relPosition] = LED_Driver_Gear_EncodeNumber7Seg(digi
1442:.\Generated_Source\PSoC5/LED_Driver_Gear.c ****                 }
1443:.\Generated_Source\PSoC5/LED_Driver_Gear.c ****             #endif /* (LED_Driver_Gear_NUM_SEG > 16u) */
1444:.\Generated_Source\PSoC5/LED_Driver_Gear.c ****         }
1445:.\Generated_Source\PSoC5/LED_Driver_Gear.c ****     }
1446:.\Generated_Source\PSoC5/LED_Driver_Gear.c **** }
1447:.\Generated_Source\PSoC5/LED_Driver_Gear.c **** 
1448:.\Generated_Source\PSoC5/LED_Driver_Gear.c **** 
1449:.\Generated_Source\PSoC5/LED_Driver_Gear.c **** /*******************************************************************************
1450:.\Generated_Source\PSoC5/LED_Driver_Gear.c **** * Function Name: LED_Driver_Gear_Write7SegDigitHex
1451:.\Generated_Source\PSoC5/LED_Driver_Gear.c **** ********************************************************************************
1452:.\Generated_Source\PSoC5/LED_Driver_Gear.c **** *
1453:.\Generated_Source\PSoC5/LED_Driver_Gear.c **** * Summary:
1454:.\Generated_Source\PSoC5/LED_Driver_Gear.c **** *  Displays a single digit at the specified position. The number in 'digit' 
1455:.\Generated_Source\PSoC5/LED_Driver_Gear.c **** *  (0-F) is placed on 'position'.
1456:.\Generated_Source\PSoC5/LED_Driver_Gear.c **** *
1457:.\Generated_Source\PSoC5/LED_Driver_Gear.c **** * Parameters:
1458:.\Generated_Source\PSoC5/LED_Driver_Gear.c **** *  uint8 digit: A number between 0x0 and 0xF (0 to 15)
1459:.\Generated_Source\PSoC5/LED_Driver_Gear.c **** *  uint8 position: The position in which to place the number.
1460:.\Generated_Source\PSoC5/LED_Driver_Gear.c **** *
1461:.\Generated_Source\PSoC5/LED_Driver_Gear.c **** * Return:
1462:.\Generated_Source\PSoC5/LED_Driver_Gear.c **** *  None
1463:.\Generated_Source\PSoC5/LED_Driver_Gear.c **** *
ARM GAS  C:\Users\charl\AppData\Local\Temp\ccrxE5Zl.s 			page 41


1464:.\Generated_Source\PSoC5/LED_Driver_Gear.c **** * Side effects:
1465:.\Generated_Source\PSoC5/LED_Driver_Gear.c **** *  None
1466:.\Generated_Source\PSoC5/LED_Driver_Gear.c **** *
1467:.\Generated_Source\PSoC5/LED_Driver_Gear.c **** *******************************************************************************/
1468:.\Generated_Source\PSoC5/LED_Driver_Gear.c **** void LED_Driver_Gear_Write7SegDigitHex(uint8 digit, uint8 position)
1469:.\Generated_Source\PSoC5/LED_Driver_Gear.c **** 
1470:.\Generated_Source\PSoC5/LED_Driver_Gear.c **** {
1471:.\Generated_Source\PSoC5/LED_Driver_Gear.c ****     uint8 relPosition;
1472:.\Generated_Source\PSoC5/LED_Driver_Gear.c ****     
1473:.\Generated_Source\PSoC5/LED_Driver_Gear.c ****     if(position < LED_Driver_Gear_NUM_COM)
1474:.\Generated_Source\PSoC5/LED_Driver_Gear.c ****     {
1475:.\Generated_Source\PSoC5/LED_Driver_Gear.c ****         relPosition = position;
1476:.\Generated_Source\PSoC5/LED_Driver_Gear.c ****         LED_Driver_Gear_segLBuffer[relPosition] = LED_Driver_Gear_EncodeNumber7Seg(digit);
1477:.\Generated_Source\PSoC5/LED_Driver_Gear.c ****     }    
1478:.\Generated_Source\PSoC5/LED_Driver_Gear.c ****     else if (position < LED_Driver_Gear_TWO_NUM_COM)
1479:.\Generated_Source\PSoC5/LED_Driver_Gear.c ****     {
1480:.\Generated_Source\PSoC5/LED_Driver_Gear.c ****         #if (LED_Driver_Gear_NUM_SEG > 8u) 
1481:.\Generated_Source\PSoC5/LED_Driver_Gear.c ****             relPosition = position - LED_Driver_Gear_NUM_COM;
1482:.\Generated_Source\PSoC5/LED_Driver_Gear.c ****             LED_Driver_Gear_segMBuffer[relPosition] = LED_Driver_Gear_EncodeNumber7Seg(digit);
1483:.\Generated_Source\PSoC5/LED_Driver_Gear.c ****         #endif /* (LED_Driver_Gear_NUM_SEG > 8u) */
1484:.\Generated_Source\PSoC5/LED_Driver_Gear.c ****     }
1485:.\Generated_Source\PSoC5/LED_Driver_Gear.c ****     else
1486:.\Generated_Source\PSoC5/LED_Driver_Gear.c ****     {
1487:.\Generated_Source\PSoC5/LED_Driver_Gear.c ****         #if (LED_Driver_Gear_NUM_SEG > 16u)
1488:.\Generated_Source\PSoC5/LED_Driver_Gear.c ****             relPosition = position - LED_Driver_Gear_TWO_NUM_COM;
1489:.\Generated_Source\PSoC5/LED_Driver_Gear.c ****             if(relPosition < LED_Driver_Gear_NUM_COM)
1490:.\Generated_Source\PSoC5/LED_Driver_Gear.c ****             {
1491:.\Generated_Source\PSoC5/LED_Driver_Gear.c ****                 LED_Driver_Gear_segHBuffer[relPosition] = LED_Driver_Gear_EncodeNumber7Seg(digit);
1492:.\Generated_Source\PSoC5/LED_Driver_Gear.c ****             }
1493:.\Generated_Source\PSoC5/LED_Driver_Gear.c ****         #endif /* (LED_Driver_Gear_NUM_SEG > 16u) */
1494:.\Generated_Source\PSoC5/LED_Driver_Gear.c ****     }
1495:.\Generated_Source\PSoC5/LED_Driver_Gear.c **** }
1496:.\Generated_Source\PSoC5/LED_Driver_Gear.c **** 
1497:.\Generated_Source\PSoC5/LED_Driver_Gear.c **** 
1498:.\Generated_Source\PSoC5/LED_Driver_Gear.c **** /*******************************************************************************
1499:.\Generated_Source\PSoC5/LED_Driver_Gear.c **** * Function Name: LED_Driver_Gear_Write14SegNumberDec
1500:.\Generated_Source\PSoC5/LED_Driver_Gear.c **** ********************************************************************************
1501:.\Generated_Source\PSoC5/LED_Driver_Gear.c **** *
1502:.\Generated_Source\PSoC5/LED_Driver_Gear.c **** * Summary:
1503:.\Generated_Source\PSoC5/LED_Driver_Gear.c **** *  Displays a signed integer up to 8 characters long, starting at 'position' and
1504:.\Generated_Source\PSoC5/LED_Driver_Gear.c **** *  extending for 'digits' characters. The negative sign will take an extra digit
1505:.\Generated_Source\PSoC5/LED_Driver_Gear.c **** *  if it is required. If you do not use the correct number of digits for your 
1506:.\Generated_Source\PSoC5/LED_Driver_Gear.c **** *  number, only the least significant digits will be displayed.
1507:.\Generated_Source\PSoC5/LED_Driver_Gear.c **** *
1508:.\Generated_Source\PSoC5/LED_Driver_Gear.c **** * Parameters:
1509:.\Generated_Source\PSoC5/LED_Driver_Gear.c **** *  int32 number: a signed integer number to display. It is the responsibility 
1510:.\Generated_Source\PSoC5/LED_Driver_Gear.c **** *                of the user to ensure that the display has enough digits to 
1511:.\Generated_Source\PSoC5/LED_Driver_Gear.c **** *                accurately represent the number passed to this function. Note 
1512:.\Generated_Source\PSoC5/LED_Driver_Gear.c **** *                that a negative number will require 1 more digit than the 
1513:.\Generated_Source\PSoC5/LED_Driver_Gear.c **** *                equivalent positive number to display the negative sign.
1514:.\Generated_Source\PSoC5/LED_Driver_Gear.c **** *  uint8 position: Digit position of the Display/Common RAM to start.
1515:.\Generated_Source\PSoC5/LED_Driver_Gear.c **** *  uint8 digits: The number of digits you wish to use to display the value 
1516:.\Generated_Source\PSoC5/LED_Driver_Gear.c **** *                passed into the function. The negative sign will take an extra
1517:.\Generated_Source\PSoC5/LED_Driver_Gear.c **** *                digit if it is required.
1518:.\Generated_Source\PSoC5/LED_Driver_Gear.c **** *  uint8 alignment: How to align the provided number in the allocated digits.
1519:.\Generated_Source\PSoC5/LED_Driver_Gear.c **** *       RIGHT_ALIGN - Least significant digit occupies the rightmost digit
1520:.\Generated_Source\PSoC5/LED_Driver_Gear.c **** *                     (position + digits). Unused digits are turned off unless
ARM GAS  C:\Users\charl\AppData\Local\Temp\ccrxE5Zl.s 			page 42


1521:.\Generated_Source\PSoC5/LED_Driver_Gear.c **** *                     ZERO_PAD enabled.
1522:.\Generated_Source\PSoC5/LED_Driver_Gear.c **** *       LEFT_ALIGN - Most significant digit (or negative sign) occupies the
1523:.\Generated_Source\PSoC5/LED_Driver_Gear.c **** *                    digit specified by position. Unused digits are turned off.
1524:.\Generated_Source\PSoC5/LED_Driver_Gear.c **** *       ZERO_PAD - Unused digits to the left are padded with leading zeros.
1525:.\Generated_Source\PSoC5/LED_Driver_Gear.c **** * Return:
1526:.\Generated_Source\PSoC5/LED_Driver_Gear.c **** *  None
1527:.\Generated_Source\PSoC5/LED_Driver_Gear.c **** *
1528:.\Generated_Source\PSoC5/LED_Driver_Gear.c **** * Side effects:
1529:.\Generated_Source\PSoC5/LED_Driver_Gear.c **** *  None
1530:.\Generated_Source\PSoC5/LED_Driver_Gear.c **** *
1531:.\Generated_Source\PSoC5/LED_Driver_Gear.c **** *******************************************************************************/
1532:.\Generated_Source\PSoC5/LED_Driver_Gear.c **** void LED_Driver_Gear_Write14SegNumberDec(int32 number, uint8 position, uint8 digits, uint8 alignmen
1533:.\Generated_Source\PSoC5/LED_Driver_Gear.c **** 
1534:.\Generated_Source\PSoC5/LED_Driver_Gear.c **** {
1535:.\Generated_Source\PSoC5/LED_Driver_Gear.c ****     uint8 i;
1536:.\Generated_Source\PSoC5/LED_Driver_Gear.c ****     uint8 relPosition;
1537:.\Generated_Source\PSoC5/LED_Driver_Gear.c ****     uint8 numberSign;
1538:.\Generated_Source\PSoC5/LED_Driver_Gear.c ****     uint8 selectVal;
1539:.\Generated_Source\PSoC5/LED_Driver_Gear.c ****     uint8 zeroCount = 0u;
1540:.\Generated_Source\PSoC5/LED_Driver_Gear.c ****     uint16 bufArray[8u] = {0u};
1541:.\Generated_Source\PSoC5/LED_Driver_Gear.c ****     uint32 numberVal;
1542:.\Generated_Source\PSoC5/LED_Driver_Gear.c ****         
1543:.\Generated_Source\PSoC5/LED_Driver_Gear.c ****     /* Routine to extract the sign and to convert to unsigned */
1544:.\Generated_Source\PSoC5/LED_Driver_Gear.c ****     if(number >= LED_Driver_Gear_ZERO_NEG)
1545:.\Generated_Source\PSoC5/LED_Driver_Gear.c ****     {
1546:.\Generated_Source\PSoC5/LED_Driver_Gear.c ****         numberVal = (uint32)number;
1547:.\Generated_Source\PSoC5/LED_Driver_Gear.c ****         numberSign = LED_Driver_Gear_UNSIGNED;
1548:.\Generated_Source\PSoC5/LED_Driver_Gear.c ****     }
1549:.\Generated_Source\PSoC5/LED_Driver_Gear.c ****     else
1550:.\Generated_Source\PSoC5/LED_Driver_Gear.c ****     {
1551:.\Generated_Source\PSoC5/LED_Driver_Gear.c ****         numberVal = (uint32)(-number);
1552:.\Generated_Source\PSoC5/LED_Driver_Gear.c ****         numberSign = LED_Driver_Gear_SIGNED;
1553:.\Generated_Source\PSoC5/LED_Driver_Gear.c ****     }
1554:.\Generated_Source\PSoC5/LED_Driver_Gear.c ****     
1555:.\Generated_Source\PSoC5/LED_Driver_Gear.c ****     /* Fill up the temporary array */
1556:.\Generated_Source\PSoC5/LED_Driver_Gear.c ****     for(i = digits; i > 0u; i--)
1557:.\Generated_Source\PSoC5/LED_Driver_Gear.c ****     {
1558:.\Generated_Source\PSoC5/LED_Driver_Gear.c ****         selectVal = (uint8)(numberVal % 10u);
1559:.\Generated_Source\PSoC5/LED_Driver_Gear.c ****         bufArray[i-1u] = LED_Driver_Gear_EncodeNumber14Seg(selectVal);
1560:.\Generated_Source\PSoC5/LED_Driver_Gear.c ****         numberVal = numberVal / 10u;
1561:.\Generated_Source\PSoC5/LED_Driver_Gear.c ****     }
1562:.\Generated_Source\PSoC5/LED_Driver_Gear.c ****     
1563:.\Generated_Source\PSoC5/LED_Driver_Gear.c ****     /* Clean up the array and place sign if needed */
1564:.\Generated_Source\PSoC5/LED_Driver_Gear.c ****     if(alignment == LED_Driver_Gear_ZERO_PAD)
1565:.\Generated_Source\PSoC5/LED_Driver_Gear.c ****     {
1566:.\Generated_Source\PSoC5/LED_Driver_Gear.c ****         if(numberSign == LED_Driver_Gear_SIGNED)
1567:.\Generated_Source\PSoC5/LED_Driver_Gear.c ****         {
1568:.\Generated_Source\PSoC5/LED_Driver_Gear.c ****             /* Place sign on the MSB */
1569:.\Generated_Source\PSoC5/LED_Driver_Gear.c ****             bufArray[0u] = LED_Driver_Gear_EncodeChar14Seg('-');
1570:.\Generated_Source\PSoC5/LED_Driver_Gear.c ****         }
1571:.\Generated_Source\PSoC5/LED_Driver_Gear.c ****     }
1572:.\Generated_Source\PSoC5/LED_Driver_Gear.c ****     else
1573:.\Generated_Source\PSoC5/LED_Driver_Gear.c ****     {
1574:.\Generated_Source\PSoC5/LED_Driver_Gear.c ****         for(i = 0u; i < digits; i++)
1575:.\Generated_Source\PSoC5/LED_Driver_Gear.c ****         {
1576:.\Generated_Source\PSoC5/LED_Driver_Gear.c ****             if (bufArray[i] != LED_Driver_Gear_ZERO_14CHAR)
1577:.\Generated_Source\PSoC5/LED_Driver_Gear.c ****             {
ARM GAS  C:\Users\charl\AppData\Local\Temp\ccrxE5Zl.s 			page 43


1578:.\Generated_Source\PSoC5/LED_Driver_Gear.c ****                 if(numberSign == LED_Driver_Gear_SIGNED)
1579:.\Generated_Source\PSoC5/LED_Driver_Gear.c ****                 {
1580:.\Generated_Source\PSoC5/LED_Driver_Gear.c ****                     if(i == 0u)
1581:.\Generated_Source\PSoC5/LED_Driver_Gear.c ****                     {
1582:.\Generated_Source\PSoC5/LED_Driver_Gear.c ****                         /* Place sign on the MSB */
1583:.\Generated_Source\PSoC5/LED_Driver_Gear.c ****                         bufArray[i] = LED_Driver_Gear_EncodeChar14Seg('-');
1584:.\Generated_Source\PSoC5/LED_Driver_Gear.c ****                     }
1585:.\Generated_Source\PSoC5/LED_Driver_Gear.c ****                     else
1586:.\Generated_Source\PSoC5/LED_Driver_Gear.c ****                     {
1587:.\Generated_Source\PSoC5/LED_Driver_Gear.c ****                         /* Place sign before MSB */
1588:.\Generated_Source\PSoC5/LED_Driver_Gear.c ****                         bufArray[i-1u] = LED_Driver_Gear_EncodeChar14Seg('-');
1589:.\Generated_Source\PSoC5/LED_Driver_Gear.c ****                     }
1590:.\Generated_Source\PSoC5/LED_Driver_Gear.c ****                 }
1591:.\Generated_Source\PSoC5/LED_Driver_Gear.c ****                 /* Exit when encountering non-zero number */
1592:.\Generated_Source\PSoC5/LED_Driver_Gear.c ****                 break;
1593:.\Generated_Source\PSoC5/LED_Driver_Gear.c ****             }
1594:.\Generated_Source\PSoC5/LED_Driver_Gear.c ****             else
1595:.\Generated_Source\PSoC5/LED_Driver_Gear.c ****             {
1596:.\Generated_Source\PSoC5/LED_Driver_Gear.c ****                 if(zeroCount != (digits - 1u))
1597:.\Generated_Source\PSoC5/LED_Driver_Gear.c ****                 {
1598:.\Generated_Source\PSoC5/LED_Driver_Gear.c ****                     /* Turn off the display */
1599:.\Generated_Source\PSoC5/LED_Driver_Gear.c ****                     bufArray[i] = LED_Driver_Gear_CLEAR_16;
1600:.\Generated_Source\PSoC5/LED_Driver_Gear.c ****                     zeroCount++;
1601:.\Generated_Source\PSoC5/LED_Driver_Gear.c ****                 }
1602:.\Generated_Source\PSoC5/LED_Driver_Gear.c ****             }    
1603:.\Generated_Source\PSoC5/LED_Driver_Gear.c ****         }
1604:.\Generated_Source\PSoC5/LED_Driver_Gear.c ****     }
1605:.\Generated_Source\PSoC5/LED_Driver_Gear.c ****     
1606:.\Generated_Source\PSoC5/LED_Driver_Gear.c ****     relPosition = position;
1607:.\Generated_Source\PSoC5/LED_Driver_Gear.c ****     
1608:.\Generated_Source\PSoC5/LED_Driver_Gear.c ****     /* Place the values in the segment array according to alignment */
1609:.\Generated_Source\PSoC5/LED_Driver_Gear.c ****     if(alignment == LED_Driver_Gear_LEFT_ALIGN)
1610:.\Generated_Source\PSoC5/LED_Driver_Gear.c ****     {
1611:.\Generated_Source\PSoC5/LED_Driver_Gear.c ****         for(i = 0u; i < digits; i++)
1612:.\Generated_Source\PSoC5/LED_Driver_Gear.c ****         {
1613:.\Generated_Source\PSoC5/LED_Driver_Gear.c ****             if(bufArray[i] != LED_Driver_Gear_CLEAR_16)
1614:.\Generated_Source\PSoC5/LED_Driver_Gear.c ****             {
1615:.\Generated_Source\PSoC5/LED_Driver_Gear.c ****                 if(relPosition < LED_Driver_Gear_NUM_COM)
1616:.\Generated_Source\PSoC5/LED_Driver_Gear.c ****                 {
1617:.\Generated_Source\PSoC5/LED_Driver_Gear.c ****                     /* Only show displays that are not empty */
1618:.\Generated_Source\PSoC5/LED_Driver_Gear.c ****                     LED_Driver_Gear_segLBuffer[relPosition] = LO8(bufArray[i]);
1619:.\Generated_Source\PSoC5/LED_Driver_Gear.c ****                 #if (LED_Driver_Gear_NUM_SEG > 8u)
1620:.\Generated_Source\PSoC5/LED_Driver_Gear.c ****                     LED_Driver_Gear_segMBuffer[relPosition] = HI8(bufArray[i]);
1621:.\Generated_Source\PSoC5/LED_Driver_Gear.c ****                 #endif /* (LED_Driver_Gear_NUM_SEG > 8u) */
1622:.\Generated_Source\PSoC5/LED_Driver_Gear.c ****                 }
1623:.\Generated_Source\PSoC5/LED_Driver_Gear.c ****                 relPosition++;
1624:.\Generated_Source\PSoC5/LED_Driver_Gear.c ****             }
1625:.\Generated_Source\PSoC5/LED_Driver_Gear.c ****         }
1626:.\Generated_Source\PSoC5/LED_Driver_Gear.c ****         /* Clear the rest of the positions to the right of value */
1627:.\Generated_Source\PSoC5/LED_Driver_Gear.c ****         while(relPosition < digits)
1628:.\Generated_Source\PSoC5/LED_Driver_Gear.c ****         {
1629:.\Generated_Source\PSoC5/LED_Driver_Gear.c ****             /* Only show displays that are not empty */
1630:.\Generated_Source\PSoC5/LED_Driver_Gear.c ****             LED_Driver_Gear_segLBuffer[relPosition] = LED_Driver_Gear_CLEAR;
1631:.\Generated_Source\PSoC5/LED_Driver_Gear.c ****             #if (LED_Driver_Gear_NUM_SEG > 8u)
1632:.\Generated_Source\PSoC5/LED_Driver_Gear.c ****                 LED_Driver_Gear_segMBuffer[relPosition] = LED_Driver_Gear_CLEAR;
1633:.\Generated_Source\PSoC5/LED_Driver_Gear.c ****             #endif /* (LED_Driver_Gear_NUM_SEG > 8u) */
1634:.\Generated_Source\PSoC5/LED_Driver_Gear.c ****             
ARM GAS  C:\Users\charl\AppData\Local\Temp\ccrxE5Zl.s 			page 44


1635:.\Generated_Source\PSoC5/LED_Driver_Gear.c ****             relPosition++;
1636:.\Generated_Source\PSoC5/LED_Driver_Gear.c ****         }
1637:.\Generated_Source\PSoC5/LED_Driver_Gear.c ****     }
1638:.\Generated_Source\PSoC5/LED_Driver_Gear.c ****     else
1639:.\Generated_Source\PSoC5/LED_Driver_Gear.c ****     {
1640:.\Generated_Source\PSoC5/LED_Driver_Gear.c ****         for(i = digits; i > 0u; i--)
1641:.\Generated_Source\PSoC5/LED_Driver_Gear.c ****         {
1642:.\Generated_Source\PSoC5/LED_Driver_Gear.c ****             if(((i + relPosition) - 1u) < LED_Driver_Gear_NUM_COM)
1643:.\Generated_Source\PSoC5/LED_Driver_Gear.c ****             {
1644:.\Generated_Source\PSoC5/LED_Driver_Gear.c ****                 LED_Driver_Gear_segLBuffer[(i + relPosition) - 1u] = LO8(bufArray[i-1u]);
1645:.\Generated_Source\PSoC5/LED_Driver_Gear.c ****             #if (LED_Driver_Gear_NUM_SEG > 8u)
1646:.\Generated_Source\PSoC5/LED_Driver_Gear.c ****                 LED_Driver_Gear_segMBuffer[(i + relPosition) - 1u] = HI8(bufArray[i-1u]);
1647:.\Generated_Source\PSoC5/LED_Driver_Gear.c ****             #endif /* (LED_Driver_Gear_NUM_SEG > 8u) */
1648:.\Generated_Source\PSoC5/LED_Driver_Gear.c ****             }
1649:.\Generated_Source\PSoC5/LED_Driver_Gear.c ****         }  
1650:.\Generated_Source\PSoC5/LED_Driver_Gear.c ****     }
1651:.\Generated_Source\PSoC5/LED_Driver_Gear.c **** }
1652:.\Generated_Source\PSoC5/LED_Driver_Gear.c **** 
1653:.\Generated_Source\PSoC5/LED_Driver_Gear.c **** 
1654:.\Generated_Source\PSoC5/LED_Driver_Gear.c **** /*******************************************************************************
1655:.\Generated_Source\PSoC5/LED_Driver_Gear.c **** * Function Name: LED_Driver_Gear_Write14SegNumberHex
1656:.\Generated_Source\PSoC5/LED_Driver_Gear.c **** ********************************************************************************
1657:.\Generated_Source\PSoC5/LED_Driver_Gear.c **** *
1658:.\Generated_Source\PSoC5/LED_Driver_Gear.c **** * Summary:
1659:.\Generated_Source\PSoC5/LED_Driver_Gear.c **** *  Displays a hexadecimal number up to 8 characters long, starting at 'position'
1660:.\Generated_Source\PSoC5/LED_Driver_Gear.c **** *  and extending for 'digits' characters. If you do not use the correct number
1661:.\Generated_Source\PSoC5/LED_Driver_Gear.c **** *  of digits for your number, the least significant digits will be displayed. 
1662:.\Generated_Source\PSoC5/LED_Driver_Gear.c **** *  For example, if value is 0xDEADBEEF, display is 0 and digits is 4, the result
1663:.\Generated_Source\PSoC5/LED_Driver_Gear.c **** *  will be: BEEF.
1664:.\Generated_Source\PSoC5/LED_Driver_Gear.c **** *
1665:.\Generated_Source\PSoC5/LED_Driver_Gear.c **** * Parameters:
1666:.\Generated_Source\PSoC5/LED_Driver_Gear.c **** *  uint32 number: The hexadecimal number to display. It is the responsibility 
1667:.\Generated_Source\PSoC5/LED_Driver_Gear.c **** *                 of the user to ensure that the display has enough digits to 
1668:.\Generated_Source\PSoC5/LED_Driver_Gear.c **** *                 accurately represent the number passed to this function. If 
1669:.\Generated_Source\PSoC5/LED_Driver_Gear.c **** *                 not, only the least significant digits will be displayed.
1670:.\Generated_Source\PSoC5/LED_Driver_Gear.c **** *  uint8 position: Position of the Display/Common to start number.
1671:.\Generated_Source\PSoC5/LED_Driver_Gear.c **** *  uint8 digits: The number of digits you wish to use to display the value 
1672:.\Generated_Source\PSoC5/LED_Driver_Gear.c **** *                passed into the function. If you do not use the correct number
1673:.\Generated_Source\PSoC5/LED_Driver_Gear.c **** *                of digits for your number, the least significant digits will 
1674:.\Generated_Source\PSoC5/LED_Driver_Gear.c **** *                be displayed.
1675:.\Generated_Source\PSoC5/LED_Driver_Gear.c **** *  uint8 alignment: How to align the provided number in the allocated digits.
1676:.\Generated_Source\PSoC5/LED_Driver_Gear.c **** *       RIGHT_ALIGN - Least significant digit occupies the rightmost digit
1677:.\Generated_Source\PSoC5/LED_Driver_Gear.c **** *                     (position + digits). Unused digits are turned off unless
1678:.\Generated_Source\PSoC5/LED_Driver_Gear.c **** *                     ZERO_PAD enabled.
1679:.\Generated_Source\PSoC5/LED_Driver_Gear.c **** *       LEFT_ALIGN - Most significant digit (or negative sign) occupies the
1680:.\Generated_Source\PSoC5/LED_Driver_Gear.c **** *                    digit specified by position. Unused digits are turned off.
1681:.\Generated_Source\PSoC5/LED_Driver_Gear.c **** *       ZERO_PAD - Unused digits to the left are padded with leading zeros.
1682:.\Generated_Source\PSoC5/LED_Driver_Gear.c **** * Return:
1683:.\Generated_Source\PSoC5/LED_Driver_Gear.c **** *  None
1684:.\Generated_Source\PSoC5/LED_Driver_Gear.c **** *
1685:.\Generated_Source\PSoC5/LED_Driver_Gear.c **** * Side effects:
1686:.\Generated_Source\PSoC5/LED_Driver_Gear.c **** *  None
1687:.\Generated_Source\PSoC5/LED_Driver_Gear.c **** *
1688:.\Generated_Source\PSoC5/LED_Driver_Gear.c **** *******************************************************************************/
1689:.\Generated_Source\PSoC5/LED_Driver_Gear.c **** void LED_Driver_Gear_Write14SegNumberHex(uint32 number, uint8 position, uint8 digits, uint8 alignme
1690:.\Generated_Source\PSoC5/LED_Driver_Gear.c **** 
1691:.\Generated_Source\PSoC5/LED_Driver_Gear.c **** {
ARM GAS  C:\Users\charl\AppData\Local\Temp\ccrxE5Zl.s 			page 45


1692:.\Generated_Source\PSoC5/LED_Driver_Gear.c ****     uint8 i;
1693:.\Generated_Source\PSoC5/LED_Driver_Gear.c ****     uint8 relPosition;
1694:.\Generated_Source\PSoC5/LED_Driver_Gear.c ****     uint8 selectVal;
1695:.\Generated_Source\PSoC5/LED_Driver_Gear.c ****     uint16 bufArray[8u] = {0u};
1696:.\Generated_Source\PSoC5/LED_Driver_Gear.c ****     uint32 numberVal;
1697:.\Generated_Source\PSoC5/LED_Driver_Gear.c ****     
1698:.\Generated_Source\PSoC5/LED_Driver_Gear.c ****     numberVal = number;
1699:.\Generated_Source\PSoC5/LED_Driver_Gear.c ****     
1700:.\Generated_Source\PSoC5/LED_Driver_Gear.c ****     /* Fill up the temporary array */
1701:.\Generated_Source\PSoC5/LED_Driver_Gear.c ****     for(i = digits; i > 0u; i--)
1702:.\Generated_Source\PSoC5/LED_Driver_Gear.c ****     {
1703:.\Generated_Source\PSoC5/LED_Driver_Gear.c ****         selectVal = (uint8)((uint8)numberVal & LED_Driver_Gear_NIBBLE_MASK);
1704:.\Generated_Source\PSoC5/LED_Driver_Gear.c ****         bufArray[i-1u] = LED_Driver_Gear_EncodeNumber14Seg(selectVal);
1705:.\Generated_Source\PSoC5/LED_Driver_Gear.c ****         numberVal = (uint32)((uint32)numberVal >> LED_Driver_Gear_SHIFT_NIBBLE);
1706:.\Generated_Source\PSoC5/LED_Driver_Gear.c ****     }
1707:.\Generated_Source\PSoC5/LED_Driver_Gear.c ****     
1708:.\Generated_Source\PSoC5/LED_Driver_Gear.c ****     /* Clean up the array */
1709:.\Generated_Source\PSoC5/LED_Driver_Gear.c ****     for(i = 0u; i < digits; i++)
1710:.\Generated_Source\PSoC5/LED_Driver_Gear.c ****     {
1711:.\Generated_Source\PSoC5/LED_Driver_Gear.c ****         if (bufArray[i] != LED_Driver_Gear_ZERO_14CHAR)
1712:.\Generated_Source\PSoC5/LED_Driver_Gear.c ****         {
1713:.\Generated_Source\PSoC5/LED_Driver_Gear.c ****             /* Exit when encountering non-zero number */
1714:.\Generated_Source\PSoC5/LED_Driver_Gear.c ****             break;
1715:.\Generated_Source\PSoC5/LED_Driver_Gear.c ****         }
1716:.\Generated_Source\PSoC5/LED_Driver_Gear.c ****         else
1717:.\Generated_Source\PSoC5/LED_Driver_Gear.c ****         {
1718:.\Generated_Source\PSoC5/LED_Driver_Gear.c ****             /* Turn off the display */
1719:.\Generated_Source\PSoC5/LED_Driver_Gear.c ****             bufArray[i] = LED_Driver_Gear_CLEAR_16;
1720:.\Generated_Source\PSoC5/LED_Driver_Gear.c ****         }    
1721:.\Generated_Source\PSoC5/LED_Driver_Gear.c ****     }
1722:.\Generated_Source\PSoC5/LED_Driver_Gear.c ****     
1723:.\Generated_Source\PSoC5/LED_Driver_Gear.c ****     relPosition = position;
1724:.\Generated_Source\PSoC5/LED_Driver_Gear.c ****     
1725:.\Generated_Source\PSoC5/LED_Driver_Gear.c ****     /* Place the values in the segment array according to alignment */
1726:.\Generated_Source\PSoC5/LED_Driver_Gear.c ****     if(alignment == LED_Driver_Gear_LEFT_ALIGN)
1727:.\Generated_Source\PSoC5/LED_Driver_Gear.c ****     {
1728:.\Generated_Source\PSoC5/LED_Driver_Gear.c ****         for(i = 0u; i < digits; i++)
1729:.\Generated_Source\PSoC5/LED_Driver_Gear.c ****         {
1730:.\Generated_Source\PSoC5/LED_Driver_Gear.c ****             if(bufArray[i] != LED_Driver_Gear_CLEAR_16)
1731:.\Generated_Source\PSoC5/LED_Driver_Gear.c ****             {
1732:.\Generated_Source\PSoC5/LED_Driver_Gear.c ****                 if(relPosition < LED_Driver_Gear_NUM_COM)
1733:.\Generated_Source\PSoC5/LED_Driver_Gear.c ****                 {
1734:.\Generated_Source\PSoC5/LED_Driver_Gear.c ****                     /* Only show displays that are not empty */
1735:.\Generated_Source\PSoC5/LED_Driver_Gear.c ****                     LED_Driver_Gear_segLBuffer[relPosition] = LO8(bufArray[i]);
1736:.\Generated_Source\PSoC5/LED_Driver_Gear.c ****                 #if (LED_Driver_Gear_NUM_SEG > 8u)
1737:.\Generated_Source\PSoC5/LED_Driver_Gear.c ****                     LED_Driver_Gear_segMBuffer[relPosition] = HI8(bufArray[i]);
1738:.\Generated_Source\PSoC5/LED_Driver_Gear.c ****                 #endif /* (LED_Driver_Gear_NUM_SEG > 8u) */
1739:.\Generated_Source\PSoC5/LED_Driver_Gear.c ****                 }
1740:.\Generated_Source\PSoC5/LED_Driver_Gear.c ****                 relPosition++;
1741:.\Generated_Source\PSoC5/LED_Driver_Gear.c ****             }
1742:.\Generated_Source\PSoC5/LED_Driver_Gear.c ****         }
1743:.\Generated_Source\PSoC5/LED_Driver_Gear.c ****         /* Clear the rest of the positions to the right of value */
1744:.\Generated_Source\PSoC5/LED_Driver_Gear.c ****         while(relPosition < digits)
1745:.\Generated_Source\PSoC5/LED_Driver_Gear.c ****         {
1746:.\Generated_Source\PSoC5/LED_Driver_Gear.c ****             /* Only show displays that are not empty */
1747:.\Generated_Source\PSoC5/LED_Driver_Gear.c ****             LED_Driver_Gear_segLBuffer[relPosition] = LED_Driver_Gear_CLEAR;
1748:.\Generated_Source\PSoC5/LED_Driver_Gear.c ****             #if (LED_Driver_Gear_NUM_SEG > 8u)
ARM GAS  C:\Users\charl\AppData\Local\Temp\ccrxE5Zl.s 			page 46


1749:.\Generated_Source\PSoC5/LED_Driver_Gear.c ****                 LED_Driver_Gear_segMBuffer[relPosition] = LED_Driver_Gear_CLEAR;
1750:.\Generated_Source\PSoC5/LED_Driver_Gear.c ****             #endif /* (LED_Driver_Gear_NUM_SEG > 8u) */
1751:.\Generated_Source\PSoC5/LED_Driver_Gear.c ****             
1752:.\Generated_Source\PSoC5/LED_Driver_Gear.c ****             relPosition++;
1753:.\Generated_Source\PSoC5/LED_Driver_Gear.c ****         }
1754:.\Generated_Source\PSoC5/LED_Driver_Gear.c ****     }
1755:.\Generated_Source\PSoC5/LED_Driver_Gear.c ****     else
1756:.\Generated_Source\PSoC5/LED_Driver_Gear.c ****     {
1757:.\Generated_Source\PSoC5/LED_Driver_Gear.c ****         for(i = digits; i > 0u; i--)
1758:.\Generated_Source\PSoC5/LED_Driver_Gear.c ****         {
1759:.\Generated_Source\PSoC5/LED_Driver_Gear.c ****             if(((i + relPosition) - 1u) < LED_Driver_Gear_NUM_COM)
1760:.\Generated_Source\PSoC5/LED_Driver_Gear.c ****             {
1761:.\Generated_Source\PSoC5/LED_Driver_Gear.c ****                 LED_Driver_Gear_segLBuffer[(i + relPosition) - 1u] = LO8(bufArray[i-1u]);
1762:.\Generated_Source\PSoC5/LED_Driver_Gear.c ****             #if (LED_Driver_Gear_NUM_SEG > 8u)
1763:.\Generated_Source\PSoC5/LED_Driver_Gear.c ****                 LED_Driver_Gear_segMBuffer[(i + relPosition) - 1u] = HI8(bufArray[i-1u]);
1764:.\Generated_Source\PSoC5/LED_Driver_Gear.c ****             #endif /* (LED_Driver_Gear_NUM_SEG > 8u) */
1765:.\Generated_Source\PSoC5/LED_Driver_Gear.c ****             }
1766:.\Generated_Source\PSoC5/LED_Driver_Gear.c ****         }  
1767:.\Generated_Source\PSoC5/LED_Driver_Gear.c ****     }
1768:.\Generated_Source\PSoC5/LED_Driver_Gear.c **** }
1769:.\Generated_Source\PSoC5/LED_Driver_Gear.c **** 
1770:.\Generated_Source\PSoC5/LED_Driver_Gear.c **** 
1771:.\Generated_Source\PSoC5/LED_Driver_Gear.c **** /*******************************************************************************
1772:.\Generated_Source\PSoC5/LED_Driver_Gear.c **** * Function Name: LED_Driver_Gear_WriteString14Seg
1773:.\Generated_Source\PSoC5/LED_Driver_Gear.c **** ********************************************************************************
1774:.\Generated_Source\PSoC5/LED_Driver_Gear.c **** *
1775:.\Generated_Source\PSoC5/LED_Driver_Gear.c **** * Summary:
1776:.\Generated_Source\PSoC5/LED_Driver_Gear.c **** *  Displays a null terminated string starting at 'position' and ending at 
1777:.\Generated_Source\PSoC5/LED_Driver_Gear.c **** *  either the  the string or the  the display. The displayable 
1778:.\Generated_Source\PSoC5/LED_Driver_Gear.c **** *  characters are the same for the LED_Driver_PutCharacter() function. 
1779:.\Generated_Source\PSoC5/LED_Driver_Gear.c **** *  Non-displayable characters will produce a blank space.
1780:.\Generated_Source\PSoC5/LED_Driver_Gear.c **** *
1781:.\Generated_Source\PSoC5/LED_Driver_Gear.c **** * Parameters:
1782:.\Generated_Source\PSoC5/LED_Driver_Gear.c **** *  char8 const character[]: The null terminated string to be displayed.
1783:.\Generated_Source\PSoC5/LED_Driver_Gear.c **** *  uint8 position: The position to start the string.
1784:.\Generated_Source\PSoC5/LED_Driver_Gear.c **** *
1785:.\Generated_Source\PSoC5/LED_Driver_Gear.c **** * Return:
1786:.\Generated_Source\PSoC5/LED_Driver_Gear.c **** *  None
1787:.\Generated_Source\PSoC5/LED_Driver_Gear.c **** *
1788:.\Generated_Source\PSoC5/LED_Driver_Gear.c **** * Side effects:
1789:.\Generated_Source\PSoC5/LED_Driver_Gear.c **** *  None
1790:.\Generated_Source\PSoC5/LED_Driver_Gear.c **** *
1791:.\Generated_Source\PSoC5/LED_Driver_Gear.c **** *******************************************************************************/
1792:.\Generated_Source\PSoC5/LED_Driver_Gear.c **** void LED_Driver_Gear_WriteString14Seg(char8 const character[], uint8 position)
1793:.\Generated_Source\PSoC5/LED_Driver_Gear.c **** 
1794:.\Generated_Source\PSoC5/LED_Driver_Gear.c **** {
1795:.\Generated_Source\PSoC5/LED_Driver_Gear.c ****     uint8 currPosition;
1796:.\Generated_Source\PSoC5/LED_Driver_Gear.c ****     uint8 sizeLimit;
1797:.\Generated_Source\PSoC5/LED_Driver_Gear.c ****     uint8 i = 0u;
1798:.\Generated_Source\PSoC5/LED_Driver_Gear.c ****     uint16 charDisplay;
1799:.\Generated_Source\PSoC5/LED_Driver_Gear.c ****     
1800:.\Generated_Source\PSoC5/LED_Driver_Gear.c ****     sizeLimit = (uint8)(strlen(character)) + position;
1801:.\Generated_Source\PSoC5/LED_Driver_Gear.c ****     
1802:.\Generated_Source\PSoC5/LED_Driver_Gear.c ****     for(currPosition = position; currPosition < LED_Driver_Gear_NUM_COM; currPosition++)
1803:.\Generated_Source\PSoC5/LED_Driver_Gear.c ****     {
1804:.\Generated_Source\PSoC5/LED_Driver_Gear.c ****         if(currPosition < sizeLimit)
1805:.\Generated_Source\PSoC5/LED_Driver_Gear.c ****         {
ARM GAS  C:\Users\charl\AppData\Local\Temp\ccrxE5Zl.s 			page 47


1806:.\Generated_Source\PSoC5/LED_Driver_Gear.c ****             charDisplay = LED_Driver_Gear_EncodeChar14Seg(character[i]);
1807:.\Generated_Source\PSoC5/LED_Driver_Gear.c ****             LED_Driver_Gear_segLBuffer[currPosition] = LO8(charDisplay);
1808:.\Generated_Source\PSoC5/LED_Driver_Gear.c ****             #if (LED_Driver_Gear_NUM_SEG > 8u)
1809:.\Generated_Source\PSoC5/LED_Driver_Gear.c ****             LED_Driver_Gear_segMBuffer[currPosition] = HI8(charDisplay);
1810:.\Generated_Source\PSoC5/LED_Driver_Gear.c ****             #endif /* (LED_Driver_Gear_NUM_SEG > 8u) */
1811:.\Generated_Source\PSoC5/LED_Driver_Gear.c ****             i++;
1812:.\Generated_Source\PSoC5/LED_Driver_Gear.c ****         }
1813:.\Generated_Source\PSoC5/LED_Driver_Gear.c ****     }
1814:.\Generated_Source\PSoC5/LED_Driver_Gear.c **** }
1815:.\Generated_Source\PSoC5/LED_Driver_Gear.c **** 
1816:.\Generated_Source\PSoC5/LED_Driver_Gear.c **** 
1817:.\Generated_Source\PSoC5/LED_Driver_Gear.c **** /*******************************************************************************
1818:.\Generated_Source\PSoC5/LED_Driver_Gear.c **** * Function Name: LED_Driver_Gear_PutChar14Seg
1819:.\Generated_Source\PSoC5/LED_Driver_Gear.c **** ********************************************************************************
1820:.\Generated_Source\PSoC5/LED_Driver_Gear.c **** *
1821:.\Generated_Source\PSoC5/LED_Driver_Gear.c **** * Summary:
1822:.\Generated_Source\PSoC5/LED_Driver_Gear.c **** *  Displays an ascii encoded character at 'position'. This function can display
1823:.\Generated_Source\PSoC5/LED_Driver_Gear.c **** *  all alphanumeric characters. The function can also display '-', '.', '_', 
1824:.\Generated_Source\PSoC5/LED_Driver_Gear.c **** *  ' ', and '='. All unknown characters are displayed as a space.
1825:.\Generated_Source\PSoC5/LED_Driver_Gear.c **** *
1826:.\Generated_Source\PSoC5/LED_Driver_Gear.c **** * Parameters:
1827:.\Generated_Source\PSoC5/LED_Driver_Gear.c **** *  char8 character: ASCII character.
1828:.\Generated_Source\PSoC5/LED_Driver_Gear.c **** *  uint8 position: The position of the character.
1829:.\Generated_Source\PSoC5/LED_Driver_Gear.c **** *
1830:.\Generated_Source\PSoC5/LED_Driver_Gear.c **** * Return:
1831:.\Generated_Source\PSoC5/LED_Driver_Gear.c **** *  None
1832:.\Generated_Source\PSoC5/LED_Driver_Gear.c **** *
1833:.\Generated_Source\PSoC5/LED_Driver_Gear.c **** * Side effects:
1834:.\Generated_Source\PSoC5/LED_Driver_Gear.c **** *  None
1835:.\Generated_Source\PSoC5/LED_Driver_Gear.c **** *
1836:.\Generated_Source\PSoC5/LED_Driver_Gear.c **** *******************************************************************************/
1837:.\Generated_Source\PSoC5/LED_Driver_Gear.c **** void LED_Driver_Gear_PutChar14Seg(char8 character , uint8 position)
1838:.\Generated_Source\PSoC5/LED_Driver_Gear.c **** 
1839:.\Generated_Source\PSoC5/LED_Driver_Gear.c **** {
1840:.\Generated_Source\PSoC5/LED_Driver_Gear.c ****     uint16 charDisplay;
1841:.\Generated_Source\PSoC5/LED_Driver_Gear.c ****     
1842:.\Generated_Source\PSoC5/LED_Driver_Gear.c ****     if(position < LED_Driver_Gear_NUM_COM)
1843:.\Generated_Source\PSoC5/LED_Driver_Gear.c ****     {
1844:.\Generated_Source\PSoC5/LED_Driver_Gear.c ****         charDisplay = LED_Driver_Gear_EncodeChar14Seg(character);
1845:.\Generated_Source\PSoC5/LED_Driver_Gear.c ****         LED_Driver_Gear_segLBuffer[position] = LO8(charDisplay);
1846:.\Generated_Source\PSoC5/LED_Driver_Gear.c ****     #if (LED_Driver_Gear_NUM_SEG > 8u)
1847:.\Generated_Source\PSoC5/LED_Driver_Gear.c ****         LED_Driver_Gear_segMBuffer[position] = HI8(charDisplay);
1848:.\Generated_Source\PSoC5/LED_Driver_Gear.c ****     #endif /* (LED_Driver_Gear_NUM_SEG > 8u) */
1849:.\Generated_Source\PSoC5/LED_Driver_Gear.c ****     }
1850:.\Generated_Source\PSoC5/LED_Driver_Gear.c **** }
1851:.\Generated_Source\PSoC5/LED_Driver_Gear.c **** 
1852:.\Generated_Source\PSoC5/LED_Driver_Gear.c **** 
1853:.\Generated_Source\PSoC5/LED_Driver_Gear.c **** /*******************************************************************************
1854:.\Generated_Source\PSoC5/LED_Driver_Gear.c **** * Function Name: LED_Driver_Gear_Write14SegDigitDec
1855:.\Generated_Source\PSoC5/LED_Driver_Gear.c **** ********************************************************************************
1856:.\Generated_Source\PSoC5/LED_Driver_Gear.c **** *
1857:.\Generated_Source\PSoC5/LED_Driver_Gear.c **** * Summary:
1858:.\Generated_Source\PSoC5/LED_Driver_Gear.c **** *  Displays a single digit on the specified display. The number in 'digit' 
1859:.\Generated_Source\PSoC5/LED_Driver_Gear.c **** *  (0-9) is placed on 'position'.
1860:.\Generated_Source\PSoC5/LED_Driver_Gear.c **** *
1861:.\Generated_Source\PSoC5/LED_Driver_Gear.c **** * Parameters:
1862:.\Generated_Source\PSoC5/LED_Driver_Gear.c **** *  uint8 digit: A number between 0 and 9 to display.
ARM GAS  C:\Users\charl\AppData\Local\Temp\ccrxE5Zl.s 			page 48


1863:.\Generated_Source\PSoC5/LED_Driver_Gear.c **** *  uint8 position: Position of the display in which to place the number.
1864:.\Generated_Source\PSoC5/LED_Driver_Gear.c **** *
1865:.\Generated_Source\PSoC5/LED_Driver_Gear.c **** * Return:
1866:.\Generated_Source\PSoC5/LED_Driver_Gear.c **** *  None
1867:.\Generated_Source\PSoC5/LED_Driver_Gear.c **** *
1868:.\Generated_Source\PSoC5/LED_Driver_Gear.c **** * Side effects:
1869:.\Generated_Source\PSoC5/LED_Driver_Gear.c **** *  None
1870:.\Generated_Source\PSoC5/LED_Driver_Gear.c **** *
1871:.\Generated_Source\PSoC5/LED_Driver_Gear.c **** *******************************************************************************/
1872:.\Generated_Source\PSoC5/LED_Driver_Gear.c **** void LED_Driver_Gear_Write14SegDigitDec(uint8 digit, uint8 position)
1873:.\Generated_Source\PSoC5/LED_Driver_Gear.c **** 
1874:.\Generated_Source\PSoC5/LED_Driver_Gear.c **** {
1875:.\Generated_Source\PSoC5/LED_Driver_Gear.c ****     uint16 charDisplay;
1876:.\Generated_Source\PSoC5/LED_Driver_Gear.c ****     
1877:.\Generated_Source\PSoC5/LED_Driver_Gear.c ****     if((digit < 10u) && (position < LED_Driver_Gear_NUM_COM))
1878:.\Generated_Source\PSoC5/LED_Driver_Gear.c ****     {
1879:.\Generated_Source\PSoC5/LED_Driver_Gear.c ****         charDisplay = LED_Driver_Gear_EncodeNumber14Seg(digit);
1880:.\Generated_Source\PSoC5/LED_Driver_Gear.c ****         LED_Driver_Gear_segLBuffer[position] = LO8(charDisplay);
1881:.\Generated_Source\PSoC5/LED_Driver_Gear.c ****     #if (LED_Driver_Gear_NUM_SEG > 8u)
1882:.\Generated_Source\PSoC5/LED_Driver_Gear.c ****         LED_Driver_Gear_segMBuffer[position] = HI8(charDisplay);
1883:.\Generated_Source\PSoC5/LED_Driver_Gear.c ****     #endif /* (LED_Driver_Gear_NUM_SEG > 8u) */
1884:.\Generated_Source\PSoC5/LED_Driver_Gear.c ****     }
1885:.\Generated_Source\PSoC5/LED_Driver_Gear.c **** }
1886:.\Generated_Source\PSoC5/LED_Driver_Gear.c **** 
1887:.\Generated_Source\PSoC5/LED_Driver_Gear.c **** 
1888:.\Generated_Source\PSoC5/LED_Driver_Gear.c **** /*******************************************************************************
1889:.\Generated_Source\PSoC5/LED_Driver_Gear.c **** * Function Name: LED_Driver_Gear_Write14SegDigitHex
1890:.\Generated_Source\PSoC5/LED_Driver_Gear.c **** ********************************************************************************
1891:.\Generated_Source\PSoC5/LED_Driver_Gear.c **** *
1892:.\Generated_Source\PSoC5/LED_Driver_Gear.c **** * Summary:
1893:.\Generated_Source\PSoC5/LED_Driver_Gear.c **** *  Displays a single digit at the specified position. The number in 'digit' 
1894:.\Generated_Source\PSoC5/LED_Driver_Gear.c **** *  (0-F) is placed on 'position'.
1895:.\Generated_Source\PSoC5/LED_Driver_Gear.c **** *
1896:.\Generated_Source\PSoC5/LED_Driver_Gear.c **** * Parameters:
1897:.\Generated_Source\PSoC5/LED_Driver_Gear.c **** *  uint8 digit: A number between 0x0 and 0xF (0 to 15)
1898:.\Generated_Source\PSoC5/LED_Driver_Gear.c **** *  uint8 position: The position in which to place the number.
1899:.\Generated_Source\PSoC5/LED_Driver_Gear.c **** *
1900:.\Generated_Source\PSoC5/LED_Driver_Gear.c **** * Return:
1901:.\Generated_Source\PSoC5/LED_Driver_Gear.c **** *  None
1902:.\Generated_Source\PSoC5/LED_Driver_Gear.c **** *
1903:.\Generated_Source\PSoC5/LED_Driver_Gear.c **** * Side effects:
1904:.\Generated_Source\PSoC5/LED_Driver_Gear.c **** *  None
1905:.\Generated_Source\PSoC5/LED_Driver_Gear.c **** *
1906:.\Generated_Source\PSoC5/LED_Driver_Gear.c **** *******************************************************************************/
1907:.\Generated_Source\PSoC5/LED_Driver_Gear.c **** void LED_Driver_Gear_Write14SegDigitHex(uint8 digit, uint8 position)
1908:.\Generated_Source\PSoC5/LED_Driver_Gear.c **** 
1909:.\Generated_Source\PSoC5/LED_Driver_Gear.c **** {
1910:.\Generated_Source\PSoC5/LED_Driver_Gear.c ****     uint16 charDisplay;
1911:.\Generated_Source\PSoC5/LED_Driver_Gear.c **** 
1912:.\Generated_Source\PSoC5/LED_Driver_Gear.c ****     if(position < LED_Driver_Gear_NUM_COM)
1913:.\Generated_Source\PSoC5/LED_Driver_Gear.c ****     {
1914:.\Generated_Source\PSoC5/LED_Driver_Gear.c ****         charDisplay = LED_Driver_Gear_EncodeNumber14Seg(digit);
1915:.\Generated_Source\PSoC5/LED_Driver_Gear.c ****         LED_Driver_Gear_segLBuffer[position] = LO8(charDisplay);
1916:.\Generated_Source\PSoC5/LED_Driver_Gear.c ****     #if (LED_Driver_Gear_NUM_SEG > 8u)
1917:.\Generated_Source\PSoC5/LED_Driver_Gear.c ****         LED_Driver_Gear_segMBuffer[position] = HI8(charDisplay);
1918:.\Generated_Source\PSoC5/LED_Driver_Gear.c ****     #endif /* (LED_Driver_Gear_NUM_SEG > 8u) */
1919:.\Generated_Source\PSoC5/LED_Driver_Gear.c ****     }
ARM GAS  C:\Users\charl\AppData\Local\Temp\ccrxE5Zl.s 			page 49


1920:.\Generated_Source\PSoC5/LED_Driver_Gear.c **** }
1921:.\Generated_Source\PSoC5/LED_Driver_Gear.c **** 
1922:.\Generated_Source\PSoC5/LED_Driver_Gear.c **** 
1923:.\Generated_Source\PSoC5/LED_Driver_Gear.c **** /*******************************************************************************
1924:.\Generated_Source\PSoC5/LED_Driver_Gear.c **** * Function Name: LED_Driver_Gear_Write16SegNumberDec
1925:.\Generated_Source\PSoC5/LED_Driver_Gear.c **** ********************************************************************************
1926:.\Generated_Source\PSoC5/LED_Driver_Gear.c **** *
1927:.\Generated_Source\PSoC5/LED_Driver_Gear.c **** * Summary:
1928:.\Generated_Source\PSoC5/LED_Driver_Gear.c **** *  Displays a signed integer up to 8 characters long, starting at 'position' 
1929:.\Generated_Source\PSoC5/LED_Driver_Gear.c **** *  and extending for 'digits' characters. The negative sign will take an extra 
1930:.\Generated_Source\PSoC5/LED_Driver_Gear.c **** *  digit if it is required.
1931:.\Generated_Source\PSoC5/LED_Driver_Gear.c **** *
1932:.\Generated_Source\PSoC5/LED_Driver_Gear.c **** * Parameters:
1933:.\Generated_Source\PSoC5/LED_Driver_Gear.c **** *  int32 number: a signed integer number to display. It is the responsibility 
1934:.\Generated_Source\PSoC5/LED_Driver_Gear.c **** *                of the user to ensure that the display has enough digits to 
1935:.\Generated_Source\PSoC5/LED_Driver_Gear.c **** *                accurately represent the number passed to this function. If 
1936:.\Generated_Source\PSoC5/LED_Driver_Gear.c **** *                not, the least significant digits will be displayed. Also 
1937:.\Generated_Source\PSoC5/LED_Driver_Gear.c **** *                note that a negative number will require 1 more digit than the
1938:.\Generated_Source\PSoC5/LED_Driver_Gear.c **** *                equivalent positive number to display the negative sign.
1939:.\Generated_Source\PSoC5/LED_Driver_Gear.c **** *  uint8 position: Digit position of the Display/Common RAM to start.
1940:.\Generated_Source\PSoC5/LED_Driver_Gear.c **** *  uint8 digits: The number of digits you wish to use to display the value 
1941:.\Generated_Source\PSoC5/LED_Driver_Gear.c **** *                passed into the function. The negative sign will take an extra 
1942:.\Generated_Source\PSoC5/LED_Driver_Gear.c **** *                digit if it is required.
1943:.\Generated_Source\PSoC5/LED_Driver_Gear.c **** *  uint8 alignment: How to align the provided number in the allocated digits.
1944:.\Generated_Source\PSoC5/LED_Driver_Gear.c **** *       RIGHT_ALIGN - Least significant digit occupies the rightmost digit
1945:.\Generated_Source\PSoC5/LED_Driver_Gear.c **** *                     (position + digits). Unused digits are turned off unless
1946:.\Generated_Source\PSoC5/LED_Driver_Gear.c **** *                     ZERO_PAD enabled.
1947:.\Generated_Source\PSoC5/LED_Driver_Gear.c **** *       LEFT_ALIGN - Most significant digit (or negative sign) occupies the
1948:.\Generated_Source\PSoC5/LED_Driver_Gear.c **** *                    digit specified by position. Unused digits are turned off.
1949:.\Generated_Source\PSoC5/LED_Driver_Gear.c **** *       ZERO_PAD - Unused digits to the left are padded with leading zeros.
1950:.\Generated_Source\PSoC5/LED_Driver_Gear.c **** * Return:
1951:.\Generated_Source\PSoC5/LED_Driver_Gear.c **** *  None
1952:.\Generated_Source\PSoC5/LED_Driver_Gear.c **** *
1953:.\Generated_Source\PSoC5/LED_Driver_Gear.c **** * Side effects:
1954:.\Generated_Source\PSoC5/LED_Driver_Gear.c **** *  None
1955:.\Generated_Source\PSoC5/LED_Driver_Gear.c **** *
1956:.\Generated_Source\PSoC5/LED_Driver_Gear.c **** *******************************************************************************/
1957:.\Generated_Source\PSoC5/LED_Driver_Gear.c **** void LED_Driver_Gear_Write16SegNumberDec(int32 number, uint8 position, uint8 digits, uint8 alignmen
1958:.\Generated_Source\PSoC5/LED_Driver_Gear.c **** 
1959:.\Generated_Source\PSoC5/LED_Driver_Gear.c **** {
1960:.\Generated_Source\PSoC5/LED_Driver_Gear.c ****     uint8 i;
1961:.\Generated_Source\PSoC5/LED_Driver_Gear.c ****     uint8 relPosition;
1962:.\Generated_Source\PSoC5/LED_Driver_Gear.c ****     uint8 numberSign;
1963:.\Generated_Source\PSoC5/LED_Driver_Gear.c ****     uint8 selectVal;
1964:.\Generated_Source\PSoC5/LED_Driver_Gear.c ****     uint8 zeroCount = 0u;
1965:.\Generated_Source\PSoC5/LED_Driver_Gear.c ****     uint16 bufArray[8u] = {0u};
1966:.\Generated_Source\PSoC5/LED_Driver_Gear.c ****     uint32 numberVal;
1967:.\Generated_Source\PSoC5/LED_Driver_Gear.c ****     
1968:.\Generated_Source\PSoC5/LED_Driver_Gear.c ****     /* Routine to extract the sign and to convert to unsigned */
1969:.\Generated_Source\PSoC5/LED_Driver_Gear.c ****     if(number >= LED_Driver_Gear_ZERO_NEG)
1970:.\Generated_Source\PSoC5/LED_Driver_Gear.c ****     {
1971:.\Generated_Source\PSoC5/LED_Driver_Gear.c ****         numberVal = (uint32)number;
1972:.\Generated_Source\PSoC5/LED_Driver_Gear.c ****         numberSign = LED_Driver_Gear_UNSIGNED;
1973:.\Generated_Source\PSoC5/LED_Driver_Gear.c ****     }
1974:.\Generated_Source\PSoC5/LED_Driver_Gear.c ****     else
1975:.\Generated_Source\PSoC5/LED_Driver_Gear.c ****     {
1976:.\Generated_Source\PSoC5/LED_Driver_Gear.c ****         numberVal = (uint32)(-number);
ARM GAS  C:\Users\charl\AppData\Local\Temp\ccrxE5Zl.s 			page 50


1977:.\Generated_Source\PSoC5/LED_Driver_Gear.c ****         numberSign = LED_Driver_Gear_SIGNED;
1978:.\Generated_Source\PSoC5/LED_Driver_Gear.c ****     }
1979:.\Generated_Source\PSoC5/LED_Driver_Gear.c ****     
1980:.\Generated_Source\PSoC5/LED_Driver_Gear.c ****     /* Fill up the temporary array */
1981:.\Generated_Source\PSoC5/LED_Driver_Gear.c ****     for(i = digits; i > 0u; i--)
1982:.\Generated_Source\PSoC5/LED_Driver_Gear.c ****     {
1983:.\Generated_Source\PSoC5/LED_Driver_Gear.c ****         selectVal = (uint8)(numberVal % 10u);
1984:.\Generated_Source\PSoC5/LED_Driver_Gear.c ****         bufArray[i-1u] = LED_Driver_Gear_EncodeNumber16Seg(selectVal);
1985:.\Generated_Source\PSoC5/LED_Driver_Gear.c ****         numberVal = numberVal / 10u;
1986:.\Generated_Source\PSoC5/LED_Driver_Gear.c ****     }
1987:.\Generated_Source\PSoC5/LED_Driver_Gear.c ****     
1988:.\Generated_Source\PSoC5/LED_Driver_Gear.c ****     /* Clean up the array and place sign if needed */
1989:.\Generated_Source\PSoC5/LED_Driver_Gear.c ****     if(alignment == LED_Driver_Gear_ZERO_PAD)
1990:.\Generated_Source\PSoC5/LED_Driver_Gear.c ****     {
1991:.\Generated_Source\PSoC5/LED_Driver_Gear.c ****         if(numberSign == LED_Driver_Gear_SIGNED)
1992:.\Generated_Source\PSoC5/LED_Driver_Gear.c ****         {
1993:.\Generated_Source\PSoC5/LED_Driver_Gear.c ****             /* Place sign on the MSB */
1994:.\Generated_Source\PSoC5/LED_Driver_Gear.c ****             bufArray[0u] = LED_Driver_Gear_EncodeChar16Seg('-');
1995:.\Generated_Source\PSoC5/LED_Driver_Gear.c ****         }
1996:.\Generated_Source\PSoC5/LED_Driver_Gear.c ****     }
1997:.\Generated_Source\PSoC5/LED_Driver_Gear.c ****     else
1998:.\Generated_Source\PSoC5/LED_Driver_Gear.c ****     {
1999:.\Generated_Source\PSoC5/LED_Driver_Gear.c ****         for(i = 0u; i < digits; i++)
2000:.\Generated_Source\PSoC5/LED_Driver_Gear.c ****         {
2001:.\Generated_Source\PSoC5/LED_Driver_Gear.c ****             if (bufArray[i] != LED_Driver_Gear_ZERO_16CHAR)
2002:.\Generated_Source\PSoC5/LED_Driver_Gear.c ****             {
2003:.\Generated_Source\PSoC5/LED_Driver_Gear.c ****                 if(numberSign == LED_Driver_Gear_SIGNED)
2004:.\Generated_Source\PSoC5/LED_Driver_Gear.c ****                 {
2005:.\Generated_Source\PSoC5/LED_Driver_Gear.c ****                     if(i == 0u)
2006:.\Generated_Source\PSoC5/LED_Driver_Gear.c ****                     {
2007:.\Generated_Source\PSoC5/LED_Driver_Gear.c ****                         /* Place sign on the MSB */
2008:.\Generated_Source\PSoC5/LED_Driver_Gear.c ****                         bufArray[i] = LED_Driver_Gear_EncodeChar16Seg('-');
2009:.\Generated_Source\PSoC5/LED_Driver_Gear.c ****                     }
2010:.\Generated_Source\PSoC5/LED_Driver_Gear.c ****                     else
2011:.\Generated_Source\PSoC5/LED_Driver_Gear.c ****                     {
2012:.\Generated_Source\PSoC5/LED_Driver_Gear.c ****                         /* Place sign before MSB */
2013:.\Generated_Source\PSoC5/LED_Driver_Gear.c ****                         bufArray[i-1u] = LED_Driver_Gear_EncodeChar16Seg('-');
2014:.\Generated_Source\PSoC5/LED_Driver_Gear.c ****                     }
2015:.\Generated_Source\PSoC5/LED_Driver_Gear.c ****                 }
2016:.\Generated_Source\PSoC5/LED_Driver_Gear.c ****                 /* Exit when encountering non-zero number */
2017:.\Generated_Source\PSoC5/LED_Driver_Gear.c ****                 break;
2018:.\Generated_Source\PSoC5/LED_Driver_Gear.c ****             }
2019:.\Generated_Source\PSoC5/LED_Driver_Gear.c ****             else
2020:.\Generated_Source\PSoC5/LED_Driver_Gear.c ****             {
2021:.\Generated_Source\PSoC5/LED_Driver_Gear.c ****                 if(zeroCount != (digits - 1u))
2022:.\Generated_Source\PSoC5/LED_Driver_Gear.c ****                 {
2023:.\Generated_Source\PSoC5/LED_Driver_Gear.c ****                     /* Turn off the display */
2024:.\Generated_Source\PSoC5/LED_Driver_Gear.c ****                     bufArray[i] = LED_Driver_Gear_CLEAR_16;
2025:.\Generated_Source\PSoC5/LED_Driver_Gear.c ****                     zeroCount++;
2026:.\Generated_Source\PSoC5/LED_Driver_Gear.c ****                 }
2027:.\Generated_Source\PSoC5/LED_Driver_Gear.c ****             }    
2028:.\Generated_Source\PSoC5/LED_Driver_Gear.c ****         }
2029:.\Generated_Source\PSoC5/LED_Driver_Gear.c ****     }
2030:.\Generated_Source\PSoC5/LED_Driver_Gear.c ****     
2031:.\Generated_Source\PSoC5/LED_Driver_Gear.c ****     relPosition = position;
2032:.\Generated_Source\PSoC5/LED_Driver_Gear.c ****     
2033:.\Generated_Source\PSoC5/LED_Driver_Gear.c ****     /* Place the values in the segment array according to alignment */
ARM GAS  C:\Users\charl\AppData\Local\Temp\ccrxE5Zl.s 			page 51


2034:.\Generated_Source\PSoC5/LED_Driver_Gear.c ****     if(alignment == LED_Driver_Gear_LEFT_ALIGN)
2035:.\Generated_Source\PSoC5/LED_Driver_Gear.c ****     {
2036:.\Generated_Source\PSoC5/LED_Driver_Gear.c ****         for(i = 0u; i < digits; i++)
2037:.\Generated_Source\PSoC5/LED_Driver_Gear.c ****         {
2038:.\Generated_Source\PSoC5/LED_Driver_Gear.c ****             if(bufArray[i] != LED_Driver_Gear_CLEAR_16)
2039:.\Generated_Source\PSoC5/LED_Driver_Gear.c ****             {
2040:.\Generated_Source\PSoC5/LED_Driver_Gear.c ****                 if(relPosition < LED_Driver_Gear_NUM_COM)
2041:.\Generated_Source\PSoC5/LED_Driver_Gear.c ****                 {
2042:.\Generated_Source\PSoC5/LED_Driver_Gear.c ****                     /* Only show displays that are not empty */
2043:.\Generated_Source\PSoC5/LED_Driver_Gear.c ****                     LED_Driver_Gear_segLBuffer[relPosition] = LO8(bufArray[i]);
2044:.\Generated_Source\PSoC5/LED_Driver_Gear.c ****                 #if (LED_Driver_Gear_NUM_SEG > 8u)
2045:.\Generated_Source\PSoC5/LED_Driver_Gear.c ****                     LED_Driver_Gear_segMBuffer[relPosition] = HI8(bufArray[i]);
2046:.\Generated_Source\PSoC5/LED_Driver_Gear.c ****                 #endif /* (LED_Driver_Gear_NUM_SEG > 8u) */
2047:.\Generated_Source\PSoC5/LED_Driver_Gear.c ****                 }
2048:.\Generated_Source\PSoC5/LED_Driver_Gear.c ****                 relPosition++;
2049:.\Generated_Source\PSoC5/LED_Driver_Gear.c ****             }
2050:.\Generated_Source\PSoC5/LED_Driver_Gear.c ****         }
2051:.\Generated_Source\PSoC5/LED_Driver_Gear.c ****         /* Clear the rest of the positions to the right of value */
2052:.\Generated_Source\PSoC5/LED_Driver_Gear.c ****         while(relPosition < digits)
2053:.\Generated_Source\PSoC5/LED_Driver_Gear.c ****         {
2054:.\Generated_Source\PSoC5/LED_Driver_Gear.c ****             /* Only show displays that are not empty */
2055:.\Generated_Source\PSoC5/LED_Driver_Gear.c ****             LED_Driver_Gear_segLBuffer[relPosition] = LED_Driver_Gear_CLEAR;
2056:.\Generated_Source\PSoC5/LED_Driver_Gear.c ****             #if (LED_Driver_Gear_NUM_SEG > 8u)
2057:.\Generated_Source\PSoC5/LED_Driver_Gear.c ****                 LED_Driver_Gear_segMBuffer[relPosition] = LED_Driver_Gear_CLEAR;
2058:.\Generated_Source\PSoC5/LED_Driver_Gear.c ****             #endif /* (LED_Driver_Gear_NUM_SEG > 8u) */
2059:.\Generated_Source\PSoC5/LED_Driver_Gear.c ****             
2060:.\Generated_Source\PSoC5/LED_Driver_Gear.c ****             relPosition++;
2061:.\Generated_Source\PSoC5/LED_Driver_Gear.c ****         }
2062:.\Generated_Source\PSoC5/LED_Driver_Gear.c ****     }
2063:.\Generated_Source\PSoC5/LED_Driver_Gear.c ****     else
2064:.\Generated_Source\PSoC5/LED_Driver_Gear.c ****     {
2065:.\Generated_Source\PSoC5/LED_Driver_Gear.c ****         for(i = digits; i > 0u; i--)
2066:.\Generated_Source\PSoC5/LED_Driver_Gear.c ****         {
2067:.\Generated_Source\PSoC5/LED_Driver_Gear.c ****             if(((i + relPosition) - 1u) < LED_Driver_Gear_NUM_COM)
2068:.\Generated_Source\PSoC5/LED_Driver_Gear.c ****             {
2069:.\Generated_Source\PSoC5/LED_Driver_Gear.c ****                 LED_Driver_Gear_segLBuffer[(i + relPosition) - 1u] = LO8(bufArray[i-1u]);
2070:.\Generated_Source\PSoC5/LED_Driver_Gear.c ****             #if (LED_Driver_Gear_NUM_SEG > 8u)
2071:.\Generated_Source\PSoC5/LED_Driver_Gear.c ****                 LED_Driver_Gear_segMBuffer[(i + relPosition) - 1u] = HI8(bufArray[i-1u]);
2072:.\Generated_Source\PSoC5/LED_Driver_Gear.c ****             #endif /* (LED_Driver_Gear_NUM_SEG > 8u) */
2073:.\Generated_Source\PSoC5/LED_Driver_Gear.c ****             }
2074:.\Generated_Source\PSoC5/LED_Driver_Gear.c ****         }
2075:.\Generated_Source\PSoC5/LED_Driver_Gear.c ****     }
2076:.\Generated_Source\PSoC5/LED_Driver_Gear.c **** }
2077:.\Generated_Source\PSoC5/LED_Driver_Gear.c **** 
2078:.\Generated_Source\PSoC5/LED_Driver_Gear.c **** 
2079:.\Generated_Source\PSoC5/LED_Driver_Gear.c **** /*******************************************************************************
2080:.\Generated_Source\PSoC5/LED_Driver_Gear.c **** * Function Name: LED_Driver_Gear_Write16SegNumberHex
2081:.\Generated_Source\PSoC5/LED_Driver_Gear.c **** ********************************************************************************
2082:.\Generated_Source\PSoC5/LED_Driver_Gear.c **** *
2083:.\Generated_Source\PSoC5/LED_Driver_Gear.c **** * Summary:
2084:.\Generated_Source\PSoC5/LED_Driver_Gear.c **** *  Displays a hexadecimal number up to 8 characters long, starting at 'position'
2085:.\Generated_Source\PSoC5/LED_Driver_Gear.c **** *  and extending for 'digits' characters. If you do not use the correct number 
2086:.\Generated_Source\PSoC5/LED_Driver_Gear.c **** *  of digits for your number, the least significant digits will be displayed. 
2087:.\Generated_Source\PSoC5/LED_Driver_Gear.c **** *  For example, if value is 0xDEADBEEF, display is 0 and digits is 4, the result
2088:.\Generated_Source\PSoC5/LED_Driver_Gear.c **** *  will be: BEEF.
2089:.\Generated_Source\PSoC5/LED_Driver_Gear.c **** *
2090:.\Generated_Source\PSoC5/LED_Driver_Gear.c **** * Parameters:
ARM GAS  C:\Users\charl\AppData\Local\Temp\ccrxE5Zl.s 			page 52


2091:.\Generated_Source\PSoC5/LED_Driver_Gear.c **** *  uint32 number: The hexadecimal number to display. It is the responsibility of
2092:.\Generated_Source\PSoC5/LED_Driver_Gear.c **** *  the user to ensure that the display has enough digits to accurately represent
2093:.\Generated_Source\PSoC5/LED_Driver_Gear.c **** *  the number passed to this function.
2094:.\Generated_Source\PSoC5/LED_Driver_Gear.c **** *  uint8 position: Position of the Display/Common to start number.
2095:.\Generated_Source\PSoC5/LED_Driver_Gear.c **** *  uint8 digits: The number of digits you wish to use to display the value 
2096:.\Generated_Source\PSoC5/LED_Driver_Gear.c **** *                passed into the function.
2097:.\Generated_Source\PSoC5/LED_Driver_Gear.c **** *  uint8 alignment: How to align the provided number in the allocated digits.
2098:.\Generated_Source\PSoC5/LED_Driver_Gear.c **** *       RIGHT_ALIGN - Least significant digit occupies the rightmost digit
2099:.\Generated_Source\PSoC5/LED_Driver_Gear.c **** *                     (position + digits). Unused digits are turned off unless
2100:.\Generated_Source\PSoC5/LED_Driver_Gear.c **** *                     ZERO_PAD enabled.
2101:.\Generated_Source\PSoC5/LED_Driver_Gear.c **** *       LEFT_ALIGN - Most significant digit (or negative sign) occupies the
2102:.\Generated_Source\PSoC5/LED_Driver_Gear.c **** *                    digit specified by position. Unused digits are turned off.
2103:.\Generated_Source\PSoC5/LED_Driver_Gear.c **** *       ZERO_PAD - Unused digits to the left are padded with leading zeros.
2104:.\Generated_Source\PSoC5/LED_Driver_Gear.c **** * Return:
2105:.\Generated_Source\PSoC5/LED_Driver_Gear.c **** *  None
2106:.\Generated_Source\PSoC5/LED_Driver_Gear.c **** *
2107:.\Generated_Source\PSoC5/LED_Driver_Gear.c **** * Side effects:
2108:.\Generated_Source\PSoC5/LED_Driver_Gear.c **** *  None
2109:.\Generated_Source\PSoC5/LED_Driver_Gear.c **** *
2110:.\Generated_Source\PSoC5/LED_Driver_Gear.c **** *******************************************************************************/
2111:.\Generated_Source\PSoC5/LED_Driver_Gear.c **** void LED_Driver_Gear_Write16SegNumberHex(uint32 number, uint8 position, uint8 digits, uint8 alignme
2112:.\Generated_Source\PSoC5/LED_Driver_Gear.c **** 
2113:.\Generated_Source\PSoC5/LED_Driver_Gear.c **** {
2114:.\Generated_Source\PSoC5/LED_Driver_Gear.c ****     uint8 i;
2115:.\Generated_Source\PSoC5/LED_Driver_Gear.c ****     uint8 relPosition;
2116:.\Generated_Source\PSoC5/LED_Driver_Gear.c ****     uint8 selectVal;
2117:.\Generated_Source\PSoC5/LED_Driver_Gear.c ****     uint16 bufArray[8u] = {0u};
2118:.\Generated_Source\PSoC5/LED_Driver_Gear.c ****     uint32 numberVal;
2119:.\Generated_Source\PSoC5/LED_Driver_Gear.c ****     
2120:.\Generated_Source\PSoC5/LED_Driver_Gear.c ****     numberVal = number;
2121:.\Generated_Source\PSoC5/LED_Driver_Gear.c ****     
2122:.\Generated_Source\PSoC5/LED_Driver_Gear.c ****     /* Fill up the temporary array */
2123:.\Generated_Source\PSoC5/LED_Driver_Gear.c ****     for(i = digits; i > 0u; i--)
2124:.\Generated_Source\PSoC5/LED_Driver_Gear.c ****     {
2125:.\Generated_Source\PSoC5/LED_Driver_Gear.c ****         selectVal = (uint8)((uint8)numberVal & LED_Driver_Gear_NIBBLE_MASK);
2126:.\Generated_Source\PSoC5/LED_Driver_Gear.c ****         bufArray[i-1u] = LED_Driver_Gear_EncodeNumber16Seg(selectVal);
2127:.\Generated_Source\PSoC5/LED_Driver_Gear.c ****         numberVal = (uint32)((uint32)numberVal >> LED_Driver_Gear_SHIFT_NIBBLE);
2128:.\Generated_Source\PSoC5/LED_Driver_Gear.c ****     }
2129:.\Generated_Source\PSoC5/LED_Driver_Gear.c ****     
2130:.\Generated_Source\PSoC5/LED_Driver_Gear.c ****     /* Clean up the array and place sign if needed */
2131:.\Generated_Source\PSoC5/LED_Driver_Gear.c ****     for(i = 0u; i < digits; i++)
2132:.\Generated_Source\PSoC5/LED_Driver_Gear.c ****     {
2133:.\Generated_Source\PSoC5/LED_Driver_Gear.c ****         if (bufArray[i] != LED_Driver_Gear_ZERO_16CHAR)
2134:.\Generated_Source\PSoC5/LED_Driver_Gear.c ****         {
2135:.\Generated_Source\PSoC5/LED_Driver_Gear.c ****             /* Exit when encountering non-zero number */
2136:.\Generated_Source\PSoC5/LED_Driver_Gear.c ****             break;
2137:.\Generated_Source\PSoC5/LED_Driver_Gear.c ****         }
2138:.\Generated_Source\PSoC5/LED_Driver_Gear.c ****         else
2139:.\Generated_Source\PSoC5/LED_Driver_Gear.c ****         {
2140:.\Generated_Source\PSoC5/LED_Driver_Gear.c ****             /* Turn off the display */
2141:.\Generated_Source\PSoC5/LED_Driver_Gear.c ****             bufArray[i] = LED_Driver_Gear_CLEAR_16;
2142:.\Generated_Source\PSoC5/LED_Driver_Gear.c ****         }    
2143:.\Generated_Source\PSoC5/LED_Driver_Gear.c ****     }
2144:.\Generated_Source\PSoC5/LED_Driver_Gear.c ****     
2145:.\Generated_Source\PSoC5/LED_Driver_Gear.c ****     relPosition = position;
2146:.\Generated_Source\PSoC5/LED_Driver_Gear.c ****     
2147:.\Generated_Source\PSoC5/LED_Driver_Gear.c ****     /* Place the values in the segment array according to alignment */
ARM GAS  C:\Users\charl\AppData\Local\Temp\ccrxE5Zl.s 			page 53


2148:.\Generated_Source\PSoC5/LED_Driver_Gear.c ****     if(alignment == LED_Driver_Gear_LEFT_ALIGN)
2149:.\Generated_Source\PSoC5/LED_Driver_Gear.c ****     {
2150:.\Generated_Source\PSoC5/LED_Driver_Gear.c ****         for(i = 0u; i < digits; i++)
2151:.\Generated_Source\PSoC5/LED_Driver_Gear.c ****         {
2152:.\Generated_Source\PSoC5/LED_Driver_Gear.c ****             if(bufArray[i] != LED_Driver_Gear_CLEAR_16)
2153:.\Generated_Source\PSoC5/LED_Driver_Gear.c ****             {
2154:.\Generated_Source\PSoC5/LED_Driver_Gear.c ****                 if(relPosition < LED_Driver_Gear_NUM_COM)
2155:.\Generated_Source\PSoC5/LED_Driver_Gear.c ****                 {
2156:.\Generated_Source\PSoC5/LED_Driver_Gear.c ****                     /* Only show displays that are not empty */
2157:.\Generated_Source\PSoC5/LED_Driver_Gear.c ****                     LED_Driver_Gear_segLBuffer[relPosition] = LO8(bufArray[i]);
2158:.\Generated_Source\PSoC5/LED_Driver_Gear.c ****                 #if (LED_Driver_Gear_NUM_SEG > 8u)
2159:.\Generated_Source\PSoC5/LED_Driver_Gear.c ****                     LED_Driver_Gear_segMBuffer[relPosition] = HI8(bufArray[i]);
2160:.\Generated_Source\PSoC5/LED_Driver_Gear.c ****                 #endif /* (LED_Driver_Gear_NUM_SEG > 8u) */
2161:.\Generated_Source\PSoC5/LED_Driver_Gear.c ****                 }
2162:.\Generated_Source\PSoC5/LED_Driver_Gear.c ****                 relPosition++;
2163:.\Generated_Source\PSoC5/LED_Driver_Gear.c ****             }
2164:.\Generated_Source\PSoC5/LED_Driver_Gear.c ****         }
2165:.\Generated_Source\PSoC5/LED_Driver_Gear.c ****         /* Clear the rest of the positions to the right of value */
2166:.\Generated_Source\PSoC5/LED_Driver_Gear.c ****         while(relPosition < digits)
2167:.\Generated_Source\PSoC5/LED_Driver_Gear.c ****         {
2168:.\Generated_Source\PSoC5/LED_Driver_Gear.c ****             /* Only show displays that are not empty */
2169:.\Generated_Source\PSoC5/LED_Driver_Gear.c ****             LED_Driver_Gear_segLBuffer[relPosition] = LED_Driver_Gear_CLEAR;
2170:.\Generated_Source\PSoC5/LED_Driver_Gear.c ****             #if (LED_Driver_Gear_NUM_SEG > 8u)
2171:.\Generated_Source\PSoC5/LED_Driver_Gear.c ****                 LED_Driver_Gear_segMBuffer[relPosition] = LED_Driver_Gear_CLEAR;
2172:.\Generated_Source\PSoC5/LED_Driver_Gear.c ****             #endif /* (LED_Driver_Gear_NUM_SEG > 8u) */
2173:.\Generated_Source\PSoC5/LED_Driver_Gear.c ****             
2174:.\Generated_Source\PSoC5/LED_Driver_Gear.c ****             relPosition++;
2175:.\Generated_Source\PSoC5/LED_Driver_Gear.c ****         }
2176:.\Generated_Source\PSoC5/LED_Driver_Gear.c ****     }
2177:.\Generated_Source\PSoC5/LED_Driver_Gear.c ****     else
2178:.\Generated_Source\PSoC5/LED_Driver_Gear.c ****     {
2179:.\Generated_Source\PSoC5/LED_Driver_Gear.c ****         for(i = digits; i > 0u; i--)
2180:.\Generated_Source\PSoC5/LED_Driver_Gear.c ****         {
2181:.\Generated_Source\PSoC5/LED_Driver_Gear.c ****             if(((i + relPosition) - 1u) < LED_Driver_Gear_NUM_COM)
2182:.\Generated_Source\PSoC5/LED_Driver_Gear.c ****             {
2183:.\Generated_Source\PSoC5/LED_Driver_Gear.c ****                 LED_Driver_Gear_segLBuffer[(i + relPosition) - 1u] = LO8(bufArray[i-1u]);
2184:.\Generated_Source\PSoC5/LED_Driver_Gear.c ****             #if (LED_Driver_Gear_NUM_SEG > 8u)
2185:.\Generated_Source\PSoC5/LED_Driver_Gear.c ****                 LED_Driver_Gear_segMBuffer[(i + relPosition) - 1u] = HI8(bufArray[i-1u]);
2186:.\Generated_Source\PSoC5/LED_Driver_Gear.c ****             #endif /* (LED_Driver_Gear_NUM_SEG > 8u) */
2187:.\Generated_Source\PSoC5/LED_Driver_Gear.c ****             }
2188:.\Generated_Source\PSoC5/LED_Driver_Gear.c ****         }
2189:.\Generated_Source\PSoC5/LED_Driver_Gear.c ****     }
2190:.\Generated_Source\PSoC5/LED_Driver_Gear.c **** }
2191:.\Generated_Source\PSoC5/LED_Driver_Gear.c **** 
2192:.\Generated_Source\PSoC5/LED_Driver_Gear.c **** 
2193:.\Generated_Source\PSoC5/LED_Driver_Gear.c **** /*******************************************************************************
2194:.\Generated_Source\PSoC5/LED_Driver_Gear.c **** * Function Name: LED_Driver_Gear_WriteString16Seg
2195:.\Generated_Source\PSoC5/LED_Driver_Gear.c **** ********************************************************************************
2196:.\Generated_Source\PSoC5/LED_Driver_Gear.c **** *
2197:.\Generated_Source\PSoC5/LED_Driver_Gear.c **** * Summary:
2198:.\Generated_Source\PSoC5/LED_Driver_Gear.c **** *  Displays a null terminated string starting at 'position' and ending at either
2199:.\Generated_Source\PSoC5/LED_Driver_Gear.c **** *  the  the string or the  the display. The displayable characters 
2200:.\Generated_Source\PSoC5/LED_Driver_Gear.c **** *  are the same for the LED_Driver_PutCharacter() function. Non-displayable
2201:.\Generated_Source\PSoC5/LED_Driver_Gear.c **** *  characters will produce a blank space.
2202:.\Generated_Source\PSoC5/LED_Driver_Gear.c **** *
2203:.\Generated_Source\PSoC5/LED_Driver_Gear.c **** * Parameters:
2204:.\Generated_Source\PSoC5/LED_Driver_Gear.c **** *  char8 const character[]: The null terminated string to be displayed.
ARM GAS  C:\Users\charl\AppData\Local\Temp\ccrxE5Zl.s 			page 54


2205:.\Generated_Source\PSoC5/LED_Driver_Gear.c **** *  uint8 position: The position to start the string.
2206:.\Generated_Source\PSoC5/LED_Driver_Gear.c **** * Return:
2207:.\Generated_Source\PSoC5/LED_Driver_Gear.c **** *  None
2208:.\Generated_Source\PSoC5/LED_Driver_Gear.c **** *
2209:.\Generated_Source\PSoC5/LED_Driver_Gear.c **** * Side effects:
2210:.\Generated_Source\PSoC5/LED_Driver_Gear.c **** *  None
2211:.\Generated_Source\PSoC5/LED_Driver_Gear.c **** *
2212:.\Generated_Source\PSoC5/LED_Driver_Gear.c **** *******************************************************************************/
2213:.\Generated_Source\PSoC5/LED_Driver_Gear.c **** void LED_Driver_Gear_WriteString16Seg(char8 const character[], uint8 position)
2214:.\Generated_Source\PSoC5/LED_Driver_Gear.c **** 
2215:.\Generated_Source\PSoC5/LED_Driver_Gear.c **** {
2216:.\Generated_Source\PSoC5/LED_Driver_Gear.c ****     uint8 currPosition;
2217:.\Generated_Source\PSoC5/LED_Driver_Gear.c ****     uint8 sizeLimit;
2218:.\Generated_Source\PSoC5/LED_Driver_Gear.c ****     uint8 i = 0u;
2219:.\Generated_Source\PSoC5/LED_Driver_Gear.c ****     uint16 charDisplay;
2220:.\Generated_Source\PSoC5/LED_Driver_Gear.c ****     
2221:.\Generated_Source\PSoC5/LED_Driver_Gear.c ****     sizeLimit = (uint8)(strlen(character)) + position;
2222:.\Generated_Source\PSoC5/LED_Driver_Gear.c ****     
2223:.\Generated_Source\PSoC5/LED_Driver_Gear.c ****     for(currPosition = position; currPosition < LED_Driver_Gear_NUM_COM; currPosition++)
2224:.\Generated_Source\PSoC5/LED_Driver_Gear.c ****     {
2225:.\Generated_Source\PSoC5/LED_Driver_Gear.c ****         if(currPosition < sizeLimit)
2226:.\Generated_Source\PSoC5/LED_Driver_Gear.c ****         {
2227:.\Generated_Source\PSoC5/LED_Driver_Gear.c ****             charDisplay = LED_Driver_Gear_EncodeChar16Seg(character[i]);
2228:.\Generated_Source\PSoC5/LED_Driver_Gear.c ****             LED_Driver_Gear_segLBuffer[currPosition] = LO8(charDisplay);
2229:.\Generated_Source\PSoC5/LED_Driver_Gear.c ****             #if (LED_Driver_Gear_NUM_SEG > 8u)
2230:.\Generated_Source\PSoC5/LED_Driver_Gear.c ****                 LED_Driver_Gear_segMBuffer[currPosition] = HI8(charDisplay);
2231:.\Generated_Source\PSoC5/LED_Driver_Gear.c ****             #endif /* (LED_Driver_Gear_NUM_SEG > 8u) */
2232:.\Generated_Source\PSoC5/LED_Driver_Gear.c ****             i++;
2233:.\Generated_Source\PSoC5/LED_Driver_Gear.c ****         }
2234:.\Generated_Source\PSoC5/LED_Driver_Gear.c ****     }
2235:.\Generated_Source\PSoC5/LED_Driver_Gear.c **** }
2236:.\Generated_Source\PSoC5/LED_Driver_Gear.c **** 
2237:.\Generated_Source\PSoC5/LED_Driver_Gear.c **** 
2238:.\Generated_Source\PSoC5/LED_Driver_Gear.c **** /*******************************************************************************
2239:.\Generated_Source\PSoC5/LED_Driver_Gear.c **** * Function Name: LED_Driver_Gear_PutChar16Seg
2240:.\Generated_Source\PSoC5/LED_Driver_Gear.c **** ********************************************************************************
2241:.\Generated_Source\PSoC5/LED_Driver_Gear.c **** *
2242:.\Generated_Source\PSoC5/LED_Driver_Gear.c **** * Summary:
2243:.\Generated_Source\PSoC5/LED_Driver_Gear.c **** *  Displays an ascii encoded character at 'position'. This function can display 
2244:.\Generated_Source\PSoC5/LED_Driver_Gear.c **** *  all alphanumeric characters. The function can also display '-', '.', '_', 
2245:.\Generated_Source\PSoC5/LED_Driver_Gear.c **** *  ' ', and '='. All unknown characters are displayed as a space.
2246:.\Generated_Source\PSoC5/LED_Driver_Gear.c **** *
2247:.\Generated_Source\PSoC5/LED_Driver_Gear.c **** * Parameters:
2248:.\Generated_Source\PSoC5/LED_Driver_Gear.c **** *  char8 character: ASCII character.
2249:.\Generated_Source\PSoC5/LED_Driver_Gear.c **** *  uint8 position: The position of the character.
2250:.\Generated_Source\PSoC5/LED_Driver_Gear.c **** * Return:
2251:.\Generated_Source\PSoC5/LED_Driver_Gear.c **** *  None
2252:.\Generated_Source\PSoC5/LED_Driver_Gear.c **** *
2253:.\Generated_Source\PSoC5/LED_Driver_Gear.c **** * Side effects:
2254:.\Generated_Source\PSoC5/LED_Driver_Gear.c **** *  None
2255:.\Generated_Source\PSoC5/LED_Driver_Gear.c **** *
2256:.\Generated_Source\PSoC5/LED_Driver_Gear.c **** *******************************************************************************/
2257:.\Generated_Source\PSoC5/LED_Driver_Gear.c **** void LED_Driver_Gear_PutChar16Seg(char8 character , uint8 position)
2258:.\Generated_Source\PSoC5/LED_Driver_Gear.c **** 
2259:.\Generated_Source\PSoC5/LED_Driver_Gear.c **** {
2260:.\Generated_Source\PSoC5/LED_Driver_Gear.c ****     uint16 charDisplay;
2261:.\Generated_Source\PSoC5/LED_Driver_Gear.c ****     
ARM GAS  C:\Users\charl\AppData\Local\Temp\ccrxE5Zl.s 			page 55


2262:.\Generated_Source\PSoC5/LED_Driver_Gear.c ****     if(position < LED_Driver_Gear_NUM_COM)
2263:.\Generated_Source\PSoC5/LED_Driver_Gear.c ****     {
2264:.\Generated_Source\PSoC5/LED_Driver_Gear.c ****         charDisplay = LED_Driver_Gear_EncodeChar16Seg(character);
2265:.\Generated_Source\PSoC5/LED_Driver_Gear.c ****         LED_Driver_Gear_segLBuffer[position] = LO8(charDisplay);
2266:.\Generated_Source\PSoC5/LED_Driver_Gear.c ****         #if (LED_Driver_Gear_NUM_SEG > 8u)
2267:.\Generated_Source\PSoC5/LED_Driver_Gear.c ****             LED_Driver_Gear_segMBuffer[position] = HI8(charDisplay);
2268:.\Generated_Source\PSoC5/LED_Driver_Gear.c ****         #endif /* (LED_Driver_Gear_NUM_SEG > 8u) */
2269:.\Generated_Source\PSoC5/LED_Driver_Gear.c ****     }
2270:.\Generated_Source\PSoC5/LED_Driver_Gear.c **** }
2271:.\Generated_Source\PSoC5/LED_Driver_Gear.c **** 
2272:.\Generated_Source\PSoC5/LED_Driver_Gear.c **** 
2273:.\Generated_Source\PSoC5/LED_Driver_Gear.c **** /*******************************************************************************
2274:.\Generated_Source\PSoC5/LED_Driver_Gear.c **** * Function Name: LED_Driver_Gear_Write16SegDigitDec
2275:.\Generated_Source\PSoC5/LED_Driver_Gear.c **** ********************************************************************************
2276:.\Generated_Source\PSoC5/LED_Driver_Gear.c **** *
2277:.\Generated_Source\PSoC5/LED_Driver_Gear.c **** * Summary:
2278:.\Generated_Source\PSoC5/LED_Driver_Gear.c **** *  Displays a single digit on the specified display. The number in 'digit' 
2279:.\Generated_Source\PSoC5/LED_Driver_Gear.c **** *  (0-9) is placed on 'position'.
2280:.\Generated_Source\PSoC5/LED_Driver_Gear.c **** *
2281:.\Generated_Source\PSoC5/LED_Driver_Gear.c **** * Parameters:
2282:.\Generated_Source\PSoC5/LED_Driver_Gear.c **** *  uint8 digit: A number between 0 and 9 to display.
2283:.\Generated_Source\PSoC5/LED_Driver_Gear.c **** *  uint8 position: Position of the display in which to place the number.
2284:.\Generated_Source\PSoC5/LED_Driver_Gear.c **** * Return:
2285:.\Generated_Source\PSoC5/LED_Driver_Gear.c **** *  None
2286:.\Generated_Source\PSoC5/LED_Driver_Gear.c **** *
2287:.\Generated_Source\PSoC5/LED_Driver_Gear.c **** * Side effects:
2288:.\Generated_Source\PSoC5/LED_Driver_Gear.c **** *  None
2289:.\Generated_Source\PSoC5/LED_Driver_Gear.c **** *
2290:.\Generated_Source\PSoC5/LED_Driver_Gear.c **** *******************************************************************************/
2291:.\Generated_Source\PSoC5/LED_Driver_Gear.c **** void LED_Driver_Gear_Write16SegDigitDec(uint8 digit, uint8 position)
2292:.\Generated_Source\PSoC5/LED_Driver_Gear.c **** 
2293:.\Generated_Source\PSoC5/LED_Driver_Gear.c **** {
2294:.\Generated_Source\PSoC5/LED_Driver_Gear.c ****     uint16 charDisplay;
2295:.\Generated_Source\PSoC5/LED_Driver_Gear.c ****     
2296:.\Generated_Source\PSoC5/LED_Driver_Gear.c ****     if((digit < 10u) && (position < LED_Driver_Gear_NUM_COM))
2297:.\Generated_Source\PSoC5/LED_Driver_Gear.c ****     {
2298:.\Generated_Source\PSoC5/LED_Driver_Gear.c ****         charDisplay = LED_Driver_Gear_EncodeNumber16Seg(digit);
2299:.\Generated_Source\PSoC5/LED_Driver_Gear.c ****         LED_Driver_Gear_segLBuffer[position] = LO8(charDisplay);
2300:.\Generated_Source\PSoC5/LED_Driver_Gear.c ****         #if (LED_Driver_Gear_NUM_SEG > 8u)
2301:.\Generated_Source\PSoC5/LED_Driver_Gear.c ****             LED_Driver_Gear_segMBuffer[position] = HI8(charDisplay);
2302:.\Generated_Source\PSoC5/LED_Driver_Gear.c ****         #endif /* (LED_Driver_Gear_NUM_SEG > 8u) */
2303:.\Generated_Source\PSoC5/LED_Driver_Gear.c ****     }
2304:.\Generated_Source\PSoC5/LED_Driver_Gear.c **** }
2305:.\Generated_Source\PSoC5/LED_Driver_Gear.c **** 
2306:.\Generated_Source\PSoC5/LED_Driver_Gear.c **** 
2307:.\Generated_Source\PSoC5/LED_Driver_Gear.c **** /*******************************************************************************
2308:.\Generated_Source\PSoC5/LED_Driver_Gear.c **** * Function Name: LED_Driver_Gear_Write16SegDigitHex
2309:.\Generated_Source\PSoC5/LED_Driver_Gear.c **** ********************************************************************************
2310:.\Generated_Source\PSoC5/LED_Driver_Gear.c **** *
2311:.\Generated_Source\PSoC5/LED_Driver_Gear.c **** * Summary:
2312:.\Generated_Source\PSoC5/LED_Driver_Gear.c **** *  Displays a single digit at the specified position. The number in 'digit' 
2313:.\Generated_Source\PSoC5/LED_Driver_Gear.c **** *  (0-F) is placed on 'position'.
2314:.\Generated_Source\PSoC5/LED_Driver_Gear.c **** *
2315:.\Generated_Source\PSoC5/LED_Driver_Gear.c **** * Parameters:
2316:.\Generated_Source\PSoC5/LED_Driver_Gear.c **** *  uint8 digit: A number between 0x0 and 0xF (0 to 15).
2317:.\Generated_Source\PSoC5/LED_Driver_Gear.c **** *  uint8 position: The position in which to place the number.
2318:.\Generated_Source\PSoC5/LED_Driver_Gear.c **** * Return:
ARM GAS  C:\Users\charl\AppData\Local\Temp\ccrxE5Zl.s 			page 56


2319:.\Generated_Source\PSoC5/LED_Driver_Gear.c **** *  None
2320:.\Generated_Source\PSoC5/LED_Driver_Gear.c **** *
2321:.\Generated_Source\PSoC5/LED_Driver_Gear.c **** * Side effects:
2322:.\Generated_Source\PSoC5/LED_Driver_Gear.c **** *  None
2323:.\Generated_Source\PSoC5/LED_Driver_Gear.c **** *
2324:.\Generated_Source\PSoC5/LED_Driver_Gear.c **** *******************************************************************************/
2325:.\Generated_Source\PSoC5/LED_Driver_Gear.c **** void LED_Driver_Gear_Write16SegDigitHex(uint8 digit, uint8 position)
2326:.\Generated_Source\PSoC5/LED_Driver_Gear.c **** 
2327:.\Generated_Source\PSoC5/LED_Driver_Gear.c **** {
2328:.\Generated_Source\PSoC5/LED_Driver_Gear.c ****     uint16 charDisplay;
2329:.\Generated_Source\PSoC5/LED_Driver_Gear.c **** 
2330:.\Generated_Source\PSoC5/LED_Driver_Gear.c ****     if(position < LED_Driver_Gear_NUM_COM)
2331:.\Generated_Source\PSoC5/LED_Driver_Gear.c ****     {
2332:.\Generated_Source\PSoC5/LED_Driver_Gear.c ****         charDisplay = LED_Driver_Gear_EncodeNumber16Seg(digit);
2333:.\Generated_Source\PSoC5/LED_Driver_Gear.c ****         LED_Driver_Gear_segLBuffer[position] = LO8(charDisplay);
2334:.\Generated_Source\PSoC5/LED_Driver_Gear.c ****         #if (LED_Driver_Gear_NUM_SEG > 8u)
2335:.\Generated_Source\PSoC5/LED_Driver_Gear.c ****             LED_Driver_Gear_segMBuffer[position] = HI8(charDisplay);
2336:.\Generated_Source\PSoC5/LED_Driver_Gear.c ****         #endif /* (LED_Driver_Gear_NUM_SEG > 8u) */
2337:.\Generated_Source\PSoC5/LED_Driver_Gear.c ****     }
2338:.\Generated_Source\PSoC5/LED_Driver_Gear.c **** }
2339:.\Generated_Source\PSoC5/LED_Driver_Gear.c **** 
2340:.\Generated_Source\PSoC5/LED_Driver_Gear.c **** 
2341:.\Generated_Source\PSoC5/LED_Driver_Gear.c **** /*******************************************************************************
2342:.\Generated_Source\PSoC5/LED_Driver_Gear.c **** * Function Name: LED_Driver_Gear_PutDecimalPoint
2343:.\Generated_Source\PSoC5/LED_Driver_Gear.c **** ********************************************************************************
2344:.\Generated_Source\PSoC5/LED_Driver_Gear.c **** *
2345:.\Generated_Source\PSoC5/LED_Driver_Gear.c **** * Summary:
2346:.\Generated_Source\PSoC5/LED_Driver_Gear.c **** *  Sets or clears the decimal point at the specified position.
2347:.\Generated_Source\PSoC5/LED_Driver_Gear.c **** *
2348:.\Generated_Source\PSoC5/LED_Driver_Gear.c **** * Parameters:
2349:.\Generated_Source\PSoC5/LED_Driver_Gear.c **** *  uint8 dp: If the value is > 0 the decimal point will be set, if zero, the 
2350:.\Generated_Source\PSoC5/LED_Driver_Gear.c **** *            decimal point will be cleared.
2351:.\Generated_Source\PSoC5/LED_Driver_Gear.c **** *  uint8 position: The position at which to adjust the decimal point.
2352:.\Generated_Source\PSoC5/LED_Driver_Gear.c **** * Return:
2353:.\Generated_Source\PSoC5/LED_Driver_Gear.c **** *  None
2354:.\Generated_Source\PSoC5/LED_Driver_Gear.c **** *
2355:.\Generated_Source\PSoC5/LED_Driver_Gear.c **** * Side effects:
2356:.\Generated_Source\PSoC5/LED_Driver_Gear.c **** *  None
2357:.\Generated_Source\PSoC5/LED_Driver_Gear.c **** *
2358:.\Generated_Source\PSoC5/LED_Driver_Gear.c **** *******************************************************************************/
2359:.\Generated_Source\PSoC5/LED_Driver_Gear.c **** void LED_Driver_Gear_PutDecimalPoint(uint8 dp, uint8 position)
2360:.\Generated_Source\PSoC5/LED_Driver_Gear.c **** 
2361:.\Generated_Source\PSoC5/LED_Driver_Gear.c **** {
 786              		.loc 1 2361 0
 787              		.cfi_startproc
 788              		@ args = 0, pretend = 0, frame = 0
 789              		@ frame_needed = 0, uses_anonymous_args = 0
 790              		@ link register save eliminated.
 791              	.LVL90:
2362:.\Generated_Source\PSoC5/LED_Driver_Gear.c ****     uint8 value;
2363:.\Generated_Source\PSoC5/LED_Driver_Gear.c ****     uint8 relPosition;
2364:.\Generated_Source\PSoC5/LED_Driver_Gear.c ****     
2365:.\Generated_Source\PSoC5/LED_Driver_Gear.c ****     value = LED_Driver_Gear_DEC_POINT_VALUE;
2366:.\Generated_Source\PSoC5/LED_Driver_Gear.c ****     
2367:.\Generated_Source\PSoC5/LED_Driver_Gear.c ****     if(position < LED_Driver_Gear_NUM_COM)
 792              		.loc 1 2367 0
 793 0000 0B46     		mov	r3, r1
ARM GAS  C:\Users\charl\AppData\Local\Temp\ccrxE5Zl.s 			page 57


 794 0002 59B9     		cbnz	r1, .L83
 795              	.LVL91:
2368:.\Generated_Source\PSoC5/LED_Driver_Gear.c ****     {
2369:.\Generated_Source\PSoC5/LED_Driver_Gear.c ****         relPosition = position;
2370:.\Generated_Source\PSoC5/LED_Driver_Gear.c ****         if(dp != 0u)
 796              		.loc 1 2370 0
 797 0004 28B1     		cbz	r0, .L85
2371:.\Generated_Source\PSoC5/LED_Driver_Gear.c ****         {
2372:.\Generated_Source\PSoC5/LED_Driver_Gear.c ****             #if(LED_Driver_Gear_SEG_DRIVE == LED_Driver_Gear_HIGH)
2373:.\Generated_Source\PSoC5/LED_Driver_Gear.c ****                 LED_Driver_Gear_segLBuffer[relPosition] |= value;
 798              		.loc 1 2373 0
 799 0006 0649     		ldr	r1, .L86
 800              	.LVL92:
 801 0008 CA5C     		ldrb	r2, [r1, r3]	@ zero_extendqisi2
 802 000a 62F07F02 		orn	r2, r2, #127
 803 000e CA54     		strb	r2, [r1, r3]
 804 0010 7047     		bx	lr
 805              	.LVL93:
 806              	.L85:
2374:.\Generated_Source\PSoC5/LED_Driver_Gear.c ****             #else
2375:.\Generated_Source\PSoC5/LED_Driver_Gear.c ****                 LED_Driver_Gear_segLBuffer[relPosition] &= value;
2376:.\Generated_Source\PSoC5/LED_Driver_Gear.c ****             #endif /* (LED_Driver_Gear_SEG_DRIVE == LED_Driver_Gear_HIGH) */
2377:.\Generated_Source\PSoC5/LED_Driver_Gear.c ****         }
2378:.\Generated_Source\PSoC5/LED_Driver_Gear.c ****         else
2379:.\Generated_Source\PSoC5/LED_Driver_Gear.c ****         {
2380:.\Generated_Source\PSoC5/LED_Driver_Gear.c ****             #if(LED_Driver_Gear_SEG_DRIVE == LED_Driver_Gear_HIGH)
2381:.\Generated_Source\PSoC5/LED_Driver_Gear.c ****                 LED_Driver_Gear_segLBuffer[relPosition] &= ((uint8)(~(uint8)value));
 807              		.loc 1 2381 0
 808 0012 0349     		ldr	r1, .L86
 809              	.LVL94:
 810 0014 CA5C     		ldrb	r2, [r1, r3]	@ zero_extendqisi2
 811 0016 02F07F02 		and	r2, r2, #127
 812 001a CA54     		strb	r2, [r1, r3]
 813              	.LVL95:
 814              	.L83:
 815 001c 7047     		bx	lr
 816              	.L87:
 817 001e 00BF     		.align	2
 818              	.L86:
 819 0020 00000000 		.word	LED_Driver_Gear_segLBuffer
 820              		.cfi_endproc
 821              	.LFE32:
