ARM GAS  C:\Users\charl\AppData\Local\Temp\ccxfbC9q.s 			page 1


   1              		.syntax unified
   2              		.cpu cortex-m3
   3              		.fpu softvfp
   4              		.eabi_attribute 20, 1
   5              		.eabi_attribute 21, 1
   6              		.eabi_attribute 23, 3
   7              		.eabi_attribute 24, 1
   8              		.eabi_attribute 25, 1
   9              		.eabi_attribute 26, 1
  10              		.eabi_attribute 30, 1
  11              		.eabi_attribute 34, 1
  12              		.eabi_attribute 18, 4
  13              		.thumb
  14              		.file	"LED_Driver_Gear.c"
  15              		.text
  16              	.Ltext0:
  17              		.cfi_sections	.debug_frame
  18              		.section	.text.LED_Driver_Gear_DmaInit,"ax",%progbits
  19              		.align	2
  20              		.thumb
  21              		.thumb_func
  22              		.type	LED_Driver_Gear_DmaInit, %function
  23              	LED_Driver_Gear_DmaInit:
  24              	.LFB0:
  25              		.file 1 ".\\Generated_Source\\PSoC5\\LED_Driver_Gear.c"
   1:.\Generated_Source\PSoC5/LED_Driver_Gear.c **** /*******************************************************************************
   2:.\Generated_Source\PSoC5/LED_Driver_Gear.c **** * File Name: LED_Driver_Gear.c
   3:.\Generated_Source\PSoC5/LED_Driver_Gear.c **** * Version 1.10
   4:.\Generated_Source\PSoC5/LED_Driver_Gear.c **** *
   5:.\Generated_Source\PSoC5/LED_Driver_Gear.c **** * Description:
   6:.\Generated_Source\PSoC5/LED_Driver_Gear.c **** *  This file contains the setup, control and status commands for the 
   7:.\Generated_Source\PSoC5/LED_Driver_Gear.c **** *  LED Driver component.
   8:.\Generated_Source\PSoC5/LED_Driver_Gear.c **** *
   9:.\Generated_Source\PSoC5/LED_Driver_Gear.c **** * Note:
  10:.\Generated_Source\PSoC5/LED_Driver_Gear.c **** *  None
  11:.\Generated_Source\PSoC5/LED_Driver_Gear.c **** *
  12:.\Generated_Source\PSoC5/LED_Driver_Gear.c **** ********************************************************************************
  13:.\Generated_Source\PSoC5/LED_Driver_Gear.c **** * Copyright 2013-2015, Cypress Semiconductor Corporation.  All rights reserved.
  14:.\Generated_Source\PSoC5/LED_Driver_Gear.c **** * You may use this file only in accordance with the license, terms, conditions,
  15:.\Generated_Source\PSoC5/LED_Driver_Gear.c **** * disclaimers, and limitations in the end user license agreement accompanying
  16:.\Generated_Source\PSoC5/LED_Driver_Gear.c **** * the software package with which this file was provided.
  17:.\Generated_Source\PSoC5/LED_Driver_Gear.c **** ********************************************************************************/
  18:.\Generated_Source\PSoC5/LED_Driver_Gear.c **** 
  19:.\Generated_Source\PSoC5/LED_Driver_Gear.c **** #include "LED_Driver_Gear.h"
  20:.\Generated_Source\PSoC5/LED_Driver_Gear.c **** #include <LED_Driver_Gear_DMA_Com_dma.h>
  21:.\Generated_Source\PSoC5/LED_Driver_Gear.c **** #include <LED_Driver_Gear_DMA_Seg_dma.h>
  22:.\Generated_Source\PSoC5/LED_Driver_Gear.c **** #if (LED_Driver_Gear_BRIGHTNESS_EN == LED_Driver_Gear_ENABLED)
  23:.\Generated_Source\PSoC5/LED_Driver_Gear.c ****     #include <LED_Driver_Gear_DMA_BC_dma.h>
  24:.\Generated_Source\PSoC5/LED_Driver_Gear.c **** #endif /* (LED_Driver_Gear_BRIGHTNESS_EN == LED_Driver_Gear_ENABLED) */
  25:.\Generated_Source\PSoC5/LED_Driver_Gear.c **** 
  26:.\Generated_Source\PSoC5/LED_Driver_Gear.c **** /* Function prototypes */
  27:.\Generated_Source\PSoC5/LED_Driver_Gear.c **** static void LED_Driver_Gear_DmaInit(void) ;
  28:.\Generated_Source\PSoC5/LED_Driver_Gear.c **** static void LED_Driver_Gear_DmaEnable(void) ;
  29:.\Generated_Source\PSoC5/LED_Driver_Gear.c **** static void LED_Driver_Gear_DmaDisable(void) ;
  30:.\Generated_Source\PSoC5/LED_Driver_Gear.c **** 
  31:.\Generated_Source\PSoC5/LED_Driver_Gear.c **** /* Used to hold the common line output sequence */
  32:.\Generated_Source\PSoC5/LED_Driver_Gear.c **** #if(LED_Driver_Gear_COM_DRIVE == LED_Driver_Gear_HIGH)
ARM GAS  C:\Users\charl\AppData\Local\Temp\ccxfbC9q.s 			page 2


  33:.\Generated_Source\PSoC5/LED_Driver_Gear.c ****     static uint8 LED_Driver_Gear_comBuffer[16] = {0x00u, 0x01u, 0x00u, 0x02u, 0x00u, 0x04u, 0x00u, 
  34:.\Generated_Source\PSoC5/LED_Driver_Gear.c ****                                                     0x00u, 0x10u, 0x00u, 0x20u, 0x00u, 0x40u, 0x00u
  35:.\Generated_Source\PSoC5/LED_Driver_Gear.c **** #else
  36:.\Generated_Source\PSoC5/LED_Driver_Gear.c ****     static uint8 LED_Driver_Gear_comBuffer[16] = {0xFFu, 0xFEu, 0xFFu, 0xFDu, 0xFFu, 0xFBu, 0xFFu, 
  37:.\Generated_Source\PSoC5/LED_Driver_Gear.c ****                                                     0xFFu, 0xEFu, 0xFFu, 0xDFu, 0xFFu, 0xBFu, 0xFFu
  38:.\Generated_Source\PSoC5/LED_Driver_Gear.c **** #endif /* (LED_Driver_Gear_COM_DRIVE == LED_Driver_Gear_HIGH) */
  39:.\Generated_Source\PSoC5/LED_Driver_Gear.c **** 
  40:.\Generated_Source\PSoC5/LED_Driver_Gear.c **** /* Buffers used to hold the display(segment) values to be transferred to the control registers */
  41:.\Generated_Source\PSoC5/LED_Driver_Gear.c **** uint8 LED_Driver_Gear_segLBuffer[LED_Driver_Gear_NUM_COM];
  42:.\Generated_Source\PSoC5/LED_Driver_Gear.c **** #if (LED_Driver_Gear_NUM_SEG > 8u) 
  43:.\Generated_Source\PSoC5/LED_Driver_Gear.c ****     uint8 LED_Driver_Gear_segMBuffer[LED_Driver_Gear_NUM_COM];
  44:.\Generated_Source\PSoC5/LED_Driver_Gear.c **** #endif /* (LED_Driver_Gear_NUM_SEG > 8u) */
  45:.\Generated_Source\PSoC5/LED_Driver_Gear.c **** #if (LED_Driver_Gear_NUM_SEG > 16u) 
  46:.\Generated_Source\PSoC5/LED_Driver_Gear.c ****     uint8 LED_Driver_Gear_segHBuffer[LED_Driver_Gear_NUM_COM];
  47:.\Generated_Source\PSoC5/LED_Driver_Gear.c **** #endif /* (LED_Driver_Gear_NUM_SEG > 16u) */
  48:.\Generated_Source\PSoC5/LED_Driver_Gear.c **** 
  49:.\Generated_Source\PSoC5/LED_Driver_Gear.c **** #if (LED_Driver_Gear_BRIGHTNESS_EN == LED_Driver_Gear_ENABLED)
  50:.\Generated_Source\PSoC5/LED_Driver_Gear.c ****     /* The brightness register used to hold the brightness levels for each common */
  51:.\Generated_Source\PSoC5/LED_Driver_Gear.c ****     static uint8 LED_Driver_Gear_brightnessReg[LED_Driver_Gear_NUM_COM];
  52:.\Generated_Source\PSoC5/LED_Driver_Gear.c **** #endif /* (LED_Driver_Gear_BRIGHTNESS_EN == LED_Driver_Gear_ENABLED) */
  53:.\Generated_Source\PSoC5/LED_Driver_Gear.c **** 
  54:.\Generated_Source\PSoC5/LED_Driver_Gear.c **** /* DMA channel and TD declaractions */
  55:.\Generated_Source\PSoC5/LED_Driver_Gear.c **** static uint8 LED_Driver_Gear_dmaComChannel;
  56:.\Generated_Source\PSoC5/LED_Driver_Gear.c **** static uint8 LED_Driver_Gear_dmaComTd[LED_Driver_Gear_TWO_NUM_COM];
  57:.\Generated_Source\PSoC5/LED_Driver_Gear.c **** 
  58:.\Generated_Source\PSoC5/LED_Driver_Gear.c **** static uint8 LED_Driver_Gear_dmaSegChannel;
  59:.\Generated_Source\PSoC5/LED_Driver_Gear.c **** static uint8 LED_Driver_Gear_dmaSegLTd[LED_Driver_Gear_NUM_COM];
  60:.\Generated_Source\PSoC5/LED_Driver_Gear.c **** 
  61:.\Generated_Source\PSoC5/LED_Driver_Gear.c **** #if (LED_Driver_Gear_BRIGHTNESS_EN == LED_Driver_Gear_ENABLED)
  62:.\Generated_Source\PSoC5/LED_Driver_Gear.c ****     static uint8 LED_Driver_Gear_dmaBCChannel;
  63:.\Generated_Source\PSoC5/LED_Driver_Gear.c ****     static uint8 LED_Driver_Gear_dmaBCTd;
  64:.\Generated_Source\PSoC5/LED_Driver_Gear.c **** #endif /* (LED_Driver_Gear_BRIGHTNESS_EN == LED_Driver_Gear_ENABLED) */
  65:.\Generated_Source\PSoC5/LED_Driver_Gear.c **** 
  66:.\Generated_Source\PSoC5/LED_Driver_Gear.c **** uint8 LED_Driver_Gear_initVar = 0u;
  67:.\Generated_Source\PSoC5/LED_Driver_Gear.c **** uint8 LED_Driver_Gear_enableVar = 0u;
  68:.\Generated_Source\PSoC5/LED_Driver_Gear.c **** 
  69:.\Generated_Source\PSoC5/LED_Driver_Gear.c **** 
  70:.\Generated_Source\PSoC5/LED_Driver_Gear.c **** /*******************************************************************************
  71:.\Generated_Source\PSoC5/LED_Driver_Gear.c **** * Function Name: LED_Driver_Gear_DmaInit
  72:.\Generated_Source\PSoC5/LED_Driver_Gear.c **** ********************************************************************************
  73:.\Generated_Source\PSoC5/LED_Driver_Gear.c **** *
  74:.\Generated_Source\PSoC5/LED_Driver_Gear.c **** * Summary: 
  75:.\Generated_Source\PSoC5/LED_Driver_Gear.c **** *  Initializes the DMAs for transferring from the buffer register arrays to 
  76:.\Generated_Source\PSoC5/LED_Driver_Gear.c **** *  the control registers.
  77:.\Generated_Source\PSoC5/LED_Driver_Gear.c **** *
  78:.\Generated_Source\PSoC5/LED_Driver_Gear.c **** * Parameters:
  79:.\Generated_Source\PSoC5/LED_Driver_Gear.c **** *  None
  80:.\Generated_Source\PSoC5/LED_Driver_Gear.c **** *
  81:.\Generated_Source\PSoC5/LED_Driver_Gear.c **** * Return:
  82:.\Generated_Source\PSoC5/LED_Driver_Gear.c **** *  None
  83:.\Generated_Source\PSoC5/LED_Driver_Gear.c **** *
  84:.\Generated_Source\PSoC5/LED_Driver_Gear.c **** * Side Effects: 
  85:.\Generated_Source\PSoC5/LED_Driver_Gear.c **** *  None
  86:.\Generated_Source\PSoC5/LED_Driver_Gear.c **** *
  87:.\Generated_Source\PSoC5/LED_Driver_Gear.c **** *******************************************************************************/
  88:.\Generated_Source\PSoC5/LED_Driver_Gear.c **** static void LED_Driver_Gear_DmaInit(void) 
  89:.\Generated_Source\PSoC5/LED_Driver_Gear.c **** {
ARM GAS  C:\Users\charl\AppData\Local\Temp\ccxfbC9q.s 			page 3


  26              		.loc 1 89 0
  27              		.cfi_startproc
  28              		@ args = 0, pretend = 0, frame = 0
  29              		@ frame_needed = 0, uses_anonymous_args = 0
  30 0000 10B5     		push	{r4, lr}
  31              		.cfi_def_cfa_offset 8
  32              		.cfi_offset 4, -8
  33              		.cfi_offset 14, -4
  90:.\Generated_Source\PSoC5/LED_Driver_Gear.c ****     uint8  i;
  91:.\Generated_Source\PSoC5/LED_Driver_Gear.c ****     
  92:.\Generated_Source\PSoC5/LED_Driver_Gear.c ****     /* Segment TDs for Seg_Driver_M and Seg_Driver_H control registers */
  93:.\Generated_Source\PSoC5/LED_Driver_Gear.c ****     #if (LED_Driver_Gear_NUM_SEG > 8u)
  94:.\Generated_Source\PSoC5/LED_Driver_Gear.c ****         static uint8 LED_Driver_Gear_dmaSegMTd[LED_Driver_Gear_NUM_COM];
  95:.\Generated_Source\PSoC5/LED_Driver_Gear.c ****     #endif /* (LED_Driver_Gear_NUM_SEG > 8u) */
  96:.\Generated_Source\PSoC5/LED_Driver_Gear.c ****     #if (LED_Driver_Gear_NUM_SEG > 16u)
  97:.\Generated_Source\PSoC5/LED_Driver_Gear.c ****         static uint8 LED_Driver_Gear_dmaSegHTd[LED_Driver_Gear_NUM_COM];
  98:.\Generated_Source\PSoC5/LED_Driver_Gear.c ****     #endif /* (LED_Driver_Gear_NUM_SEG > 16u) */
  99:.\Generated_Source\PSoC5/LED_Driver_Gear.c **** 
 100:.\Generated_Source\PSoC5/LED_Driver_Gear.c ****     /************************* DMA configuration for the Commons *************************/
 101:.\Generated_Source\PSoC5/LED_Driver_Gear.c ****     /* Common DMA channel */
 102:.\Generated_Source\PSoC5/LED_Driver_Gear.c ****     LED_Driver_Gear_dmaComChannel = LED_Driver_Gear_DMA_Com_DmaInitialize(1u, 1u, 
  34              		.loc 1 102 0
  35 0002 0120     		movs	r0, #1
  36 0004 0146     		mov	r1, r0
  37 0006 41F6FF72 		movw	r2, #8191
  38 000a 4FF48043 		mov	r3, #16384
  39 000e FFF7FEFF 		bl	LED_Driver_Gear_DMA_Com_DmaInitialize
  40              	.LVL0:
  41 0012 474B     		ldr	r3, .L20
  42 0014 1870     		strb	r0, [r3]
 103:.\Generated_Source\PSoC5/LED_Driver_Gear.c ****                                         HI16(LED_Driver_Gear_SRAM_BASE), HI16(LED_Driver_Gear_CONTR
 104:.\Generated_Source\PSoC5/LED_Driver_Gear.c **** 
 105:.\Generated_Source\PSoC5/LED_Driver_Gear.c ****     /* Check if the channel is valid */                                                            
 106:.\Generated_Source\PSoC5/LED_Driver_Gear.c ****     if(LED_Driver_Gear_dmaComChannel != DMA_INVALID_CHANNEL)
  43              		.loc 1 106 0
  44 0016 FF28     		cmp	r0, #255
  45 0018 08D1     		bne	.L17
  46 001a 3BE0     		b	.L3
  47              	.LVL1:
  48              	.L4:
 107:.\Generated_Source\PSoC5/LED_Driver_Gear.c ****     {
 108:.\Generated_Source\PSoC5/LED_Driver_Gear.c ****         /* Allocate the common TDs */
 109:.\Generated_Source\PSoC5/LED_Driver_Gear.c ****         for(i = 0u; i < LED_Driver_Gear_TWO_NUM_COM; i++)
 110:.\Generated_Source\PSoC5/LED_Driver_Gear.c ****         {
 111:.\Generated_Source\PSoC5/LED_Driver_Gear.c ****             LED_Driver_Gear_dmaComTd[i] = CyDmaTdAllocate();
  49              		.loc 1 111 0 discriminator 3
  50 001c FFF7FEFF 		bl	CyDmaTdAllocate
  51              	.LVL2:
  52 0020 434B     		ldr	r3, .L20
  53 0022 2344     		add	r3, r3, r4
  54 0024 1871     		strb	r0, [r3, #4]
 109:.\Generated_Source\PSoC5/LED_Driver_Gear.c ****         {
  55              		.loc 1 109 0 discriminator 3
  56 0026 0134     		adds	r4, r4, #1
  57              	.LVL3:
  58 0028 E4B2     		uxtb	r4, r4
  59              	.LVL4:
ARM GAS  C:\Users\charl\AppData\Local\Temp\ccxfbC9q.s 			page 4


  60 002a 00E0     		b	.L2
  61              	.LVL5:
  62              	.L17:
  63 002c 0024     		movs	r4, #0
  64              	.L2:
  65              	.LVL6:
 109:.\Generated_Source\PSoC5/LED_Driver_Gear.c ****         {
  66              		.loc 1 109 0 is_stmt 0 discriminator 1
  67 002e 012C     		cmp	r4, #1
  68 0030 F4D9     		bls	.L4
  69 0032 0024     		movs	r4, #0
  70              	.LVL7:
  71 0034 15E0     		b	.L5
  72              	.LVL8:
  73              	.L8:
 112:.\Generated_Source\PSoC5/LED_Driver_Gear.c ****         }
 113:.\Generated_Source\PSoC5/LED_Driver_Gear.c ****         
 114:.\Generated_Source\PSoC5/LED_Driver_Gear.c ****         /* Set configuration for the Common TDs */
 115:.\Generated_Source\PSoC5/LED_Driver_Gear.c ****         for(i = 0u;  i < (LED_Driver_Gear_TWO_NUM_COM - 1u); i++)
 116:.\Generated_Source\PSoC5/LED_Driver_Gear.c ****         {
 117:.\Generated_Source\PSoC5/LED_Driver_Gear.c ****             /* Separate configurations for odd and even TDs */
 118:.\Generated_Source\PSoC5/LED_Driver_Gear.c ****             if((uint8)(i & 1u) == 0u)
  74              		.loc 1 118 0 is_stmt 1
  75 0036 14F0010F 		tst	r4, #1
  76 003a 08D1     		bne	.L6
 119:.\Generated_Source\PSoC5/LED_Driver_Gear.c ****             {
 120:.\Generated_Source\PSoC5/LED_Driver_Gear.c ****                 /* Set configuration for the Common TDs */
 121:.\Generated_Source\PSoC5/LED_Driver_Gear.c ****                 (void) CyDmaTdSetConfiguration(LED_Driver_Gear_dmaComTd[i], 1u, 
  77              		.loc 1 121 0
  78 003c 3C4B     		ldr	r3, .L20
  79 003e 1A19     		adds	r2, r3, r4
  80 0040 1079     		ldrb	r0, [r2, #4]	@ zero_extendqisi2
  81 0042 0121     		movs	r1, #1
  82 0044 5279     		ldrb	r2, [r2, #5]	@ zero_extendqisi2
  83 0046 0B46     		mov	r3, r1
  84 0048 FFF7FEFF 		bl	CyDmaTdSetConfiguration
  85              	.LVL9:
  86 004c 07E0     		b	.L7
  87              	.L6:
 122:.\Generated_Source\PSoC5/LED_Driver_Gear.c ****                                                 LED_Driver_Gear_dmaComTd[i+1u],
 123:.\Generated_Source\PSoC5/LED_Driver_Gear.c ****                                                 TD_INC_SRC_ADR | LED_Driver_Gear_DMA_Com__TD_TERMOU
 124:.\Generated_Source\PSoC5/LED_Driver_Gear.c ****             }
 125:.\Generated_Source\PSoC5/LED_Driver_Gear.c ****             else
 126:.\Generated_Source\PSoC5/LED_Driver_Gear.c ****             {
 127:.\Generated_Source\PSoC5/LED_Driver_Gear.c ****                 /* Set configuration for the Common TDs */
 128:.\Generated_Source\PSoC5/LED_Driver_Gear.c ****                 (void) CyDmaTdSetConfiguration(LED_Driver_Gear_dmaComTd[i], 1u,
  88              		.loc 1 128 0
  89 004e 384B     		ldr	r3, .L20
  90 0050 1A19     		adds	r2, r3, r4
  91 0052 1079     		ldrb	r0, [r2, #4]	@ zero_extendqisi2
  92 0054 0121     		movs	r1, #1
  93 0056 5279     		ldrb	r2, [r2, #5]	@ zero_extendqisi2
  94 0058 0B46     		mov	r3, r1
  95 005a FFF7FEFF 		bl	CyDmaTdSetConfiguration
  96              	.LVL10:
  97              	.L7:
 115:.\Generated_Source\PSoC5/LED_Driver_Gear.c ****         {
ARM GAS  C:\Users\charl\AppData\Local\Temp\ccxfbC9q.s 			page 5


  98              		.loc 1 115 0 discriminator 2
  99 005e 0134     		adds	r4, r4, #1
 100              	.LVL11:
 101 0060 E4B2     		uxtb	r4, r4
 102              	.LVL12:
 103              	.L5:
 115:.\Generated_Source\PSoC5/LED_Driver_Gear.c ****         {
 104              		.loc 1 115 0 is_stmt 0 discriminator 1
 105 0062 002C     		cmp	r4, #0
 106 0064 E7D0     		beq	.L8
 129:.\Generated_Source\PSoC5/LED_Driver_Gear.c ****                                                 LED_Driver_Gear_dmaComTd[i+1u], TD_INC_SRC_ADR);
 130:.\Generated_Source\PSoC5/LED_Driver_Gear.c ****             }
 131:.\Generated_Source\PSoC5/LED_Driver_Gear.c ****         }
 132:.\Generated_Source\PSoC5/LED_Driver_Gear.c ****         /* Set the wraparound Common TD configuration */
 133:.\Generated_Source\PSoC5/LED_Driver_Gear.c ****         (void) CyDmaTdSetConfiguration(LED_Driver_Gear_dmaComTd[LED_Driver_Gear_TWO_NUM_COM - 1u], 
 107              		.loc 1 133 0 is_stmt 1
 108 0066 324B     		ldr	r3, .L20
 109 0068 5879     		ldrb	r0, [r3, #5]	@ zero_extendqisi2
 110 006a 0121     		movs	r1, #1
 111 006c 1A79     		ldrb	r2, [r3, #4]	@ zero_extendqisi2
 112 006e 0B46     		mov	r3, r1
 113 0070 FFF7FEFF 		bl	CyDmaTdSetConfiguration
 114              	.LVL13:
 134:.\Generated_Source\PSoC5/LED_Driver_Gear.c ****                                         1u, LED_Driver_Gear_dmaComTd[0u], TD_INC_SRC_ADR);
 135:.\Generated_Source\PSoC5/LED_Driver_Gear.c ****         
 136:.\Generated_Source\PSoC5/LED_Driver_Gear.c ****         /* Set the lower addresses of the common TDs */
 137:.\Generated_Source\PSoC5/LED_Driver_Gear.c ****         for(i = 0u; i < LED_Driver_Gear_TWO_NUM_COM; i++)
 115              		.loc 1 137 0
 116 0074 0024     		movs	r4, #0
 117 0076 0BE0     		b	.L9
 118              	.LVL14:
 119              	.L10:
 138:.\Generated_Source\PSoC5/LED_Driver_Gear.c ****         {
 139:.\Generated_Source\PSoC5/LED_Driver_Gear.c ****             (void) CyDmaTdSetAddress(LED_Driver_Gear_dmaComTd[i],
 120              		.loc 1 139 0 discriminator 3
 121 0078 2D4B     		ldr	r3, .L20
 122 007a 2344     		add	r3, r3, r4
 140:.\Generated_Source\PSoC5/LED_Driver_Gear.c ****                                         LO16((uint32) &LED_Driver_Gear_comBuffer[i]),
 123              		.loc 1 140 0 discriminator 3
 124 007c 2D49     		ldr	r1, .L20+4
 125 007e 2144     		add	r1, r1, r4
 139:.\Generated_Source\PSoC5/LED_Driver_Gear.c ****                                         LO16((uint32) &LED_Driver_Gear_comBuffer[i]),
 126              		.loc 1 139 0 discriminator 3
 127 0080 1879     		ldrb	r0, [r3, #4]	@ zero_extendqisi2
 128 0082 89B2     		uxth	r1, r1
 129 0084 46F27B42 		movw	r2, #25723
 130 0088 FFF7FEFF 		bl	CyDmaTdSetAddress
 131              	.LVL15:
 137:.\Generated_Source\PSoC5/LED_Driver_Gear.c ****         {
 132              		.loc 1 137 0 discriminator 3
 133 008c 0134     		adds	r4, r4, #1
 134              	.LVL16:
 135 008e E4B2     		uxtb	r4, r4
 136              	.LVL17:
 137              	.L9:
 137:.\Generated_Source\PSoC5/LED_Driver_Gear.c ****         {
 138              		.loc 1 137 0 is_stmt 0 discriminator 1
ARM GAS  C:\Users\charl\AppData\Local\Temp\ccxfbC9q.s 			page 6


 139 0090 012C     		cmp	r4, #1
 140 0092 F1D9     		bls	.L10
 141              	.LVL18:
 142              	.L3:
 141:.\Generated_Source\PSoC5/LED_Driver_Gear.c ****                                         LO16((uint32) LED_Driver_Gear_COM_CONTROL_PTR));
 142:.\Generated_Source\PSoC5/LED_Driver_Gear.c ****         }    
 143:.\Generated_Source\PSoC5/LED_Driver_Gear.c ****     }
 144:.\Generated_Source\PSoC5/LED_Driver_Gear.c ****     
 145:.\Generated_Source\PSoC5/LED_Driver_Gear.c ****     
 146:.\Generated_Source\PSoC5/LED_Driver_Gear.c ****     /*********************** DMA configuration for the Segments ***********************/
 147:.\Generated_Source\PSoC5/LED_Driver_Gear.c ****     /* Get the DMA channels for the segments */
 148:.\Generated_Source\PSoC5/LED_Driver_Gear.c ****     LED_Driver_Gear_dmaSegChannel = LED_Driver_Gear_DMA_Seg_DmaInitialize(1u, 1u, 
 143              		.loc 1 148 0 is_stmt 1
 144 0094 0120     		movs	r0, #1
 145 0096 0146     		mov	r1, r0
 146 0098 41F6FF72 		movw	r2, #8191
 147 009c 4FF48043 		mov	r3, #16384
 148 00a0 FFF7FEFF 		bl	LED_Driver_Gear_DMA_Seg_DmaInitialize
 149              	.LVL19:
 150 00a4 224B     		ldr	r3, .L20
 151 00a6 9871     		strb	r0, [r3, #6]
 149:.\Generated_Source\PSoC5/LED_Driver_Gear.c ****                                         HI16(LED_Driver_Gear_SRAM_BASE), HI16(LED_Driver_Gear_CONTR
 150:.\Generated_Source\PSoC5/LED_Driver_Gear.c ****     
 151:.\Generated_Source\PSoC5/LED_Driver_Gear.c ****     /* Check if the segment channel is valid */
 152:.\Generated_Source\PSoC5/LED_Driver_Gear.c ****     if(LED_Driver_Gear_dmaSegChannel != DMA_INVALID_CHANNEL)
 152              		.loc 1 152 0
 153 00a8 FF28     		cmp	r0, #255
 154 00aa 08D1     		bne	.L18
 155 00ac 21E0     		b	.L12
 156              	.LVL20:
 157              	.L13:
 153:.\Generated_Source\PSoC5/LED_Driver_Gear.c ****     {
 154:.\Generated_Source\PSoC5/LED_Driver_Gear.c ****         /* Allocate separate Tds for segments to implement the chain */
 155:.\Generated_Source\PSoC5/LED_Driver_Gear.c ****         for(i = 0u; i < LED_Driver_Gear_NUM_COM; i++)
 156:.\Generated_Source\PSoC5/LED_Driver_Gear.c ****         {
 157:.\Generated_Source\PSoC5/LED_Driver_Gear.c ****             LED_Driver_Gear_dmaSegLTd[i] = CyDmaTdAllocate();
 158              		.loc 1 157 0 discriminator 3
 159 00ae FFF7FEFF 		bl	CyDmaTdAllocate
 160              	.LVL21:
 161 00b2 1F4B     		ldr	r3, .L20
 162 00b4 2344     		add	r3, r3, r4
 163 00b6 1872     		strb	r0, [r3, #8]
 155:.\Generated_Source\PSoC5/LED_Driver_Gear.c ****         {
 164              		.loc 1 155 0 discriminator 3
 165 00b8 0134     		adds	r4, r4, #1
 166              	.LVL22:
 167 00ba E4B2     		uxtb	r4, r4
 168              	.LVL23:
 169 00bc 00E0     		b	.L11
 170              	.LVL24:
 171              	.L18:
 172 00be 0024     		movs	r4, #0
 173              	.L11:
 174              	.LVL25:
 155:.\Generated_Source\PSoC5/LED_Driver_Gear.c ****         {
 175              		.loc 1 155 0 is_stmt 0 discriminator 1
 176 00c0 002C     		cmp	r4, #0
ARM GAS  C:\Users\charl\AppData\Local\Temp\ccxfbC9q.s 			page 7


 177 00c2 F4D0     		beq	.L13
 178              	.LVL26:
 158:.\Generated_Source\PSoC5/LED_Driver_Gear.c ****             #if (LED_Driver_Gear_NUM_SEG > 8u)
 159:.\Generated_Source\PSoC5/LED_Driver_Gear.c ****                 LED_Driver_Gear_dmaSegMTd[i] = CyDmaTdAllocate();
 160:.\Generated_Source\PSoC5/LED_Driver_Gear.c ****             #endif /* (LED_Driver_Gear_NUM_SEG > 8u) */
 161:.\Generated_Source\PSoC5/LED_Driver_Gear.c ****             #if (LED_Driver_Gear_NUM_SEG > 16u)
 162:.\Generated_Source\PSoC5/LED_Driver_Gear.c ****                 LED_Driver_Gear_dmaSegHTd[i] = CyDmaTdAllocate();
 163:.\Generated_Source\PSoC5/LED_Driver_Gear.c ****             #endif /* (LED_Driver_Gear_NUM_SEG > 16u) */
 164:.\Generated_Source\PSoC5/LED_Driver_Gear.c ****         }
 165:.\Generated_Source\PSoC5/LED_Driver_Gear.c ****         
 166:.\Generated_Source\PSoC5/LED_Driver_Gear.c ****         /* Set the configuration for the Segment TDs */
 167:.\Generated_Source\PSoC5/LED_Driver_Gear.c ****         for(i = 0u; i < (LED_Driver_Gear_NUM_COM - 1u); i++)
 168:.\Generated_Source\PSoC5/LED_Driver_Gear.c ****         {
 169:.\Generated_Source\PSoC5/LED_Driver_Gear.c ****             #if (LED_Driver_Gear_NUM_SEG <= 8u)
 170:.\Generated_Source\PSoC5/LED_Driver_Gear.c ****                 (void) CyDmaTdSetConfiguration(LED_Driver_Gear_dmaSegLTd[i], 1u, LED_Driver_Gear_dm
 171:.\Generated_Source\PSoC5/LED_Driver_Gear.c ****                                                 TD_INC_SRC_ADR | LED_Driver_Gear_DMA_Seg__TD_TERMOU
 172:.\Generated_Source\PSoC5/LED_Driver_Gear.c ****             #else    
 173:.\Generated_Source\PSoC5/LED_Driver_Gear.c ****                 (void) CyDmaTdSetConfiguration(LED_Driver_Gear_dmaSegLTd[i], 1u, LED_Driver_Gear_dm
 174:.\Generated_Source\PSoC5/LED_Driver_Gear.c ****                                                 TD_INC_SRC_ADR | TD_AUTO_EXEC_NEXT);
 175:.\Generated_Source\PSoC5/LED_Driver_Gear.c **** 
 176:.\Generated_Source\PSoC5/LED_Driver_Gear.c ****                 #if (LED_Driver_Gear_NUM_SEG <= 16u)
 177:.\Generated_Source\PSoC5/LED_Driver_Gear.c ****                     (void) CyDmaTdSetConfiguration(LED_Driver_Gear_dmaSegMTd[i], 1u, LED_Driver_Gea
 178:.\Generated_Source\PSoC5/LED_Driver_Gear.c ****                                                     TD_INC_SRC_ADR | LED_Driver_Gear_DMA_Seg__TD_TE
 179:.\Generated_Source\PSoC5/LED_Driver_Gear.c ****                 #else    
 180:.\Generated_Source\PSoC5/LED_Driver_Gear.c ****                     (void) CyDmaTdSetConfiguration(LED_Driver_Gear_dmaSegMTd[i], 1u, LED_Driver_Gea
 181:.\Generated_Source\PSoC5/LED_Driver_Gear.c ****                                                     TD_INC_SRC_ADR | TD_AUTO_EXEC_NEXT);
 182:.\Generated_Source\PSoC5/LED_Driver_Gear.c ****                     (void) CyDmaTdSetConfiguration(LED_Driver_Gear_dmaSegHTd[i], 1u, LED_Driver_Gea
 183:.\Generated_Source\PSoC5/LED_Driver_Gear.c ****                                                     TD_INC_SRC_ADR | LED_Driver_Gear_DMA_Seg__TD_TE
 184:.\Generated_Source\PSoC5/LED_Driver_Gear.c ****                 #endif /* LED_Driver_Gear_NUM_SEG <= 16u */
 185:.\Generated_Source\PSoC5/LED_Driver_Gear.c ****             #endif /* LED_Driver_Gear_NUM_SEG <= 8u */
 186:.\Generated_Source\PSoC5/LED_Driver_Gear.c ****         }
 187:.\Generated_Source\PSoC5/LED_Driver_Gear.c ****         
 188:.\Generated_Source\PSoC5/LED_Driver_Gear.c ****         /* Set the wraparound Segment TD configurations */
 189:.\Generated_Source\PSoC5/LED_Driver_Gear.c ****         #if (LED_Driver_Gear_NUM_SEG <= 8u)
 190:.\Generated_Source\PSoC5/LED_Driver_Gear.c ****             (void) CyDmaTdSetConfiguration(LED_Driver_Gear_dmaSegLTd[LED_Driver_Gear_NUM_COM - 1u],
 179              		.loc 1 190 0 is_stmt 1
 180 00c4 1A4B     		ldr	r3, .L20
 181 00c6 1A7A     		ldrb	r2, [r3, #8]	@ zero_extendqisi2
 182 00c8 1046     		mov	r0, r2
 183 00ca 0121     		movs	r1, #1
 184 00cc 0523     		movs	r3, #5
 185 00ce FFF7FEFF 		bl	CyDmaTdSetConfiguration
 186              	.LVL27:
 191:.\Generated_Source\PSoC5/LED_Driver_Gear.c ****                                             1u, LED_Driver_Gear_dmaSegLTd[0u], 
 192:.\Generated_Source\PSoC5/LED_Driver_Gear.c ****                                             TD_INC_SRC_ADR | LED_Driver_Gear_DMA_Seg__TD_TERMOUT_EN
 193:.\Generated_Source\PSoC5/LED_Driver_Gear.c ****         #else    
 194:.\Generated_Source\PSoC5/LED_Driver_Gear.c ****             (void) CyDmaTdSetConfiguration(LED_Driver_Gear_dmaSegLTd[LED_Driver_Gear_NUM_COM - 1u],
 195:.\Generated_Source\PSoC5/LED_Driver_Gear.c ****                                             1u, LED_Driver_Gear_dmaSegMTd[LED_Driver_Gear_NUM_COM -
 196:.\Generated_Source\PSoC5/LED_Driver_Gear.c ****                                             TD_INC_SRC_ADR | TD_AUTO_EXEC_NEXT);
 197:.\Generated_Source\PSoC5/LED_Driver_Gear.c ****             #if (LED_Driver_Gear_NUM_SEG <= 16u)
 198:.\Generated_Source\PSoC5/LED_Driver_Gear.c ****                 (void) CyDmaTdSetConfiguration(LED_Driver_Gear_dmaSegMTd[LED_Driver_Gear_NUM_COM - 
 199:.\Generated_Source\PSoC5/LED_Driver_Gear.c ****                                                 1u, LED_Driver_Gear_dmaSegLTd[0u], 
 200:.\Generated_Source\PSoC5/LED_Driver_Gear.c ****                                                 TD_INC_SRC_ADR | LED_Driver_Gear_DMA_Seg__TD_TERMOU
 201:.\Generated_Source\PSoC5/LED_Driver_Gear.c ****             #else    
 202:.\Generated_Source\PSoC5/LED_Driver_Gear.c ****                 (void) CyDmaTdSetConfiguration(LED_Driver_Gear_dmaSegMTd[LED_Driver_Gear_NUM_COM - 
 203:.\Generated_Source\PSoC5/LED_Driver_Gear.c ****                                                 1u, LED_Driver_Gear_dmaSegHTd[LED_Driver_Gear_NUM_C
 204:.\Generated_Source\PSoC5/LED_Driver_Gear.c ****                                                 TD_INC_SRC_ADR | TD_AUTO_EXEC_NEXT);
ARM GAS  C:\Users\charl\AppData\Local\Temp\ccxfbC9q.s 			page 8


 205:.\Generated_Source\PSoC5/LED_Driver_Gear.c ****                 (void) CyDmaTdSetConfiguration(LED_Driver_Gear_dmaSegHTd[LED_Driver_Gear_NUM_COM - 
 206:.\Generated_Source\PSoC5/LED_Driver_Gear.c ****                                                 1u, LED_Driver_Gear_dmaSegLTd[0u], 
 207:.\Generated_Source\PSoC5/LED_Driver_Gear.c ****                                                 TD_INC_SRC_ADR | LED_Driver_Gear_DMA_Seg__TD_TERMOU
 208:.\Generated_Source\PSoC5/LED_Driver_Gear.c ****             #endif /* (LED_Driver_Gear_NUM_SEG <= 16u) */
 209:.\Generated_Source\PSoC5/LED_Driver_Gear.c ****         #endif /* (LED_Driver_Gear_NUM_SEG <= 8u) */
 210:.\Generated_Source\PSoC5/LED_Driver_Gear.c ****         
 211:.\Generated_Source\PSoC5/LED_Driver_Gear.c ****         /* The lower addresses for the segment TDs */
 212:.\Generated_Source\PSoC5/LED_Driver_Gear.c ****         for(i = 0u; i < LED_Driver_Gear_NUM_COM; i++)
 187              		.loc 1 212 0
 188 00d2 0024     		movs	r4, #0
 189 00d4 0BE0     		b	.L14
 190              	.LVL28:
 191              	.L15:
 213:.\Generated_Source\PSoC5/LED_Driver_Gear.c ****         {
 214:.\Generated_Source\PSoC5/LED_Driver_Gear.c ****             (void) CyDmaTdSetAddress(LED_Driver_Gear_dmaSegLTd[i],
 192              		.loc 1 214 0 discriminator 3
 193 00d6 164B     		ldr	r3, .L20
 194 00d8 2344     		add	r3, r3, r4
 215:.\Generated_Source\PSoC5/LED_Driver_Gear.c ****                                             LO16((uint32) &LED_Driver_Gear_segLBuffer[i]),
 195              		.loc 1 215 0 discriminator 3
 196 00da 1749     		ldr	r1, .L20+8
 197 00dc 2144     		add	r1, r1, r4
 214:.\Generated_Source\PSoC5/LED_Driver_Gear.c ****                                             LO16((uint32) &LED_Driver_Gear_segLBuffer[i]),
 198              		.loc 1 214 0 discriminator 3
 199 00de 187A     		ldrb	r0, [r3, #8]	@ zero_extendqisi2
 200 00e0 89B2     		uxth	r1, r1
 201 00e2 46F27A42 		movw	r2, #25722
 202 00e6 FFF7FEFF 		bl	CyDmaTdSetAddress
 203              	.LVL29:
 212:.\Generated_Source\PSoC5/LED_Driver_Gear.c ****         {
 204              		.loc 1 212 0 discriminator 3
 205 00ea 0134     		adds	r4, r4, #1
 206              	.LVL30:
 207 00ec E4B2     		uxtb	r4, r4
 208              	.LVL31:
 209              	.L14:
 212:.\Generated_Source\PSoC5/LED_Driver_Gear.c ****         {
 210              		.loc 1 212 0 is_stmt 0 discriminator 1
 211 00ee 002C     		cmp	r4, #0
 212 00f0 F1D0     		beq	.L15
 213              	.LVL32:
 214              	.L12:
 216:.\Generated_Source\PSoC5/LED_Driver_Gear.c ****                                             LO16((uint32) LED_Driver_Gear_SEG_L_CONTROL_PTR));
 217:.\Generated_Source\PSoC5/LED_Driver_Gear.c ****             #if (LED_Driver_Gear_NUM_SEG > 8u)
 218:.\Generated_Source\PSoC5/LED_Driver_Gear.c ****                 (void) CyDmaTdSetAddress(LED_Driver_Gear_dmaSegMTd[i],
 219:.\Generated_Source\PSoC5/LED_Driver_Gear.c ****                                             LO16((uint32) &LED_Driver_Gear_segMBuffer[i]),
 220:.\Generated_Source\PSoC5/LED_Driver_Gear.c ****                                             LO16((uint32) LED_Driver_Gear_SEG_M_CONTROL_PTR));
 221:.\Generated_Source\PSoC5/LED_Driver_Gear.c ****             #endif /* (LED_Driver_Gear_NUM_SEG > 8u) */
 222:.\Generated_Source\PSoC5/LED_Driver_Gear.c ****             #if (LED_Driver_Gear_NUM_SEG > 16u)
 223:.\Generated_Source\PSoC5/LED_Driver_Gear.c ****                 (void) CyDmaTdSetAddress(LED_Driver_Gear_dmaSegHTd[i], 
 224:.\Generated_Source\PSoC5/LED_Driver_Gear.c ****                                             LO16((uint32) &LED_Driver_Gear_segHBuffer[i]),
 225:.\Generated_Source\PSoC5/LED_Driver_Gear.c ****                                             LO16((uint32) LED_Driver_Gear_SEG_H_CONTROL_PTR));
 226:.\Generated_Source\PSoC5/LED_Driver_Gear.c ****             #endif /* (LED_Driver_Gear_NUM_SEG > 16u) */
 227:.\Generated_Source\PSoC5/LED_Driver_Gear.c ****         }
 228:.\Generated_Source\PSoC5/LED_Driver_Gear.c ****     }
 229:.\Generated_Source\PSoC5/LED_Driver_Gear.c ****     
 230:.\Generated_Source\PSoC5/LED_Driver_Gear.c ****     
ARM GAS  C:\Users\charl\AppData\Local\Temp\ccxfbC9q.s 			page 9


 231:.\Generated_Source\PSoC5/LED_Driver_Gear.c ****     /******************** DMA configuration for Brightness control *********************/
 232:.\Generated_Source\PSoC5/LED_Driver_Gear.c ****     
 233:.\Generated_Source\PSoC5/LED_Driver_Gear.c ****     #if (LED_Driver_Gear_BRIGHTNESS_EN == LED_Driver_Gear_ENABLED)
 234:.\Generated_Source\PSoC5/LED_Driver_Gear.c ****         /* Get the DMA channels */
 235:.\Generated_Source\PSoC5/LED_Driver_Gear.c ****         LED_Driver_Gear_dmaBCChannel = LED_Driver_Gear_DMA_BC_DmaInitialize(1u, 1u, 
 215              		.loc 1 235 0 is_stmt 1
 216 00f2 0120     		movs	r0, #1
 217 00f4 0146     		mov	r1, r0
 218 00f6 41F6FF72 		movw	r2, #8191
 219 00fa 4FF48043 		mov	r3, #16384
 220 00fe FFF7FEFF 		bl	LED_Driver_Gear_DMA_BC_DmaInitialize
 221              	.LVL33:
 222 0102 0B4B     		ldr	r3, .L20
 223 0104 5872     		strb	r0, [r3, #9]
 236:.\Generated_Source\PSoC5/LED_Driver_Gear.c ****                                         HI16(LED_Driver_Gear_SRAM_BASE), HI16(LED_Driver_Gear_CONTR
 237:.\Generated_Source\PSoC5/LED_Driver_Gear.c ****             
 238:.\Generated_Source\PSoC5/LED_Driver_Gear.c ****         /* Check if the channels are valid */
 239:.\Generated_Source\PSoC5/LED_Driver_Gear.c ****         if(LED_Driver_Gear_dmaBCChannel != DMA_INVALID_CHANNEL)
 224              		.loc 1 239 0
 225 0106 FF28     		cmp	r0, #255
 226 0108 10D0     		beq	.L1
 240:.\Generated_Source\PSoC5/LED_Driver_Gear.c ****         {
 241:.\Generated_Source\PSoC5/LED_Driver_Gear.c ****             LED_Driver_Gear_dmaBCTd = CyDmaTdAllocate();
 227              		.loc 1 241 0
 228 010a FFF7FEFF 		bl	CyDmaTdAllocate
 229              	.LVL34:
 230 010e 0246     		mov	r2, r0
 231 0110 074C     		ldr	r4, .L20
 232 0112 A072     		strb	r0, [r4, #10]
 242:.\Generated_Source\PSoC5/LED_Driver_Gear.c ****             
 243:.\Generated_Source\PSoC5/LED_Driver_Gear.c ****             /* Set the TD configuration for the brightness DMA */
 244:.\Generated_Source\PSoC5/LED_Driver_Gear.c ****             (void) CyDmaTdSetConfiguration(LED_Driver_Gear_dmaBCTd, LED_Driver_Gear_NUM_COM,
 233              		.loc 1 244 0
 234 0114 0121     		movs	r1, #1
 235 0116 0B46     		mov	r3, r1
 236 0118 FFF7FEFF 		bl	CyDmaTdSetConfiguration
 237              	.LVL35:
 245:.\Generated_Source\PSoC5/LED_Driver_Gear.c ****                                         LED_Driver_Gear_dmaBCTd, TD_INC_SRC_ADR);
 246:.\Generated_Source\PSoC5/LED_Driver_Gear.c ****             
 247:.\Generated_Source\PSoC5/LED_Driver_Gear.c ****             /* Lower address for the brightness Td */
 248:.\Generated_Source\PSoC5/LED_Driver_Gear.c ****             (void) CyDmaTdSetAddress(LED_Driver_Gear_dmaBCTd, LO16((uint32) &LED_Driver_Gear_bright
 238              		.loc 1 248 0
 239 011c 04F10C01 		add	r1, r4, #12
 240 0120 A07A     		ldrb	r0, [r4, #10]	@ zero_extendqisi2
 241 0122 89B2     		uxth	r1, r1
 242 0124 46F22452 		movw	r2, #25892
 243 0128 FFF7FEFF 		bl	CyDmaTdSetAddress
 244              	.LVL36:
 245              	.L1:
 246 012c 10BD     		pop	{r4, pc}
 247              	.L21:
 248 012e 00BF     		.align	2
 249              	.L20:
 250 0130 00000000 		.word	.LANCHOR0
 251 0134 00000000 		.word	.LANCHOR1
 252 0138 00000000 		.word	LED_Driver_Gear_segLBuffer
 253              		.cfi_endproc
ARM GAS  C:\Users\charl\AppData\Local\Temp\ccxfbC9q.s 			page 10


 254              	.LFE0:
 255              		.size	LED_Driver_Gear_DmaInit, .-LED_Driver_Gear_DmaInit
 256              		.section	.text.LED_Driver_Gear_DmaEnable,"ax",%progbits
 257              		.align	2
 258              		.thumb
 259              		.thumb_func
 260              		.type	LED_Driver_Gear_DmaEnable, %function
 261              	LED_Driver_Gear_DmaEnable:
 262              	.LFB1:
 249:.\Generated_Source\PSoC5/LED_Driver_Gear.c ****                                                                LO16((uint32)LED_Driver_Gear_COMPARE
 250:.\Generated_Source\PSoC5/LED_Driver_Gear.c ****         }
 251:.\Generated_Source\PSoC5/LED_Driver_Gear.c ****     #endif /* (LED_Driver_Gear_BRIGHTNESS_EN == LED_Driver_Gear_ENABLED) */
 252:.\Generated_Source\PSoC5/LED_Driver_Gear.c **** }
 253:.\Generated_Source\PSoC5/LED_Driver_Gear.c **** 
 254:.\Generated_Source\PSoC5/LED_Driver_Gear.c **** 
 255:.\Generated_Source\PSoC5/LED_Driver_Gear.c **** /*******************************************************************************
 256:.\Generated_Source\PSoC5/LED_Driver_Gear.c **** * Function Name: LED_Driver_Gear_DmaEnable
 257:.\Generated_Source\PSoC5/LED_Driver_Gear.c **** ********************************************************************************
 258:.\Generated_Source\PSoC5/LED_Driver_Gear.c **** *
 259:.\Generated_Source\PSoC5/LED_Driver_Gear.c **** * Summary: 
 260:.\Generated_Source\PSoC5/LED_Driver_Gear.c **** *  Enables the DMAs for transferring from the buffer register arrays to the
 261:.\Generated_Source\PSoC5/LED_Driver_Gear.c **** *  control registers.
 262:.\Generated_Source\PSoC5/LED_Driver_Gear.c **** *
 263:.\Generated_Source\PSoC5/LED_Driver_Gear.c **** * Parameters:
 264:.\Generated_Source\PSoC5/LED_Driver_Gear.c **** *  None
 265:.\Generated_Source\PSoC5/LED_Driver_Gear.c **** *
 266:.\Generated_Source\PSoC5/LED_Driver_Gear.c **** * Return: 
 267:.\Generated_Source\PSoC5/LED_Driver_Gear.c **** *  None
 268:.\Generated_Source\PSoC5/LED_Driver_Gear.c **** *
 269:.\Generated_Source\PSoC5/LED_Driver_Gear.c **** * Side Effects: 
 270:.\Generated_Source\PSoC5/LED_Driver_Gear.c **** *  None
 271:.\Generated_Source\PSoC5/LED_Driver_Gear.c **** *
 272:.\Generated_Source\PSoC5/LED_Driver_Gear.c **** *******************************************************************************/
 273:.\Generated_Source\PSoC5/LED_Driver_Gear.c **** static void LED_Driver_Gear_DmaEnable(void) 
 274:.\Generated_Source\PSoC5/LED_Driver_Gear.c **** {
 263              		.loc 1 274 0
 264              		.cfi_startproc
 265              		@ args = 0, pretend = 0, frame = 0
 266              		@ frame_needed = 0, uses_anonymous_args = 0
 267 0000 10B5     		push	{r4, lr}
 268              		.cfi_def_cfa_offset 8
 269              		.cfi_offset 4, -8
 270              		.cfi_offset 14, -4
 275:.\Generated_Source\PSoC5/LED_Driver_Gear.c ****     /* Initialize the TDs to the respective channels */
 276:.\Generated_Source\PSoC5/LED_Driver_Gear.c ****     (void) CyDmaChSetInitialTd(LED_Driver_Gear_dmaComChannel, LED_Driver_Gear_dmaComTd[0u]);
 271              		.loc 1 276 0
 272 0002 0D4C     		ldr	r4, .L24
 273 0004 2078     		ldrb	r0, [r4]	@ zero_extendqisi2
 274 0006 2179     		ldrb	r1, [r4, #4]	@ zero_extendqisi2
 275 0008 FFF7FEFF 		bl	CyDmaChSetInitialTd
 276              	.LVL37:
 277:.\Generated_Source\PSoC5/LED_Driver_Gear.c ****     (void) CyDmaChSetInitialTd(LED_Driver_Gear_dmaSegChannel, LED_Driver_Gear_dmaSegLTd[0u]);
 277              		.loc 1 277 0
 278 000c A079     		ldrb	r0, [r4, #6]	@ zero_extendqisi2
 279 000e 217A     		ldrb	r1, [r4, #8]	@ zero_extendqisi2
 280 0010 FFF7FEFF 		bl	CyDmaChSetInitialTd
 281              	.LVL38:
ARM GAS  C:\Users\charl\AppData\Local\Temp\ccxfbC9q.s 			page 11


 278:.\Generated_Source\PSoC5/LED_Driver_Gear.c ****     #if (LED_Driver_Gear_BRIGHTNESS_EN == LED_Driver_Gear_ENABLED)
 279:.\Generated_Source\PSoC5/LED_Driver_Gear.c ****         (void) CyDmaChSetInitialTd(LED_Driver_Gear_dmaBCChannel, LED_Driver_Gear_dmaBCTd);
 282              		.loc 1 279 0
 283 0014 607A     		ldrb	r0, [r4, #9]	@ zero_extendqisi2
 284 0016 A17A     		ldrb	r1, [r4, #10]	@ zero_extendqisi2
 285 0018 FFF7FEFF 		bl	CyDmaChSetInitialTd
 286              	.LVL39:
 280:.\Generated_Source\PSoC5/LED_Driver_Gear.c ****     #endif /* (LED_Driver_Gear_BRIGHTNESS_EN == LED_Driver_Gear_ENABLED) */
 281:.\Generated_Source\PSoC5/LED_Driver_Gear.c ****     
 282:.\Generated_Source\PSoC5/LED_Driver_Gear.c ****     /* Enable all channels */
 283:.\Generated_Source\PSoC5/LED_Driver_Gear.c ****     (void) CyDmaChEnable(LED_Driver_Gear_dmaComChannel, 1u);
 287              		.loc 1 283 0
 288 001c 2078     		ldrb	r0, [r4]	@ zero_extendqisi2
 289 001e 0121     		movs	r1, #1
 290 0020 FFF7FEFF 		bl	CyDmaChEnable
 291              	.LVL40:
 284:.\Generated_Source\PSoC5/LED_Driver_Gear.c ****     (void) CyDmaChEnable(LED_Driver_Gear_dmaSegChannel, 1u);
 292              		.loc 1 284 0
 293 0024 A079     		ldrb	r0, [r4, #6]	@ zero_extendqisi2
 294 0026 0121     		movs	r1, #1
 295 0028 FFF7FEFF 		bl	CyDmaChEnable
 296              	.LVL41:
 285:.\Generated_Source\PSoC5/LED_Driver_Gear.c ****     #if (LED_Driver_Gear_BRIGHTNESS_EN == LED_Driver_Gear_ENABLED)
 286:.\Generated_Source\PSoC5/LED_Driver_Gear.c ****         (void) CyDmaChEnable(LED_Driver_Gear_dmaBCChannel, 1u);
 297              		.loc 1 286 0
 298 002c 607A     		ldrb	r0, [r4, #9]	@ zero_extendqisi2
 299 002e 0121     		movs	r1, #1
 300 0030 FFF7FEFF 		bl	CyDmaChEnable
 301              	.LVL42:
 302 0034 10BD     		pop	{r4, pc}
 303              	.L25:
 304 0036 00BF     		.align	2
 305              	.L24:
 306 0038 00000000 		.word	.LANCHOR0
 307              		.cfi_endproc
 308              	.LFE1:
 309              		.size	LED_Driver_Gear_DmaEnable, .-LED_Driver_Gear_DmaEnable
 310              		.section	.text.LED_Driver_Gear_DmaDisable,"ax",%progbits
 311              		.align	2
 312              		.thumb
 313              		.thumb_func
 314              		.type	LED_Driver_Gear_DmaDisable, %function
 315              	LED_Driver_Gear_DmaDisable:
 316              	.LFB2:
 287:.\Generated_Source\PSoC5/LED_Driver_Gear.c ****     #endif /* (LED_Driver_Gear_BRIGHTNESS_EN == LED_Driver_Gear_ENABLED) */
 288:.\Generated_Source\PSoC5/LED_Driver_Gear.c **** }
 289:.\Generated_Source\PSoC5/LED_Driver_Gear.c **** 
 290:.\Generated_Source\PSoC5/LED_Driver_Gear.c **** 
 291:.\Generated_Source\PSoC5/LED_Driver_Gear.c **** /*******************************************************************************
 292:.\Generated_Source\PSoC5/LED_Driver_Gear.c **** * Function Name: LED_Driver_Gear_DmaDisable
 293:.\Generated_Source\PSoC5/LED_Driver_Gear.c **** ********************************************************************************
 294:.\Generated_Source\PSoC5/LED_Driver_Gear.c **** *
 295:.\Generated_Source\PSoC5/LED_Driver_Gear.c **** * Summary: 
 296:.\Generated_Source\PSoC5/LED_Driver_Gear.c **** *  Disables the DMAs for transferring from register array to the control 
 297:.\Generated_Source\PSoC5/LED_Driver_Gear.c **** *  register.
 298:.\Generated_Source\PSoC5/LED_Driver_Gear.c **** *
 299:.\Generated_Source\PSoC5/LED_Driver_Gear.c **** * Parameters:
ARM GAS  C:\Users\charl\AppData\Local\Temp\ccxfbC9q.s 			page 12


 300:.\Generated_Source\PSoC5/LED_Driver_Gear.c **** *  None
 301:.\Generated_Source\PSoC5/LED_Driver_Gear.c **** *
 302:.\Generated_Source\PSoC5/LED_Driver_Gear.c **** * Return: 
 303:.\Generated_Source\PSoC5/LED_Driver_Gear.c **** *  None
 304:.\Generated_Source\PSoC5/LED_Driver_Gear.c **** *
 305:.\Generated_Source\PSoC5/LED_Driver_Gear.c **** * Side Effects: 
 306:.\Generated_Source\PSoC5/LED_Driver_Gear.c **** *  None
 307:.\Generated_Source\PSoC5/LED_Driver_Gear.c **** *
 308:.\Generated_Source\PSoC5/LED_Driver_Gear.c **** *******************************************************************************/
 309:.\Generated_Source\PSoC5/LED_Driver_Gear.c **** static void LED_Driver_Gear_DmaDisable(void) 
 310:.\Generated_Source\PSoC5/LED_Driver_Gear.c **** {
 317              		.loc 1 310 0
 318              		.cfi_startproc
 319              		@ args = 0, pretend = 0, frame = 8
 320              		@ frame_needed = 0, uses_anonymous_args = 0
 321 0000 70B5     		push	{r4, r5, r6, lr}
 322              		.cfi_def_cfa_offset 16
 323              		.cfi_offset 4, -16
 324              		.cfi_offset 5, -12
 325              		.cfi_offset 6, -8
 326              		.cfi_offset 14, -4
 327 0002 82B0     		sub	sp, sp, #8
 328              		.cfi_def_cfa_offset 24
 311:.\Generated_Source\PSoC5/LED_Driver_Gear.c ****     uint8 i;
 312:.\Generated_Source\PSoC5/LED_Driver_Gear.c ****     uint8 channel;
 313:.\Generated_Source\PSoC5/LED_Driver_Gear.c ****     uint8 dmaChannelList[LED_Driver_Gear_CHANNEL_LIMIT];
 314:.\Generated_Source\PSoC5/LED_Driver_Gear.c ****     
 315:.\Generated_Source\PSoC5/LED_Driver_Gear.c ****     dmaChannelList[0u] = LED_Driver_Gear_dmaComChannel;
 329              		.loc 1 315 0
 330 0004 174B     		ldr	r3, .L32
 331 0006 1A78     		ldrb	r2, [r3]	@ zero_extendqisi2
 332 0008 8DF80420 		strb	r2, [sp, #4]
 316:.\Generated_Source\PSoC5/LED_Driver_Gear.c ****     dmaChannelList[1u] = LED_Driver_Gear_dmaSegChannel;
 333              		.loc 1 316 0
 334 000c 9A79     		ldrb	r2, [r3, #6]	@ zero_extendqisi2
 335 000e 8DF80520 		strb	r2, [sp, #5]
 317:.\Generated_Source\PSoC5/LED_Driver_Gear.c ****     #if (LED_Driver_Gear_BRIGHTNESS_EN == LED_Driver_Gear_ENABLED)
 318:.\Generated_Source\PSoC5/LED_Driver_Gear.c ****         dmaChannelList[2u] = LED_Driver_Gear_dmaBCChannel;
 336              		.loc 1 318 0
 337 0012 5B7A     		ldrb	r3, [r3, #9]	@ zero_extendqisi2
 338 0014 8DF80630 		strb	r3, [sp, #6]
 339              	.LVL43:
 319:.\Generated_Source\PSoC5/LED_Driver_Gear.c ****     #endif /* (LED_Driver_Gear_BRIGHTNESS_EN == LED_Driver_Gear_ENABLED) */
 320:.\Generated_Source\PSoC5/LED_Driver_Gear.c **** 
 321:.\Generated_Source\PSoC5/LED_Driver_Gear.c ****     for(i = 0u; i < LED_Driver_Gear_CHANNEL_LIMIT; i++)
 340              		.loc 1 321 0
 341 0018 0026     		movs	r6, #0
 342 001a 1EE0     		b	.L27
 343              	.LVL44:
 344              	.L30:
 322:.\Generated_Source\PSoC5/LED_Driver_Gear.c ****     {
 323:.\Generated_Source\PSoC5/LED_Driver_Gear.c ****         channel = dmaChannelList[i];
 345              		.loc 1 323 0
 346 001c 02AB     		add	r3, sp, #8
 347 001e 3344     		add	r3, r3, r6
 348 0020 13F8045C 		ldrb	r5, [r3, #-4]	@ zero_extendqisi2
 349              	.LVL45:
ARM GAS  C:\Users\charl\AppData\Local\Temp\ccxfbC9q.s 			page 13


 324:.\Generated_Source\PSoC5/LED_Driver_Gear.c ****         (void) CyDmaChDisable(channel);
 350              		.loc 1 324 0
 351 0024 2846     		mov	r0, r5
 352 0026 FFF7FEFF 		bl	CyDmaChDisable
 353              	.LVL46:
 325:.\Generated_Source\PSoC5/LED_Driver_Gear.c ****         
 326:.\Generated_Source\PSoC5/LED_Driver_Gear.c ****         LED_Driver_Gear_Com_Driver_Write(LED_Driver_Gear_CLEAR);
 354              		.loc 1 326 0
 355 002a 0020     		movs	r0, #0
 356 002c FFF7FEFF 		bl	LED_Driver_Gear_Com_Driver_Write
 357              	.LVL47:
 358              	.L28:
 327:.\Generated_Source\PSoC5/LED_Driver_Gear.c ****         
 328:.\Generated_Source\PSoC5/LED_Driver_Gear.c ****         /* Clear any potential DMA requests and re-reset TD pointers */
 329:.\Generated_Source\PSoC5/LED_Driver_Gear.c ****         while(0u != (CY_DMA_CH_STRUCT_PTR[channel].basic_status[0u] & CY_DMA_STATUS_TD_ACTIVE))
 359              		.loc 1 329 0 discriminator 1
 360 0030 0D4C     		ldr	r4, .L32+4
 361 0032 04EB0514 		add	r4, r4, r5, lsl #4
 362 0036 237A     		ldrb	r3, [r4, #8]	@ zero_extendqisi2
 363 0038 13F0020F 		tst	r3, #2
 364 003c F8D1     		bne	.L28
 330:.\Generated_Source\PSoC5/LED_Driver_Gear.c ****         {
 331:.\Generated_Source\PSoC5/LED_Driver_Gear.c ****             ; /* Wait for to be cleared */
 332:.\Generated_Source\PSoC5/LED_Driver_Gear.c ****         }
 333:.\Generated_Source\PSoC5/LED_Driver_Gear.c **** 
 334:.\Generated_Source\PSoC5/LED_Driver_Gear.c ****         (void) CyDmaChSetRequest(channel, CY_DMA_CPU_TERM_CHAIN);
 365              		.loc 1 334 0
 366 003e 2846     		mov	r0, r5
 367 0040 0421     		movs	r1, #4
 368 0042 FFF7FEFF 		bl	CyDmaChSetRequest
 369              	.LVL48:
 335:.\Generated_Source\PSoC5/LED_Driver_Gear.c ****         (void) CyDmaChEnable    (channel, 1u);
 370              		.loc 1 335 0
 371 0046 2846     		mov	r0, r5
 372 0048 0121     		movs	r1, #1
 373 004a FFF7FEFF 		bl	CyDmaChEnable
 374              	.LVL49:
 375              	.L29:
 336:.\Generated_Source\PSoC5/LED_Driver_Gear.c **** 
 337:.\Generated_Source\PSoC5/LED_Driver_Gear.c ****         while(0u != (CY_DMA_CH_STRUCT_PTR[channel].basic_cfg[0u] & CY_DMA_STATUS_CHAIN_ACTIVE))
 376              		.loc 1 337 0 discriminator 1
 377 004e 2378     		ldrb	r3, [r4]	@ zero_extendqisi2
 378 0050 13F0010F 		tst	r3, #1
 379 0054 FBD1     		bne	.L29
 321:.\Generated_Source\PSoC5/LED_Driver_Gear.c ****     {
 380              		.loc 1 321 0 discriminator 2
 381 0056 0136     		adds	r6, r6, #1
 382              	.LVL50:
 383 0058 F6B2     		uxtb	r6, r6
 384              	.LVL51:
 385              	.L27:
 321:.\Generated_Source\PSoC5/LED_Driver_Gear.c ****     {
 386              		.loc 1 321 0 is_stmt 0 discriminator 1
 387 005a 022E     		cmp	r6, #2
 388 005c DED9     		bls	.L30
 338:.\Generated_Source\PSoC5/LED_Driver_Gear.c ****         {
 339:.\Generated_Source\PSoC5/LED_Driver_Gear.c ****             ; /* Wait for to be cleared */
ARM GAS  C:\Users\charl\AppData\Local\Temp\ccxfbC9q.s 			page 14


 340:.\Generated_Source\PSoC5/LED_Driver_Gear.c ****         }
 341:.\Generated_Source\PSoC5/LED_Driver_Gear.c ****     }
 342:.\Generated_Source\PSoC5/LED_Driver_Gear.c **** }
 389              		.loc 1 342 0 is_stmt 1
 390 005e 02B0     		add	sp, sp, #8
 391              		.cfi_def_cfa_offset 16
 392              		@ sp needed
 393 0060 70BD     		pop	{r4, r5, r6, pc}
 394              	.LVL52:
 395              	.L33:
 396 0062 00BF     		.align	2
 397              	.L32:
 398 0064 00000000 		.word	.LANCHOR0
 399 0068 10700040 		.word	1073770512
 400              		.cfi_endproc
 401              	.LFE2:
 402              		.size	LED_Driver_Gear_DmaDisable, .-LED_Driver_Gear_DmaDisable
 403              		.section	.text.LED_Driver_Gear_Enable,"ax",%progbits
 404              		.align	2
 405              		.global	LED_Driver_Gear_Enable
 406              		.thumb
 407              		.thumb_func
 408              		.type	LED_Driver_Gear_Enable, %function
 409              	LED_Driver_Gear_Enable:
 410              	.LFB4:
 343:.\Generated_Source\PSoC5/LED_Driver_Gear.c **** 
 344:.\Generated_Source\PSoC5/LED_Driver_Gear.c **** 
 345:.\Generated_Source\PSoC5/LED_Driver_Gear.c **** /*******************************************************************************
 346:.\Generated_Source\PSoC5/LED_Driver_Gear.c **** * Function Name: LED_Driver_Gear_Init
 347:.\Generated_Source\PSoC5/LED_Driver_Gear.c **** ********************************************************************************
 348:.\Generated_Source\PSoC5/LED_Driver_Gear.c **** *
 349:.\Generated_Source\PSoC5/LED_Driver_Gear.c **** * Summary: 
 350:.\Generated_Source\PSoC5/LED_Driver_Gear.c **** *  Performs initialization required for the component to operate.
 351:.\Generated_Source\PSoC5/LED_Driver_Gear.c **** *
 352:.\Generated_Source\PSoC5/LED_Driver_Gear.c **** * Parameters:
 353:.\Generated_Source\PSoC5/LED_Driver_Gear.c **** *  None
 354:.\Generated_Source\PSoC5/LED_Driver_Gear.c **** *
 355:.\Generated_Source\PSoC5/LED_Driver_Gear.c **** * Return: 
 356:.\Generated_Source\PSoC5/LED_Driver_Gear.c **** *  None
 357:.\Generated_Source\PSoC5/LED_Driver_Gear.c **** *
 358:.\Generated_Source\PSoC5/LED_Driver_Gear.c **** * Side Effects: 
 359:.\Generated_Source\PSoC5/LED_Driver_Gear.c **** *  This action clears the display.
 360:.\Generated_Source\PSoC5/LED_Driver_Gear.c **** *
 361:.\Generated_Source\PSoC5/LED_Driver_Gear.c **** *******************************************************************************/
 362:.\Generated_Source\PSoC5/LED_Driver_Gear.c **** void LED_Driver_Gear_Init(void) 
 363:.\Generated_Source\PSoC5/LED_Driver_Gear.c **** {
 364:.\Generated_Source\PSoC5/LED_Driver_Gear.c ****     static uint8 LED_Driver_Gear_dmaInitDone = 0u;
 365:.\Generated_Source\PSoC5/LED_Driver_Gear.c ****     #if (LED_Driver_Gear_BRIGHTNESS_EN == LED_Driver_Gear_ENABLED)
 366:.\Generated_Source\PSoC5/LED_Driver_Gear.c ****         uint8 i;
 367:.\Generated_Source\PSoC5/LED_Driver_Gear.c ****     #endif /* (LED_Driver_Gear_BRIGHTNESS_EN == LED_Driver_Gear_ENABLED) */
 368:.\Generated_Source\PSoC5/LED_Driver_Gear.c ****     
 369:.\Generated_Source\PSoC5/LED_Driver_Gear.c ****     /* Start fresh by clearing the display */
 370:.\Generated_Source\PSoC5/LED_Driver_Gear.c ****     LED_Driver_Gear_ClearDisplayAll();
 371:.\Generated_Source\PSoC5/LED_Driver_Gear.c ****     
 372:.\Generated_Source\PSoC5/LED_Driver_Gear.c ****     /* Initialize the DMAs */
 373:.\Generated_Source\PSoC5/LED_Driver_Gear.c ****     if(0u == LED_Driver_Gear_dmaInitDone)
 374:.\Generated_Source\PSoC5/LED_Driver_Gear.c ****     {
ARM GAS  C:\Users\charl\AppData\Local\Temp\ccxfbC9q.s 			page 15


 375:.\Generated_Source\PSoC5/LED_Driver_Gear.c ****         LED_Driver_Gear_DmaInit();
 376:.\Generated_Source\PSoC5/LED_Driver_Gear.c ****         LED_Driver_Gear_dmaInitDone = 1u;
 377:.\Generated_Source\PSoC5/LED_Driver_Gear.c ****     }
 378:.\Generated_Source\PSoC5/LED_Driver_Gear.c ****     
 379:.\Generated_Source\PSoC5/LED_Driver_Gear.c ****     /* Set the brightness to full */
 380:.\Generated_Source\PSoC5/LED_Driver_Gear.c ****     #if (LED_Driver_Gear_BRIGHTNESS_EN == LED_Driver_Gear_ENABLED)
 381:.\Generated_Source\PSoC5/LED_Driver_Gear.c ****         for(i = 0u; i<(LED_Driver_Gear_NUM_COM); i++)
 382:.\Generated_Source\PSoC5/LED_Driver_Gear.c ****         {
 383:.\Generated_Source\PSoC5/LED_Driver_Gear.c ****             LED_Driver_Gear_brightnessReg[i] = LED_Driver_Gear_INIT_BRIGHT;
 384:.\Generated_Source\PSoC5/LED_Driver_Gear.c ****         }
 385:.\Generated_Source\PSoC5/LED_Driver_Gear.c ****     #endif /* (LED_Driver_Gear_BRIGHTNESS_EN == LED_Driver_Gear_ENABLED) */
 386:.\Generated_Source\PSoC5/LED_Driver_Gear.c **** }
 387:.\Generated_Source\PSoC5/LED_Driver_Gear.c **** 
 388:.\Generated_Source\PSoC5/LED_Driver_Gear.c **** 
 389:.\Generated_Source\PSoC5/LED_Driver_Gear.c **** /*******************************************************************************
 390:.\Generated_Source\PSoC5/LED_Driver_Gear.c **** * Function Name: LED_Driver_Gear_Enable
 391:.\Generated_Source\PSoC5/LED_Driver_Gear.c **** ********************************************************************************
 392:.\Generated_Source\PSoC5/LED_Driver_Gear.c **** *
 393:.\Generated_Source\PSoC5/LED_Driver_Gear.c **** * Summary: 
 394:.\Generated_Source\PSoC5/LED_Driver_Gear.c **** *  Turns on the display.
 395:.\Generated_Source\PSoC5/LED_Driver_Gear.c **** *
 396:.\Generated_Source\PSoC5/LED_Driver_Gear.c **** * Parameters:
 397:.\Generated_Source\PSoC5/LED_Driver_Gear.c **** *  None
 398:.\Generated_Source\PSoC5/LED_Driver_Gear.c **** *
 399:.\Generated_Source\PSoC5/LED_Driver_Gear.c **** * Return: 
 400:.\Generated_Source\PSoC5/LED_Driver_Gear.c **** *  None
 401:.\Generated_Source\PSoC5/LED_Driver_Gear.c **** *
 402:.\Generated_Source\PSoC5/LED_Driver_Gear.c **** * Side Effects: 
 403:.\Generated_Source\PSoC5/LED_Driver_Gear.c **** *  None
 404:.\Generated_Source\PSoC5/LED_Driver_Gear.c **** *
 405:.\Generated_Source\PSoC5/LED_Driver_Gear.c **** *******************************************************************************/
 406:.\Generated_Source\PSoC5/LED_Driver_Gear.c **** void LED_Driver_Gear_Enable(void) 
 407:.\Generated_Source\PSoC5/LED_Driver_Gear.c **** {
 411              		.loc 1 407 0
 412              		.cfi_startproc
 413              		@ args = 0, pretend = 0, frame = 0
 414              		@ frame_needed = 0, uses_anonymous_args = 0
 415 0000 08B5     		push	{r3, lr}
 416              		.cfi_def_cfa_offset 8
 417              		.cfi_offset 3, -8
 418              		.cfi_offset 14, -4
 408:.\Generated_Source\PSoC5/LED_Driver_Gear.c ****     /* Enable the DMAs */
 409:.\Generated_Source\PSoC5/LED_Driver_Gear.c ****     LED_Driver_Gear_DmaEnable();
 419              		.loc 1 409 0
 420 0002 FFF7FEFF 		bl	LED_Driver_Gear_DmaEnable
 421              	.LVL53:
 410:.\Generated_Source\PSoC5/LED_Driver_Gear.c ****  
 411:.\Generated_Source\PSoC5/LED_Driver_Gear.c ****     #if (LED_Driver_Gear_BRIGHTNESS_EN == LED_Driver_Gear_ENABLED)
 412:.\Generated_Source\PSoC5/LED_Driver_Gear.c ****        /* Initialize to zero */
 413:.\Generated_Source\PSoC5/LED_Driver_Gear.c ****        LED_Driver_Gear_COUNTER_REG = 0x00u;
 422              		.loc 1 413 0
 423 0006 0023     		movs	r3, #0
 424 0008 044A     		ldr	r2, .L36
 425 000a 1370     		strb	r3, [r2]
 414:.\Generated_Source\PSoC5/LED_Driver_Gear.c ****        LED_Driver_Gear_COMPARE_REG = 0x00u;
 426              		.loc 1 414 0
 427 000c 1032     		adds	r2, r2, #16
ARM GAS  C:\Users\charl\AppData\Local\Temp\ccxfbC9q.s 			page 16


 428 000e 1370     		strb	r3, [r2]
 415:.\Generated_Source\PSoC5/LED_Driver_Gear.c ****        
 416:.\Generated_Source\PSoC5/LED_Driver_Gear.c ****         /* Enable the PWM for brightness control */
 417:.\Generated_Source\PSoC5/LED_Driver_Gear.c ****        LED_Driver_Gear_CONTROL_REG = LED_Driver_Gear_CTRL_ENABLE;
 429              		.loc 1 417 0
 430 0010 0123     		movs	r3, #1
 431 0012 5032     		adds	r2, r2, #80
 432 0014 1370     		strb	r3, [r2]
 418:.\Generated_Source\PSoC5/LED_Driver_Gear.c ****     #endif /* (LED_Driver_Gear_BRIGHTNESS_EN == LED_Driver_Gear_ENABLED) */
 419:.\Generated_Source\PSoC5/LED_Driver_Gear.c ****     
 420:.\Generated_Source\PSoC5/LED_Driver_Gear.c ****     LED_Driver_Gear_enableVar = LED_Driver_Gear_CTRL_ENABLE;
 433              		.loc 1 420 0
 434 0016 024A     		ldr	r2, .L36+4
 435 0018 5373     		strb	r3, [r2, #13]
 436 001a 08BD     		pop	{r3, pc}
 437              	.L37:
 438              		.align	2
 439              	.L36:
 440 001c 14650040 		.word	1073767700
 441 0020 00000000 		.word	.LANCHOR0
 442              		.cfi_endproc
 443              	.LFE4:
 444              		.size	LED_Driver_Gear_Enable, .-LED_Driver_Gear_Enable
 445              		.section	.text.LED_Driver_Gear_SetDisplayRAM,"ax",%progbits
 446              		.align	2
 447              		.global	LED_Driver_Gear_SetDisplayRAM
 448              		.thumb
 449              		.thumb_func
 450              		.type	LED_Driver_Gear_SetDisplayRAM, %function
 451              	LED_Driver_Gear_SetDisplayRAM:
 452              	.LFB7:
 421:.\Generated_Source\PSoC5/LED_Driver_Gear.c **** }
 422:.\Generated_Source\PSoC5/LED_Driver_Gear.c **** 
 423:.\Generated_Source\PSoC5/LED_Driver_Gear.c **** 
 424:.\Generated_Source\PSoC5/LED_Driver_Gear.c **** /*******************************************************************************
 425:.\Generated_Source\PSoC5/LED_Driver_Gear.c **** * Function Name: LED_Driver_Gear_Start
 426:.\Generated_Source\PSoC5/LED_Driver_Gear.c **** ********************************************************************************
 427:.\Generated_Source\PSoC5/LED_Driver_Gear.c **** *
 428:.\Generated_Source\PSoC5/LED_Driver_Gear.c **** * Summary:
 429:.\Generated_Source\PSoC5/LED_Driver_Gear.c **** *  Configures the hardware (DMA and optional PWM) and enables the LED
 430:.\Generated_Source\PSoC5/LED_Driver_Gear.c **** *  display. Whatever is currently in the display RAM will be displayed on the 
 431:.\Generated_Source\PSoC5/LED_Driver_Gear.c **** *  LED display. The display RAM is an array of 1 to 24 bytes called 
 432:.\Generated_Source\PSoC5/LED_Driver_Gear.c **** *  LED_Driver_1_SegmentRam[].
 433:.\Generated_Source\PSoC5/LED_Driver_Gear.c **** *
 434:.\Generated_Source\PSoC5/LED_Driver_Gear.c **** * Parameters:
 435:.\Generated_Source\PSoC5/LED_Driver_Gear.c **** *  None
 436:.\Generated_Source\PSoC5/LED_Driver_Gear.c **** *
 437:.\Generated_Source\PSoC5/LED_Driver_Gear.c **** * Return:
 438:.\Generated_Source\PSoC5/LED_Driver_Gear.c **** *  None
 439:.\Generated_Source\PSoC5/LED_Driver_Gear.c **** *
 440:.\Generated_Source\PSoC5/LED_Driver_Gear.c **** * Side effects: 
 441:.\Generated_Source\PSoC5/LED_Driver_Gear.c **** *  None
 442:.\Generated_Source\PSoC5/LED_Driver_Gear.c **** *
 443:.\Generated_Source\PSoC5/LED_Driver_Gear.c **** *******************************************************************************/
 444:.\Generated_Source\PSoC5/LED_Driver_Gear.c **** void LED_Driver_Gear_Start(void) 
 445:.\Generated_Source\PSoC5/LED_Driver_Gear.c **** {
 446:.\Generated_Source\PSoC5/LED_Driver_Gear.c ****     if(0u == LED_Driver_Gear_initVar)
ARM GAS  C:\Users\charl\AppData\Local\Temp\ccxfbC9q.s 			page 17


 447:.\Generated_Source\PSoC5/LED_Driver_Gear.c ****     {
 448:.\Generated_Source\PSoC5/LED_Driver_Gear.c ****         LED_Driver_Gear_Init();
 449:.\Generated_Source\PSoC5/LED_Driver_Gear.c ****         LED_Driver_Gear_initVar = 1u;
 450:.\Generated_Source\PSoC5/LED_Driver_Gear.c ****     }
 451:.\Generated_Source\PSoC5/LED_Driver_Gear.c **** 
 452:.\Generated_Source\PSoC5/LED_Driver_Gear.c ****     LED_Driver_Gear_Enable();
 453:.\Generated_Source\PSoC5/LED_Driver_Gear.c **** }
 454:.\Generated_Source\PSoC5/LED_Driver_Gear.c **** 
 455:.\Generated_Source\PSoC5/LED_Driver_Gear.c **** 
 456:.\Generated_Source\PSoC5/LED_Driver_Gear.c **** /*******************************************************************************
 457:.\Generated_Source\PSoC5/LED_Driver_Gear.c **** * Function Name: LED_Driver_Gear_Stop
 458:.\Generated_Source\PSoC5/LED_Driver_Gear.c **** ********************************************************************************
 459:.\Generated_Source\PSoC5/LED_Driver_Gear.c **** *
 460:.\Generated_Source\PSoC5/LED_Driver_Gear.c **** * Summary:
 461:.\Generated_Source\PSoC5/LED_Driver_Gear.c **** *  Clears the display SRAM, disables all DMA channels and the stops the PWM
 462:.\Generated_Source\PSoC5/LED_Driver_Gear.c **** *  (if enabled in the customizer).
 463:.\Generated_Source\PSoC5/LED_Driver_Gear.c **** *
 464:.\Generated_Source\PSoC5/LED_Driver_Gear.c **** * Parameters:
 465:.\Generated_Source\PSoC5/LED_Driver_Gear.c **** *  None
 466:.\Generated_Source\PSoC5/LED_Driver_Gear.c **** *
 467:.\Generated_Source\PSoC5/LED_Driver_Gear.c **** * Return:
 468:.\Generated_Source\PSoC5/LED_Driver_Gear.c **** *  None
 469:.\Generated_Source\PSoC5/LED_Driver_Gear.c **** *
 470:.\Generated_Source\PSoC5/LED_Driver_Gear.c **** * Side effects:
 471:.\Generated_Source\PSoC5/LED_Driver_Gear.c **** *  None
 472:.\Generated_Source\PSoC5/LED_Driver_Gear.c **** *
 473:.\Generated_Source\PSoC5/LED_Driver_Gear.c **** *******************************************************************************/
 474:.\Generated_Source\PSoC5/LED_Driver_Gear.c **** void LED_Driver_Gear_Stop(void) 
 475:.\Generated_Source\PSoC5/LED_Driver_Gear.c **** {
 476:.\Generated_Source\PSoC5/LED_Driver_Gear.c ****     #if (LED_Driver_Gear_BRIGHTNESS_EN == LED_Driver_Gear_ENABLED)
 477:.\Generated_Source\PSoC5/LED_Driver_Gear.c ****         /* Disable the PWM */
 478:.\Generated_Source\PSoC5/LED_Driver_Gear.c ****         LED_Driver_Gear_CONTROL_REG = LED_Driver_Gear_CTRL_DISABLE;
 479:.\Generated_Source\PSoC5/LED_Driver_Gear.c ****     #endif /* (LED_Driver_Gear_BRIGHTNESS_EN == LED_Driver_Gear_ENABLED) */
 480:.\Generated_Source\PSoC5/LED_Driver_Gear.c ****     
 481:.\Generated_Source\PSoC5/LED_Driver_Gear.c ****     LED_Driver_Gear_DmaDisable();
 482:.\Generated_Source\PSoC5/LED_Driver_Gear.c ****     LED_Driver_Gear_ClearDisplayAll();
 483:.\Generated_Source\PSoC5/LED_Driver_Gear.c ****     
 484:.\Generated_Source\PSoC5/LED_Driver_Gear.c ****     LED_Driver_Gear_enableVar  = LED_Driver_Gear_CTRL_DISABLE;
 485:.\Generated_Source\PSoC5/LED_Driver_Gear.c **** }
 486:.\Generated_Source\PSoC5/LED_Driver_Gear.c **** 
 487:.\Generated_Source\PSoC5/LED_Driver_Gear.c **** 
 488:.\Generated_Source\PSoC5/LED_Driver_Gear.c **** /*******************************************************************************
 489:.\Generated_Source\PSoC5/LED_Driver_Gear.c **** * Function Name: LED_Driver_Gear_SetDisplayRAM
 490:.\Generated_Source\PSoC5/LED_Driver_Gear.c **** ********************************************************************************
 491:.\Generated_Source\PSoC5/LED_Driver_Gear.c **** *
 492:.\Generated_Source\PSoC5/LED_Driver_Gear.c **** * Summary:
 493:.\Generated_Source\PSoC5/LED_Driver_Gear.c **** *  Writes 'value' directly into the display RAM. It is not necessary to use 
 494:.\Generated_Source\PSoC5/LED_Driver_Gear.c **** *  this API to manipulate the display RAM, you can also access the display 
 495:.\Generated_Source\PSoC5/LED_Driver_Gear.c **** *  RAM directly by writing to LED_Driver_Gear_segLBuffer,
 496:.\Generated_Source\PSoC5/LED_Driver_Gear.c **** *  LED_Driver_Gear_segMBuffer, LED_Driver_Gear_segHBuffer.
 497:.\Generated_Source\PSoC5/LED_Driver_Gear.c **** *
 498:.\Generated_Source\PSoC5/LED_Driver_Gear.c **** * Parameters:
 499:.\Generated_Source\PSoC5/LED_Driver_Gear.c **** *  uint8 value: Desired value to write into the display RAM. A '1' enables the
 500:.\Generated_Source\PSoC5/LED_Driver_Gear.c **** *               segment, a '0' disables the segment.
 501:.\Generated_Source\PSoC5/LED_Driver_Gear.c **** *  uint8 position: Position of the display that is modified.
 502:.\Generated_Source\PSoC5/LED_Driver_Gear.c **** *
 503:.\Generated_Source\PSoC5/LED_Driver_Gear.c **** * Return:
ARM GAS  C:\Users\charl\AppData\Local\Temp\ccxfbC9q.s 			page 18


 504:.\Generated_Source\PSoC5/LED_Driver_Gear.c **** *  None
 505:.\Generated_Source\PSoC5/LED_Driver_Gear.c **** *
 506:.\Generated_Source\PSoC5/LED_Driver_Gear.c **** * Side effects:
 507:.\Generated_Source\PSoC5/LED_Driver_Gear.c **** *  None
 508:.\Generated_Source\PSoC5/LED_Driver_Gear.c **** *
 509:.\Generated_Source\PSoC5/LED_Driver_Gear.c **** *******************************************************************************/
 510:.\Generated_Source\PSoC5/LED_Driver_Gear.c **** void LED_Driver_Gear_SetDisplayRAM(uint8 value, uint8 position) 
 511:.\Generated_Source\PSoC5/LED_Driver_Gear.c **** {
 453              		.loc 1 511 0
 454              		.cfi_startproc
 455              		@ args = 0, pretend = 0, frame = 0
 456              		@ frame_needed = 0, uses_anonymous_args = 0
 457              		@ link register save eliminated.
 458              	.LVL54:
 512:.\Generated_Source\PSoC5/LED_Driver_Gear.c ****     uint8 relPosition;
 513:.\Generated_Source\PSoC5/LED_Driver_Gear.c ****     
 514:.\Generated_Source\PSoC5/LED_Driver_Gear.c ****     if(position < LED_Driver_Gear_NUM_COM)
 459              		.loc 1 514 0
 460 0000 09B9     		cbnz	r1, .L38
 461              	.LVL55:
 515:.\Generated_Source\PSoC5/LED_Driver_Gear.c ****     {
 516:.\Generated_Source\PSoC5/LED_Driver_Gear.c ****         relPosition = position;
 517:.\Generated_Source\PSoC5/LED_Driver_Gear.c ****         #if(LED_Driver_Gear_SEG_DRIVE == LED_Driver_Gear_HIGH)
 518:.\Generated_Source\PSoC5/LED_Driver_Gear.c ****             LED_Driver_Gear_segLBuffer[relPosition] = value;
 462              		.loc 1 518 0
 463 0002 014A     		ldr	r2, .L40
 464 0004 5054     		strb	r0, [r2, r1]
 465              	.LVL56:
 466              	.L38:
 467 0006 7047     		bx	lr
 468              	.L41:
 469              		.align	2
 470              	.L40:
 471 0008 00000000 		.word	LED_Driver_Gear_segLBuffer
 472              		.cfi_endproc
 473              	.LFE7:
 474              		.size	LED_Driver_Gear_SetDisplayRAM, .-LED_Driver_Gear_SetDisplayRAM
 475              		.section	.text.LED_Driver_Gear_SetRC,"ax",%progbits
 476              		.align	2
 477              		.global	LED_Driver_Gear_SetRC
 478              		.thumb
 479              		.thumb_func
 480              		.type	LED_Driver_Gear_SetRC, %function
 481              	LED_Driver_Gear_SetRC:
 482              	.LFB8:
 519:.\Generated_Source\PSoC5/LED_Driver_Gear.c ****         #else
 520:.\Generated_Source\PSoC5/LED_Driver_Gear.c ****             LED_Driver_Gear_segLBuffer[relPosition] = ((uint8) ~value);
 521:.\Generated_Source\PSoC5/LED_Driver_Gear.c ****         #endif /* LED_Driver_Gear_SEG_DRIVE == LED_Driver_Gear_HIGH */
 522:.\Generated_Source\PSoC5/LED_Driver_Gear.c ****     }    
 523:.\Generated_Source\PSoC5/LED_Driver_Gear.c ****     else if (position < LED_Driver_Gear_TWO_NUM_COM)
 524:.\Generated_Source\PSoC5/LED_Driver_Gear.c ****     {
 525:.\Generated_Source\PSoC5/LED_Driver_Gear.c ****         #if (LED_Driver_Gear_NUM_SEG > 8u)
 526:.\Generated_Source\PSoC5/LED_Driver_Gear.c ****             relPosition = position - LED_Driver_Gear_NUM_COM;
 527:.\Generated_Source\PSoC5/LED_Driver_Gear.c ****             #if(LED_Driver_Gear_SEG_DRIVE == LED_Driver_Gear_HIGH)
 528:.\Generated_Source\PSoC5/LED_Driver_Gear.c ****                 LED_Driver_Gear_segMBuffer[relPosition] = value;
 529:.\Generated_Source\PSoC5/LED_Driver_Gear.c ****             #else
 530:.\Generated_Source\PSoC5/LED_Driver_Gear.c ****                 LED_Driver_Gear_segMBuffer[relPosition] = ((uint8) ~value);
ARM GAS  C:\Users\charl\AppData\Local\Temp\ccxfbC9q.s 			page 19


 531:.\Generated_Source\PSoC5/LED_Driver_Gear.c ****             #endif /* LED_Driver_Gear_SEG_DRIVE == LED_Driver_Gear_HIGH */
 532:.\Generated_Source\PSoC5/LED_Driver_Gear.c ****         #endif /* (LED_Driver_Gear_NUM_SEG > 8u) */
 533:.\Generated_Source\PSoC5/LED_Driver_Gear.c ****     }
 534:.\Generated_Source\PSoC5/LED_Driver_Gear.c ****     else
 535:.\Generated_Source\PSoC5/LED_Driver_Gear.c ****     {
 536:.\Generated_Source\PSoC5/LED_Driver_Gear.c ****         #if (LED_Driver_Gear_NUM_SEG > 16u)
 537:.\Generated_Source\PSoC5/LED_Driver_Gear.c ****             relPosition = position - LED_Driver_Gear_TWO_NUM_COM;
 538:.\Generated_Source\PSoC5/LED_Driver_Gear.c ****             if(relPosition < LED_Driver_Gear_NUM_COM)
 539:.\Generated_Source\PSoC5/LED_Driver_Gear.c ****             {
 540:.\Generated_Source\PSoC5/LED_Driver_Gear.c ****                 #if(LED_Driver_Gear_SEG_DRIVE == LED_Driver_Gear_HIGH)
 541:.\Generated_Source\PSoC5/LED_Driver_Gear.c ****                     LED_Driver_Gear_segHBuffer[relPosition] = value;
 542:.\Generated_Source\PSoC5/LED_Driver_Gear.c ****                 #else
 543:.\Generated_Source\PSoC5/LED_Driver_Gear.c ****                     LED_Driver_Gear_segMBuffer[relPosition] = ((uint8) ~value);
 544:.\Generated_Source\PSoC5/LED_Driver_Gear.c ****                 #endif /* LED_Driver_Gear_SEG_DRIVE == LED_Driver_Gear_HIGH */
 545:.\Generated_Source\PSoC5/LED_Driver_Gear.c ****             }
 546:.\Generated_Source\PSoC5/LED_Driver_Gear.c ****         #endif /* (LED_Driver_Gear_NUM_SEG > 16u) */
 547:.\Generated_Source\PSoC5/LED_Driver_Gear.c ****     }
 548:.\Generated_Source\PSoC5/LED_Driver_Gear.c **** }
 549:.\Generated_Source\PSoC5/LED_Driver_Gear.c **** 
 550:.\Generated_Source\PSoC5/LED_Driver_Gear.c **** 
 551:.\Generated_Source\PSoC5/LED_Driver_Gear.c **** /*******************************************************************************
 552:.\Generated_Source\PSoC5/LED_Driver_Gear.c **** * Function Name: LED_Driver_Gear_SetRC
 553:.\Generated_Source\PSoC5/LED_Driver_Gear.c **** ********************************************************************************
 554:.\Generated_Source\PSoC5/LED_Driver_Gear.c **** *
 555:.\Generated_Source\PSoC5/LED_Driver_Gear.c **** * Summary:
 556:.\Generated_Source\PSoC5/LED_Driver_Gear.c **** *  Sets the bit in the display RAM corresponding to the LED in the designated
 557:.\Generated_Source\PSoC5/LED_Driver_Gear.c **** *  row and column. Rows are the segments and columns are the commons.
 558:.\Generated_Source\PSoC5/LED_Driver_Gear.c **** *
 559:.\Generated_Source\PSoC5/LED_Driver_Gear.c **** * Parameters:
 560:.\Generated_Source\PSoC5/LED_Driver_Gear.c **** *  uint8 row: Row value 0 to 23.
 561:.\Generated_Source\PSoC5/LED_Driver_Gear.c **** *  uint8 col: Column between 0 and 7.
 562:.\Generated_Source\PSoC5/LED_Driver_Gear.c **** *
 563:.\Generated_Source\PSoC5/LED_Driver_Gear.c **** * Return:
 564:.\Generated_Source\PSoC5/LED_Driver_Gear.c **** *  None
 565:.\Generated_Source\PSoC5/LED_Driver_Gear.c **** *
 566:.\Generated_Source\PSoC5/LED_Driver_Gear.c **** * Side effects:
 567:.\Generated_Source\PSoC5/LED_Driver_Gear.c **** *  None
 568:.\Generated_Source\PSoC5/LED_Driver_Gear.c **** *
 569:.\Generated_Source\PSoC5/LED_Driver_Gear.c **** *******************************************************************************/
 570:.\Generated_Source\PSoC5/LED_Driver_Gear.c **** void LED_Driver_Gear_SetRC(uint8 row, uint8 column) 
 571:.\Generated_Source\PSoC5/LED_Driver_Gear.c **** {
 483              		.loc 1 571 0
 484              		.cfi_startproc
 485              		@ args = 0, pretend = 0, frame = 0
 486              		@ frame_needed = 0, uses_anonymous_args = 0
 487              		@ link register save eliminated.
 488              	.LVL57:
 572:.\Generated_Source\PSoC5/LED_Driver_Gear.c ****     uint8 rowSeg;
 573:.\Generated_Source\PSoC5/LED_Driver_Gear.c ****     
 574:.\Generated_Source\PSoC5/LED_Driver_Gear.c ****     if(column < LED_Driver_Gear_NUM_COM)
 489              		.loc 1 574 0
 490 0000 0B46     		mov	r3, r1
 491 0002 39B9     		cbnz	r1, .L42
 575:.\Generated_Source\PSoC5/LED_Driver_Gear.c ****     {
 576:.\Generated_Source\PSoC5/LED_Driver_Gear.c ****         if(row < 8u)
 492              		.loc 1 576 0
 493 0004 0728     		cmp	r0, #7
ARM GAS  C:\Users\charl\AppData\Local\Temp\ccxfbC9q.s 			page 20


 494 0006 05D8     		bhi	.L42
 495              	.LVL58:
 577:.\Generated_Source\PSoC5/LED_Driver_Gear.c ****         {
 578:.\Generated_Source\PSoC5/LED_Driver_Gear.c ****             rowSeg = row;
 579:.\Generated_Source\PSoC5/LED_Driver_Gear.c ****             #if(LED_Driver_Gear_SEG_DRIVE == LED_Driver_Gear_HIGH)
 580:.\Generated_Source\PSoC5/LED_Driver_Gear.c ****                 LED_Driver_Gear_segLBuffer[column] |= ((uint8)((uint8)0x01u << rowSeg));
 496              		.loc 1 580 0
 497 0008 0122     		movs	r2, #1
 498 000a 8240     		lsls	r2, r2, r0
 499 000c 0248     		ldr	r0, .L44
 500              	.LVL59:
 501 000e 415C     		ldrb	r1, [r0, r1]	@ zero_extendqisi2
 502              	.LVL60:
 503 0010 0A43     		orrs	r2, r2, r1
 504 0012 C254     		strb	r2, [r0, r3]
 505              	.LVL61:
 506              	.L42:
 507 0014 7047     		bx	lr
 508              	.L45:
 509 0016 00BF     		.align	2
 510              	.L44:
 511 0018 00000000 		.word	LED_Driver_Gear_segLBuffer
 512              		.cfi_endproc
 513              	.LFE8:
 514              		.size	LED_Driver_Gear_SetRC, .-LED_Driver_Gear_SetRC
 515              		.section	.text.LED_Driver_Gear_ClearRC,"ax",%progbits
 516              		.align	2
 517              		.global	LED_Driver_Gear_ClearRC
 518              		.thumb
 519              		.thumb_func
 520              		.type	LED_Driver_Gear_ClearRC, %function
 521              	LED_Driver_Gear_ClearRC:
 522              	.LFB9:
 581:.\Generated_Source\PSoC5/LED_Driver_Gear.c ****             #else
 582:.\Generated_Source\PSoC5/LED_Driver_Gear.c ****                 LED_Driver_Gear_segLBuffer[column] &= ((uint8)~((uint8)((uint8)0x01u << rowSeg)));
 583:.\Generated_Source\PSoC5/LED_Driver_Gear.c ****             #endif /* LED_Driver_Gear_SEG_DRIVE == LED_Driver_Gear_HIGH */
 584:.\Generated_Source\PSoC5/LED_Driver_Gear.c ****         }
 585:.\Generated_Source\PSoC5/LED_Driver_Gear.c ****         else if (row < 16u)
 586:.\Generated_Source\PSoC5/LED_Driver_Gear.c ****         {
 587:.\Generated_Source\PSoC5/LED_Driver_Gear.c ****             #if (LED_Driver_Gear_NUM_SEG > 8u) 
 588:.\Generated_Source\PSoC5/LED_Driver_Gear.c ****                 rowSeg = row - 8u;
 589:.\Generated_Source\PSoC5/LED_Driver_Gear.c ****                 #if(LED_Driver_Gear_SEG_DRIVE == LED_Driver_Gear_HIGH)
 590:.\Generated_Source\PSoC5/LED_Driver_Gear.c ****                     LED_Driver_Gear_segMBuffer[column] |= ((uint8)((uint8)0x01u << rowSeg));
 591:.\Generated_Source\PSoC5/LED_Driver_Gear.c ****                 #else
 592:.\Generated_Source\PSoC5/LED_Driver_Gear.c ****                     LED_Driver_Gear_segMBuffer[column] &= ((uint8)~((uint8)((uint8)0x01u << rowSeg)
 593:.\Generated_Source\PSoC5/LED_Driver_Gear.c ****                 #endif /* LED_Driver_Gear_SEG_DRIVE == LED_Driver_Gear_HIGH */
 594:.\Generated_Source\PSoC5/LED_Driver_Gear.c ****             #endif /* (LED_Driver_Gear_NUM_SEG > 8u) */
 595:.\Generated_Source\PSoC5/LED_Driver_Gear.c ****         }
 596:.\Generated_Source\PSoC5/LED_Driver_Gear.c ****         else
 597:.\Generated_Source\PSoC5/LED_Driver_Gear.c ****         {
 598:.\Generated_Source\PSoC5/LED_Driver_Gear.c ****             #if (LED_Driver_Gear_NUM_SEG > 16u)
 599:.\Generated_Source\PSoC5/LED_Driver_Gear.c ****                 rowSeg = row - 16u;
 600:.\Generated_Source\PSoC5/LED_Driver_Gear.c ****                 #if(LED_Driver_Gear_SEG_DRIVE == LED_Driver_Gear_HIGH)
 601:.\Generated_Source\PSoC5/LED_Driver_Gear.c ****                     LED_Driver_Gear_segHBuffer[column] |= ((uint8)((uint8)0x01u << rowSeg));
 602:.\Generated_Source\PSoC5/LED_Driver_Gear.c ****                 #else
 603:.\Generated_Source\PSoC5/LED_Driver_Gear.c ****                     LED_Driver_Gear_segHBuffer[column] &= ((uint8)~((uint8)((uint8)0x01u << rowSeg)
 604:.\Generated_Source\PSoC5/LED_Driver_Gear.c ****                 #endif /* LED_Driver_Gear_SEG_DRIVE == LED_Driver_Gear_HIGH */
ARM GAS  C:\Users\charl\AppData\Local\Temp\ccxfbC9q.s 			page 21


 605:.\Generated_Source\PSoC5/LED_Driver_Gear.c ****             #endif /* (LED_Driver_Gear_NUM_SEG > 16u) */
 606:.\Generated_Source\PSoC5/LED_Driver_Gear.c ****         }
 607:.\Generated_Source\PSoC5/LED_Driver_Gear.c ****     }
 608:.\Generated_Source\PSoC5/LED_Driver_Gear.c **** }
 609:.\Generated_Source\PSoC5/LED_Driver_Gear.c **** 
 610:.\Generated_Source\PSoC5/LED_Driver_Gear.c **** 
 611:.\Generated_Source\PSoC5/LED_Driver_Gear.c **** /*******************************************************************************
 612:.\Generated_Source\PSoC5/LED_Driver_Gear.c **** * Function Name: LED_Driver_Gear_ClearRC
 613:.\Generated_Source\PSoC5/LED_Driver_Gear.c **** ********************************************************************************
 614:.\Generated_Source\PSoC5/LED_Driver_Gear.c **** *
 615:.\Generated_Source\PSoC5/LED_Driver_Gear.c **** * Summary:
 616:.\Generated_Source\PSoC5/LED_Driver_Gear.c **** *  Clears the bit in the display RAM corresponding to the LED in the designated
 617:.\Generated_Source\PSoC5/LED_Driver_Gear.c **** *  row and column.
 618:.\Generated_Source\PSoC5/LED_Driver_Gear.c **** *
 619:.\Generated_Source\PSoC5/LED_Driver_Gear.c **** * Parameters:
 620:.\Generated_Source\PSoC5/LED_Driver_Gear.c **** *  uint8 row: Row value 0 to 23.
 621:.\Generated_Source\PSoC5/LED_Driver_Gear.c **** *  uint8 col: Column between 0 and 7.
 622:.\Generated_Source\PSoC5/LED_Driver_Gear.c **** *
 623:.\Generated_Source\PSoC5/LED_Driver_Gear.c **** * Return:
 624:.\Generated_Source\PSoC5/LED_Driver_Gear.c **** *  None
 625:.\Generated_Source\PSoC5/LED_Driver_Gear.c **** *
 626:.\Generated_Source\PSoC5/LED_Driver_Gear.c **** * Side effects:
 627:.\Generated_Source\PSoC5/LED_Driver_Gear.c **** *  None
 628:.\Generated_Source\PSoC5/LED_Driver_Gear.c **** *
 629:.\Generated_Source\PSoC5/LED_Driver_Gear.c **** *******************************************************************************/
 630:.\Generated_Source\PSoC5/LED_Driver_Gear.c **** void LED_Driver_Gear_ClearRC(uint8 row, uint8 column) 
 631:.\Generated_Source\PSoC5/LED_Driver_Gear.c **** {
 523              		.loc 1 631 0
 524              		.cfi_startproc
 525              		@ args = 0, pretend = 0, frame = 0
 526              		@ frame_needed = 0, uses_anonymous_args = 0
 527              		@ link register save eliminated.
 528              	.LVL62:
 632:.\Generated_Source\PSoC5/LED_Driver_Gear.c ****     uint8 rowSeg;
 633:.\Generated_Source\PSoC5/LED_Driver_Gear.c ****     uint8 rowSelect;
 634:.\Generated_Source\PSoC5/LED_Driver_Gear.c ****     
 635:.\Generated_Source\PSoC5/LED_Driver_Gear.c ****     if(column < LED_Driver_Gear_NUM_COM)
 529              		.loc 1 635 0
 530 0000 0B46     		mov	r3, r1
 531 0002 41B9     		cbnz	r1, .L46
 636:.\Generated_Source\PSoC5/LED_Driver_Gear.c ****     {
 637:.\Generated_Source\PSoC5/LED_Driver_Gear.c ****         if(row < 8u)
 532              		.loc 1 637 0
 533 0004 0728     		cmp	r0, #7
 534 0006 06D8     		bhi	.L46
 535              	.LVL63:
 638:.\Generated_Source\PSoC5/LED_Driver_Gear.c ****         {
 639:.\Generated_Source\PSoC5/LED_Driver_Gear.c ****             rowSeg = row;
 640:.\Generated_Source\PSoC5/LED_Driver_Gear.c ****             rowSelect = ((uint8)((uint8)0x01u << rowSeg));
 536              		.loc 1 640 0
 537 0008 0122     		movs	r2, #1
 538 000a 8240     		lsls	r2, r2, r0
 539              	.LVL64:
 641:.\Generated_Source\PSoC5/LED_Driver_Gear.c ****             #if(LED_Driver_Gear_SEG_DRIVE == LED_Driver_Gear_HIGH)
 642:.\Generated_Source\PSoC5/LED_Driver_Gear.c ****                 LED_Driver_Gear_segLBuffer[column] &= ((uint8)(~(uint8)rowSelect));
 540              		.loc 1 642 0
 541 000c 0248     		ldr	r0, .L48
ARM GAS  C:\Users\charl\AppData\Local\Temp\ccxfbC9q.s 			page 22


 542              	.LVL65:
 543 000e 415C     		ldrb	r1, [r0, r1]	@ zero_extendqisi2
 544              	.LVL66:
 545 0010 21EA0202 		bic	r2, r1, r2
 546              	.LVL67:
 547 0014 C254     		strb	r2, [r0, r3]
 548              	.LVL68:
 549              	.L46:
 550 0016 7047     		bx	lr
 551              	.L49:
 552              		.align	2
 553              	.L48:
 554 0018 00000000 		.word	LED_Driver_Gear_segLBuffer
 555              		.cfi_endproc
 556              	.LFE9:
 557              		.size	LED_Driver_Gear_ClearRC, .-LED_Driver_Gear_ClearRC
 558              		.section	.text.LED_Driver_Gear_ToggleRC,"ax",%progbits
 559              		.align	2
 560              		.global	LED_Driver_Gear_ToggleRC
 561              		.thumb
 562              		.thumb_func
 563              		.type	LED_Driver_Gear_ToggleRC, %function
 564              	LED_Driver_Gear_ToggleRC:
 565              	.LFB10:
 643:.\Generated_Source\PSoC5/LED_Driver_Gear.c ****             #else
 644:.\Generated_Source\PSoC5/LED_Driver_Gear.c ****                 LED_Driver_Gear_segLBuffer[column] |= rowSelect;
 645:.\Generated_Source\PSoC5/LED_Driver_Gear.c ****             #endif /* LED_Driver_Gear_SEG_DRIVE == LED_Driver_Gear_HIGH */
 646:.\Generated_Source\PSoC5/LED_Driver_Gear.c ****         }    
 647:.\Generated_Source\PSoC5/LED_Driver_Gear.c ****         else if (row < 16u)
 648:.\Generated_Source\PSoC5/LED_Driver_Gear.c ****         {
 649:.\Generated_Source\PSoC5/LED_Driver_Gear.c ****             #if (LED_Driver_Gear_NUM_SEG > 8u) 
 650:.\Generated_Source\PSoC5/LED_Driver_Gear.c ****                 rowSeg = row - 8u;
 651:.\Generated_Source\PSoC5/LED_Driver_Gear.c ****                 rowSelect = ((uint8)((uint8)0x01u << rowSeg));
 652:.\Generated_Source\PSoC5/LED_Driver_Gear.c ****                 #if(LED_Driver_Gear_SEG_DRIVE == LED_Driver_Gear_HIGH)
 653:.\Generated_Source\PSoC5/LED_Driver_Gear.c ****                     LED_Driver_Gear_segMBuffer[column] &= ((uint8)(~(uint8)rowSelect));
 654:.\Generated_Source\PSoC5/LED_Driver_Gear.c ****                 #else
 655:.\Generated_Source\PSoC5/LED_Driver_Gear.c ****                     LED_Driver_Gear_segMBuffer[column] |= rowSelect;
 656:.\Generated_Source\PSoC5/LED_Driver_Gear.c ****                 #endif /* LED_Driver_Gear_SEG_DRIVE == LED_Driver_Gear_HIGH */
 657:.\Generated_Source\PSoC5/LED_Driver_Gear.c ****             #endif /* (LED_Driver_Gear_NUM_SEG > 8u) */
 658:.\Generated_Source\PSoC5/LED_Driver_Gear.c ****         }
 659:.\Generated_Source\PSoC5/LED_Driver_Gear.c ****         else
 660:.\Generated_Source\PSoC5/LED_Driver_Gear.c ****         {
 661:.\Generated_Source\PSoC5/LED_Driver_Gear.c ****             #if (LED_Driver_Gear_NUM_SEG > 16u)
 662:.\Generated_Source\PSoC5/LED_Driver_Gear.c ****                 rowSeg = row - 16u;
 663:.\Generated_Source\PSoC5/LED_Driver_Gear.c ****                 rowSelect = ((uint8)((uint8)0x01u << rowSeg));
 664:.\Generated_Source\PSoC5/LED_Driver_Gear.c ****                 #if(LED_Driver_Gear_SEG_DRIVE == LED_Driver_Gear_HIGH)
 665:.\Generated_Source\PSoC5/LED_Driver_Gear.c ****                     LED_Driver_Gear_segHBuffer[column] &= ((uint8)(~(uint8)rowSelect));
 666:.\Generated_Source\PSoC5/LED_Driver_Gear.c ****                 #else
 667:.\Generated_Source\PSoC5/LED_Driver_Gear.c ****                     LED_Driver_Gear_segHBuffer[column] |= rowSelect;
 668:.\Generated_Source\PSoC5/LED_Driver_Gear.c ****                 #endif /* LED_Driver_Gear_SEG_DRIVE == LED_Driver_Gear_HIGH */
 669:.\Generated_Source\PSoC5/LED_Driver_Gear.c ****             #endif /* (LED_Driver_Gear_NUM_SEG > 16u) */
 670:.\Generated_Source\PSoC5/LED_Driver_Gear.c ****         }
 671:.\Generated_Source\PSoC5/LED_Driver_Gear.c ****     }
 672:.\Generated_Source\PSoC5/LED_Driver_Gear.c **** }
 673:.\Generated_Source\PSoC5/LED_Driver_Gear.c **** 
 674:.\Generated_Source\PSoC5/LED_Driver_Gear.c **** 
 675:.\Generated_Source\PSoC5/LED_Driver_Gear.c **** /*******************************************************************************
ARM GAS  C:\Users\charl\AppData\Local\Temp\ccxfbC9q.s 			page 23


 676:.\Generated_Source\PSoC5/LED_Driver_Gear.c **** * Function Name: LED_Driver_Gear_ToggleRC
 677:.\Generated_Source\PSoC5/LED_Driver_Gear.c **** ********************************************************************************
 678:.\Generated_Source\PSoC5/LED_Driver_Gear.c **** *
 679:.\Generated_Source\PSoC5/LED_Driver_Gear.c **** * Summary:
 680:.\Generated_Source\PSoC5/LED_Driver_Gear.c **** *  Toggles the bit in the display RAM corresponding to the LED in the designated
 681:.\Generated_Source\PSoC5/LED_Driver_Gear.c **** *  row and column.
 682:.\Generated_Source\PSoC5/LED_Driver_Gear.c **** *
 683:.\Generated_Source\PSoC5/LED_Driver_Gear.c **** * Parameters:
 684:.\Generated_Source\PSoC5/LED_Driver_Gear.c **** *  uint8 row: Row value 0 to 23.
 685:.\Generated_Source\PSoC5/LED_Driver_Gear.c **** *  uint8 col: Column between 0 and 7.
 686:.\Generated_Source\PSoC5/LED_Driver_Gear.c **** *
 687:.\Generated_Source\PSoC5/LED_Driver_Gear.c **** * Return:
 688:.\Generated_Source\PSoC5/LED_Driver_Gear.c **** *  None
 689:.\Generated_Source\PSoC5/LED_Driver_Gear.c **** *
 690:.\Generated_Source\PSoC5/LED_Driver_Gear.c **** * Side effects:
 691:.\Generated_Source\PSoC5/LED_Driver_Gear.c **** *  None
 692:.\Generated_Source\PSoC5/LED_Driver_Gear.c **** *
 693:.\Generated_Source\PSoC5/LED_Driver_Gear.c **** *******************************************************************************/
 694:.\Generated_Source\PSoC5/LED_Driver_Gear.c **** void LED_Driver_Gear_ToggleRC(uint8 row, uint8 column) 
 695:.\Generated_Source\PSoC5/LED_Driver_Gear.c **** {
 566              		.loc 1 695 0
 567              		.cfi_startproc
 568              		@ args = 0, pretend = 0, frame = 0
 569              		@ frame_needed = 0, uses_anonymous_args = 0
 570              		@ link register save eliminated.
 571              	.LVL69:
 696:.\Generated_Source\PSoC5/LED_Driver_Gear.c ****     uint8 rowSeg;
 697:.\Generated_Source\PSoC5/LED_Driver_Gear.c ****     
 698:.\Generated_Source\PSoC5/LED_Driver_Gear.c ****     if(column < LED_Driver_Gear_NUM_COM)
 572              		.loc 1 698 0
 573 0000 0B46     		mov	r3, r1
 574 0002 39B9     		cbnz	r1, .L50
 699:.\Generated_Source\PSoC5/LED_Driver_Gear.c ****     {
 700:.\Generated_Source\PSoC5/LED_Driver_Gear.c ****         if(row < 8u)
 575              		.loc 1 700 0
 576 0004 0728     		cmp	r0, #7
 577 0006 05D8     		bhi	.L50
 578              	.LVL70:
 701:.\Generated_Source\PSoC5/LED_Driver_Gear.c ****         {
 702:.\Generated_Source\PSoC5/LED_Driver_Gear.c ****             rowSeg = row;
 703:.\Generated_Source\PSoC5/LED_Driver_Gear.c ****             LED_Driver_Gear_segLBuffer[column] ^= ((uint8)((uint8)0x01u << rowSeg));
 579              		.loc 1 703 0
 580 0008 0122     		movs	r2, #1
 581 000a 8240     		lsls	r2, r2, r0
 582 000c 0248     		ldr	r0, .L52
 583              	.LVL71:
 584 000e 415C     		ldrb	r1, [r0, r1]	@ zero_extendqisi2
 585              	.LVL72:
 586 0010 4A40     		eors	r2, r2, r1
 587 0012 C254     		strb	r2, [r0, r3]
 588              	.LVL73:
 589              	.L50:
 590 0014 7047     		bx	lr
 591              	.L53:
 592 0016 00BF     		.align	2
 593              	.L52:
 594 0018 00000000 		.word	LED_Driver_Gear_segLBuffer
ARM GAS  C:\Users\charl\AppData\Local\Temp\ccxfbC9q.s 			page 24


 595              		.cfi_endproc
 596              	.LFE10:
 597              		.size	LED_Driver_Gear_ToggleRC, .-LED_Driver_Gear_ToggleRC
 598              		.section	.text.LED_Driver_Gear_GetRC,"ax",%progbits
 599              		.align	2
 600              		.global	LED_Driver_Gear_GetRC
 601              		.thumb
 602              		.thumb_func
 603              		.type	LED_Driver_Gear_GetRC, %function
 604              	LED_Driver_Gear_GetRC:
 605              	.LFB11:
 704:.\Generated_Source\PSoC5/LED_Driver_Gear.c ****         }    
 705:.\Generated_Source\PSoC5/LED_Driver_Gear.c ****         else if (row < 16u)
 706:.\Generated_Source\PSoC5/LED_Driver_Gear.c ****         {
 707:.\Generated_Source\PSoC5/LED_Driver_Gear.c ****             #if (LED_Driver_Gear_NUM_SEG > 8u)
 708:.\Generated_Source\PSoC5/LED_Driver_Gear.c ****                 rowSeg = row - 8u;
 709:.\Generated_Source\PSoC5/LED_Driver_Gear.c ****                 LED_Driver_Gear_segMBuffer[column] ^= ((uint8)((uint8)0x01u << rowSeg));
 710:.\Generated_Source\PSoC5/LED_Driver_Gear.c ****             #endif /* (LED_Driver_Gear_NUM_SEG > 8u) */
 711:.\Generated_Source\PSoC5/LED_Driver_Gear.c ****         } 
 712:.\Generated_Source\PSoC5/LED_Driver_Gear.c ****         else
 713:.\Generated_Source\PSoC5/LED_Driver_Gear.c ****         {
 714:.\Generated_Source\PSoC5/LED_Driver_Gear.c ****             #if (LED_Driver_Gear_NUM_SEG > 16u)
 715:.\Generated_Source\PSoC5/LED_Driver_Gear.c ****                 rowSeg = row - 16u;
 716:.\Generated_Source\PSoC5/LED_Driver_Gear.c ****                 LED_Driver_Gear_segHBuffer[column] ^= ((uint8)((uint8)0x01u << rowSeg));
 717:.\Generated_Source\PSoC5/LED_Driver_Gear.c ****             #endif /* (LED_Driver_Gear_NUM_SEG > 16u) */
 718:.\Generated_Source\PSoC5/LED_Driver_Gear.c ****         }
 719:.\Generated_Source\PSoC5/LED_Driver_Gear.c ****     }
 720:.\Generated_Source\PSoC5/LED_Driver_Gear.c **** }
 721:.\Generated_Source\PSoC5/LED_Driver_Gear.c **** 
 722:.\Generated_Source\PSoC5/LED_Driver_Gear.c **** 
 723:.\Generated_Source\PSoC5/LED_Driver_Gear.c **** /*******************************************************************************
 724:.\Generated_Source\PSoC5/LED_Driver_Gear.c **** * Function Name: LED_Driver_Gear_GetRC
 725:.\Generated_Source\PSoC5/LED_Driver_Gear.c **** ********************************************************************************
 726:.\Generated_Source\PSoC5/LED_Driver_Gear.c **** *
 727:.\Generated_Source\PSoC5/LED_Driver_Gear.c **** * Summary:
 728:.\Generated_Source\PSoC5/LED_Driver_Gear.c **** *  Returns the bit value in the display RAM corresponding to the LED in the
 729:.\Generated_Source\PSoC5/LED_Driver_Gear.c **** *  designated row and column.
 730:.\Generated_Source\PSoC5/LED_Driver_Gear.c **** *
 731:.\Generated_Source\PSoC5/LED_Driver_Gear.c **** * Parameters:
 732:.\Generated_Source\PSoC5/LED_Driver_Gear.c **** *  uint8 row: Row value 0 to 23.
 733:.\Generated_Source\PSoC5/LED_Driver_Gear.c **** *  uint8 col: Column between 0 and 7.
 734:.\Generated_Source\PSoC5/LED_Driver_Gear.c **** *
 735:.\Generated_Source\PSoC5/LED_Driver_Gear.c **** * Return:
 736:.\Generated_Source\PSoC5/LED_Driver_Gear.c **** *  uint8 - bit value of the display RAM at the corresponding row and column. 
 737:.\Generated_Source\PSoC5/LED_Driver_Gear.c **** *
 738:.\Generated_Source\PSoC5/LED_Driver_Gear.c **** * Side effects:
 739:.\Generated_Source\PSoC5/LED_Driver_Gear.c **** *  None
 740:.\Generated_Source\PSoC5/LED_Driver_Gear.c **** *
 741:.\Generated_Source\PSoC5/LED_Driver_Gear.c **** *******************************************************************************/
 742:.\Generated_Source\PSoC5/LED_Driver_Gear.c **** uint8 LED_Driver_Gear_GetRC(uint8 row, uint8 column) 
 743:.\Generated_Source\PSoC5/LED_Driver_Gear.c **** {
 606              		.loc 1 743 0
 607              		.cfi_startproc
 608              		@ args = 0, pretend = 0, frame = 0
 609              		@ frame_needed = 0, uses_anonymous_args = 0
 610              		@ link register save eliminated.
 611              	.LVL74:
ARM GAS  C:\Users\charl\AppData\Local\Temp\ccxfbC9q.s 			page 25


 744:.\Generated_Source\PSoC5/LED_Driver_Gear.c ****     uint8 valueRC = 0u;
 745:.\Generated_Source\PSoC5/LED_Driver_Gear.c ****     uint8 rowSeg;
 746:.\Generated_Source\PSoC5/LED_Driver_Gear.c ****     uint8 rowSegSelect = 0u;
 747:.\Generated_Source\PSoC5/LED_Driver_Gear.c ****     
 748:.\Generated_Source\PSoC5/LED_Driver_Gear.c ****     if(column < LED_Driver_Gear_NUM_COM)
 612              		.loc 1 748 0
 613 0000 59B9     		cbnz	r1, .L57
 749:.\Generated_Source\PSoC5/LED_Driver_Gear.c ****     {
 750:.\Generated_Source\PSoC5/LED_Driver_Gear.c ****         if(row < 8u)
 614              		.loc 1 750 0
 615 0002 0728     		cmp	r0, #7
 616 0004 05D8     		bhi	.L58
 617              	.LVL75:
 751:.\Generated_Source\PSoC5/LED_Driver_Gear.c ****         {
 752:.\Generated_Source\PSoC5/LED_Driver_Gear.c ****             rowSeg = row;
 753:.\Generated_Source\PSoC5/LED_Driver_Gear.c ****             rowSegSelect = (uint8)((uint8)LED_Driver_Gear_segLBuffer[column] >> rowSeg);
 618              		.loc 1 753 0
 619 0006 064A     		ldr	r2, .L59
 620 0008 535C     		ldrb	r3, [r2, r1]	@ zero_extendqisi2
 621 000a 43FA00F0 		asr	r0, r3, r0
 622              	.LVL76:
 623 000e C0B2     		uxtb	r0, r0
 624              	.LVL77:
 625 0010 00E0     		b	.L56
 626              	.LVL78:
 627              	.L58:
 746:.\Generated_Source\PSoC5/LED_Driver_Gear.c ****     
 628              		.loc 1 746 0
 629 0012 0020     		movs	r0, #0
 630              	.LVL79:
 631              	.L56:
 754:.\Generated_Source\PSoC5/LED_Driver_Gear.c ****         }    
 755:.\Generated_Source\PSoC5/LED_Driver_Gear.c ****         else if (row < 16u)
 756:.\Generated_Source\PSoC5/LED_Driver_Gear.c ****         {
 757:.\Generated_Source\PSoC5/LED_Driver_Gear.c ****             #if (LED_Driver_Gear_NUM_SEG > 8u) 
 758:.\Generated_Source\PSoC5/LED_Driver_Gear.c ****                 rowSeg = row - 8u;
 759:.\Generated_Source\PSoC5/LED_Driver_Gear.c ****                 rowSegSelect = (uint8)((uint8)LED_Driver_Gear_segMBuffer[column] >> rowSeg);
 760:.\Generated_Source\PSoC5/LED_Driver_Gear.c ****             #endif /* (LED_Driver_Gear_NUM_SEG > 8u) */
 761:.\Generated_Source\PSoC5/LED_Driver_Gear.c ****         }
 762:.\Generated_Source\PSoC5/LED_Driver_Gear.c ****         else
 763:.\Generated_Source\PSoC5/LED_Driver_Gear.c ****         {
 764:.\Generated_Source\PSoC5/LED_Driver_Gear.c ****             #if (LED_Driver_Gear_NUM_SEG > 16u)
 765:.\Generated_Source\PSoC5/LED_Driver_Gear.c ****                 rowSeg = row - 16u;
 766:.\Generated_Source\PSoC5/LED_Driver_Gear.c ****                 rowSegSelect = (uint8)((uint8)LED_Driver_Gear_segHBuffer[column] >> rowSeg);
 767:.\Generated_Source\PSoC5/LED_Driver_Gear.c ****             #endif /* (LED_Driver_Gear_NUM_SEG > 16u) */
 768:.\Generated_Source\PSoC5/LED_Driver_Gear.c ****         }
 769:.\Generated_Source\PSoC5/LED_Driver_Gear.c ****         
 770:.\Generated_Source\PSoC5/LED_Driver_Gear.c ****         #if(LED_Driver_Gear_SEG_DRIVE == LED_Driver_Gear_HIGH)
 771:.\Generated_Source\PSoC5/LED_Driver_Gear.c ****             valueRC = (uint8)((uint8)rowSegSelect & 0x01u);
 632              		.loc 1 771 0
 633 0014 00F00100 		and	r0, r0, #1
 634              	.LVL80:
 635 0018 7047     		bx	lr
 636              	.LVL81:
 637              	.L57:
 744:.\Generated_Source\PSoC5/LED_Driver_Gear.c ****     uint8 rowSeg;
 638              		.loc 1 744 0
ARM GAS  C:\Users\charl\AppData\Local\Temp\ccxfbC9q.s 			page 26


 639 001a 0020     		movs	r0, #0
 640              	.LVL82:
 772:.\Generated_Source\PSoC5/LED_Driver_Gear.c ****         #else
 773:.\Generated_Source\PSoC5/LED_Driver_Gear.c ****             valueRC = (uint8)((uint8)((uint8)~rowSegSelect) & 0x01u);
 774:.\Generated_Source\PSoC5/LED_Driver_Gear.c ****         #endif /* LED_Driver_Gear_SEG_DRIVE == LED_Driver_Gear_HIGH */
 775:.\Generated_Source\PSoC5/LED_Driver_Gear.c ****     }
 776:.\Generated_Source\PSoC5/LED_Driver_Gear.c ****     
 777:.\Generated_Source\PSoC5/LED_Driver_Gear.c ****     return(valueRC);
 778:.\Generated_Source\PSoC5/LED_Driver_Gear.c **** }
 641              		.loc 1 778 0
 642 001c 7047     		bx	lr
 643              	.L60:
 644 001e 00BF     		.align	2
 645              	.L59:
 646 0020 00000000 		.word	LED_Driver_Gear_segLBuffer
 647              		.cfi_endproc
 648              	.LFE11:
 649              		.size	LED_Driver_Gear_GetRC, .-LED_Driver_Gear_GetRC
 650              		.section	.text.LED_Driver_Gear_ClearDisplay,"ax",%progbits
 651              		.align	2
 652              		.global	LED_Driver_Gear_ClearDisplay
 653              		.thumb
 654              		.thumb_func
 655              		.type	LED_Driver_Gear_ClearDisplay, %function
 656              	LED_Driver_Gear_ClearDisplay:
 657              	.LFB12:
 779:.\Generated_Source\PSoC5/LED_Driver_Gear.c **** 
 780:.\Generated_Source\PSoC5/LED_Driver_Gear.c **** 
 781:.\Generated_Source\PSoC5/LED_Driver_Gear.c **** /*******************************************************************************
 782:.\Generated_Source\PSoC5/LED_Driver_Gear.c **** * Function Name: LED_Driver_Gear_ClearDisplay
 783:.\Generated_Source\PSoC5/LED_Driver_Gear.c **** ********************************************************************************
 784:.\Generated_Source\PSoC5/LED_Driver_Gear.c **** *
 785:.\Generated_Source\PSoC5/LED_Driver_Gear.c **** * Summary:
 786:.\Generated_Source\PSoC5/LED_Driver_Gear.c **** *  Clears the display (disables all the LEDs) for the associated position by
 787:.\Generated_Source\PSoC5/LED_Driver_Gear.c **** *  setting the display RAM to zero.
 788:.\Generated_Source\PSoC5/LED_Driver_Gear.c **** *
 789:.\Generated_Source\PSoC5/LED_Driver_Gear.c **** * Parameters:
 790:.\Generated_Source\PSoC5/LED_Driver_Gear.c **** *  uint8 position: The digit position to clear.
 791:.\Generated_Source\PSoC5/LED_Driver_Gear.c **** *
 792:.\Generated_Source\PSoC5/LED_Driver_Gear.c **** * Return:
 793:.\Generated_Source\PSoC5/LED_Driver_Gear.c **** *  None
 794:.\Generated_Source\PSoC5/LED_Driver_Gear.c **** *
 795:.\Generated_Source\PSoC5/LED_Driver_Gear.c **** * Side effects:
 796:.\Generated_Source\PSoC5/LED_Driver_Gear.c **** *  None
 797:.\Generated_Source\PSoC5/LED_Driver_Gear.c **** *
 798:.\Generated_Source\PSoC5/LED_Driver_Gear.c **** *******************************************************************************/
 799:.\Generated_Source\PSoC5/LED_Driver_Gear.c **** void LED_Driver_Gear_ClearDisplay(uint8 position) 
 800:.\Generated_Source\PSoC5/LED_Driver_Gear.c **** {  
 658              		.loc 1 800 0
 659              		.cfi_startproc
 660              		@ args = 0, pretend = 0, frame = 0
 661              		@ frame_needed = 0, uses_anonymous_args = 0
 662              		@ link register save eliminated.
 663              	.LVL83:
 801:.\Generated_Source\PSoC5/LED_Driver_Gear.c ****     uint8 relPosition;
 802:.\Generated_Source\PSoC5/LED_Driver_Gear.c ****     
 803:.\Generated_Source\PSoC5/LED_Driver_Gear.c ****     if(position < LED_Driver_Gear_NUM_COM)
ARM GAS  C:\Users\charl\AppData\Local\Temp\ccxfbC9q.s 			page 27


 664              		.loc 1 803 0
 665 0000 10B9     		cbnz	r0, .L61
 666              	.LVL84:
 804:.\Generated_Source\PSoC5/LED_Driver_Gear.c ****     {
 805:.\Generated_Source\PSoC5/LED_Driver_Gear.c ****         relPosition = position;
 806:.\Generated_Source\PSoC5/LED_Driver_Gear.c ****         LED_Driver_Gear_segLBuffer[relPosition] = LED_Driver_Gear_CLEAR;
 667              		.loc 1 806 0
 668 0002 0021     		movs	r1, #0
 669 0004 014A     		ldr	r2, .L63
 670 0006 1154     		strb	r1, [r2, r0]
 671              	.LVL85:
 672              	.L61:
 673 0008 7047     		bx	lr
 674              	.L64:
 675 000a 00BF     		.align	2
 676              	.L63:
 677 000c 00000000 		.word	LED_Driver_Gear_segLBuffer
 678              		.cfi_endproc
 679              	.LFE12:
 680              		.size	LED_Driver_Gear_ClearDisplay, .-LED_Driver_Gear_ClearDisplay
 681              		.section	.text.LED_Driver_Gear_ClearDisplayAll,"ax",%progbits
 682              		.align	2
 683              		.global	LED_Driver_Gear_ClearDisplayAll
 684              		.thumb
 685              		.thumb_func
 686              		.type	LED_Driver_Gear_ClearDisplayAll, %function
 687              	LED_Driver_Gear_ClearDisplayAll:
 688              	.LFB13:
 807:.\Generated_Source\PSoC5/LED_Driver_Gear.c ****     }    
 808:.\Generated_Source\PSoC5/LED_Driver_Gear.c ****     else if (position < LED_Driver_Gear_TWO_NUM_COM)
 809:.\Generated_Source\PSoC5/LED_Driver_Gear.c ****     {
 810:.\Generated_Source\PSoC5/LED_Driver_Gear.c ****         #if (LED_Driver_Gear_NUM_SEG > 8u)
 811:.\Generated_Source\PSoC5/LED_Driver_Gear.c ****             relPosition = position - LED_Driver_Gear_NUM_COM;
 812:.\Generated_Source\PSoC5/LED_Driver_Gear.c ****             LED_Driver_Gear_segMBuffer[relPosition] = LED_Driver_Gear_CLEAR;
 813:.\Generated_Source\PSoC5/LED_Driver_Gear.c ****         #endif /* (LED_Driver_Gear_NUM_SEG > 8u) */
 814:.\Generated_Source\PSoC5/LED_Driver_Gear.c ****     }
 815:.\Generated_Source\PSoC5/LED_Driver_Gear.c ****     else
 816:.\Generated_Source\PSoC5/LED_Driver_Gear.c ****     {
 817:.\Generated_Source\PSoC5/LED_Driver_Gear.c ****         #if (LED_Driver_Gear_NUM_SEG > 16u)
 818:.\Generated_Source\PSoC5/LED_Driver_Gear.c ****             relPosition = position - LED_Driver_Gear_TWO_NUM_COM;
 819:.\Generated_Source\PSoC5/LED_Driver_Gear.c ****             if(relPosition < LED_Driver_Gear_NUM_COM)
 820:.\Generated_Source\PSoC5/LED_Driver_Gear.c ****             {
 821:.\Generated_Source\PSoC5/LED_Driver_Gear.c ****                 LED_Driver_Gear_segHBuffer[relPosition] = LED_Driver_Gear_CLEAR;
 822:.\Generated_Source\PSoC5/LED_Driver_Gear.c ****             }
 823:.\Generated_Source\PSoC5/LED_Driver_Gear.c ****         #endif /* (LED_Driver_Gear_NUM_SEG > 16u) */
 824:.\Generated_Source\PSoC5/LED_Driver_Gear.c ****     }
 825:.\Generated_Source\PSoC5/LED_Driver_Gear.c **** }
 826:.\Generated_Source\PSoC5/LED_Driver_Gear.c **** 
 827:.\Generated_Source\PSoC5/LED_Driver_Gear.c **** 
 828:.\Generated_Source\PSoC5/LED_Driver_Gear.c **** /*******************************************************************************
 829:.\Generated_Source\PSoC5/LED_Driver_Gear.c **** * Function Name: LED_Driver_Gear_ClearDisplayAll
 830:.\Generated_Source\PSoC5/LED_Driver_Gear.c **** ********************************************************************************
 831:.\Generated_Source\PSoC5/LED_Driver_Gear.c **** *
 832:.\Generated_Source\PSoC5/LED_Driver_Gear.c **** * Summary:
 833:.\Generated_Source\PSoC5/LED_Driver_Gear.c **** *  Clears the entire display by writing zeros to all the display RAM locations.
 834:.\Generated_Source\PSoC5/LED_Driver_Gear.c **** *
 835:.\Generated_Source\PSoC5/LED_Driver_Gear.c **** * Parameters:
ARM GAS  C:\Users\charl\AppData\Local\Temp\ccxfbC9q.s 			page 28


 836:.\Generated_Source\PSoC5/LED_Driver_Gear.c **** *  None
 837:.\Generated_Source\PSoC5/LED_Driver_Gear.c **** *
 838:.\Generated_Source\PSoC5/LED_Driver_Gear.c **** * Return:
 839:.\Generated_Source\PSoC5/LED_Driver_Gear.c **** *  None
 840:.\Generated_Source\PSoC5/LED_Driver_Gear.c **** *
 841:.\Generated_Source\PSoC5/LED_Driver_Gear.c **** * Side effects:
 842:.\Generated_Source\PSoC5/LED_Driver_Gear.c **** *  None
 843:.\Generated_Source\PSoC5/LED_Driver_Gear.c **** *
 844:.\Generated_Source\PSoC5/LED_Driver_Gear.c **** *******************************************************************************/
 845:.\Generated_Source\PSoC5/LED_Driver_Gear.c **** void LED_Driver_Gear_ClearDisplayAll(void) 
 846:.\Generated_Source\PSoC5/LED_Driver_Gear.c **** {
 689              		.loc 1 846 0
 690              		.cfi_startproc
 691              		@ args = 0, pretend = 0, frame = 0
 692              		@ frame_needed = 0, uses_anonymous_args = 0
 693              		@ link register save eliminated.
 694              	.LVL86:
 847:.\Generated_Source\PSoC5/LED_Driver_Gear.c ****     uint8 position;
 848:.\Generated_Source\PSoC5/LED_Driver_Gear.c ****     
 849:.\Generated_Source\PSoC5/LED_Driver_Gear.c ****     for(position = 0u; position < LED_Driver_Gear_NUM_COM; position++)
 695              		.loc 1 849 0
 696 0000 0023     		movs	r3, #0
 697 0002 04E0     		b	.L66
 698              	.LVL87:
 699              	.L67:
 850:.\Generated_Source\PSoC5/LED_Driver_Gear.c ****     {
 851:.\Generated_Source\PSoC5/LED_Driver_Gear.c ****         LED_Driver_Gear_segLBuffer[position] = LED_Driver_Gear_CLEAR; 
 700              		.loc 1 851 0 discriminator 3
 701 0004 0021     		movs	r1, #0
 702 0006 034A     		ldr	r2, .L68
 703 0008 D154     		strb	r1, [r2, r3]
 849:.\Generated_Source\PSoC5/LED_Driver_Gear.c ****     {
 704              		.loc 1 849 0 discriminator 3
 705 000a 0133     		adds	r3, r3, #1
 706              	.LVL88:
 707 000c DBB2     		uxtb	r3, r3
 708              	.LVL89:
 709              	.L66:
 849:.\Generated_Source\PSoC5/LED_Driver_Gear.c ****     {
 710              		.loc 1 849 0 is_stmt 0 discriminator 1
 711 000e 002B     		cmp	r3, #0
 712 0010 F8D0     		beq	.L67
 852:.\Generated_Source\PSoC5/LED_Driver_Gear.c ****         
 853:.\Generated_Source\PSoC5/LED_Driver_Gear.c ****         #if (LED_Driver_Gear_NUM_SEG > 8u) 
 854:.\Generated_Source\PSoC5/LED_Driver_Gear.c ****             LED_Driver_Gear_segMBuffer[position] = LED_Driver_Gear_CLEAR;
 855:.\Generated_Source\PSoC5/LED_Driver_Gear.c ****         #endif /* (LED_Driver_Gear_NUM_SEG > 8u) */
 856:.\Generated_Source\PSoC5/LED_Driver_Gear.c ****         
 857:.\Generated_Source\PSoC5/LED_Driver_Gear.c ****         #if (LED_Driver_Gear_NUM_SEG > 16u)
 858:.\Generated_Source\PSoC5/LED_Driver_Gear.c ****             LED_Driver_Gear_segHBuffer[position] = LED_Driver_Gear_CLEAR;
 859:.\Generated_Source\PSoC5/LED_Driver_Gear.c ****         #endif /* (LED_Driver_Gear_NUM_SEG > 16u) */
 860:.\Generated_Source\PSoC5/LED_Driver_Gear.c ****     }
 861:.\Generated_Source\PSoC5/LED_Driver_Gear.c **** }
 713              		.loc 1 861 0 is_stmt 1
 714 0012 7047     		bx	lr
 715              	.L69:
 716              		.align	2
 717              	.L68:
ARM GAS  C:\Users\charl\AppData\Local\Temp\ccxfbC9q.s 			page 29


 718 0014 00000000 		.word	LED_Driver_Gear_segLBuffer
 719              		.cfi_endproc
 720              	.LFE13:
 721              		.size	LED_Driver_Gear_ClearDisplayAll, .-LED_Driver_Gear_ClearDisplayAll
 722              		.section	.text.LED_Driver_Gear_Init,"ax",%progbits
 723              		.align	2
 724              		.global	LED_Driver_Gear_Init
 725              		.thumb
 726              		.thumb_func
 727              		.type	LED_Driver_Gear_Init, %function
 728              	LED_Driver_Gear_Init:
 729              	.LFB3:
 363:.\Generated_Source\PSoC5/LED_Driver_Gear.c ****     static uint8 LED_Driver_Gear_dmaInitDone = 0u;
 730              		.loc 1 363 0
 731              		.cfi_startproc
 732              		@ args = 0, pretend = 0, frame = 0
 733              		@ frame_needed = 0, uses_anonymous_args = 0
 734 0000 08B5     		push	{r3, lr}
 735              		.cfi_def_cfa_offset 8
 736              		.cfi_offset 3, -8
 737              		.cfi_offset 14, -4
 370:.\Generated_Source\PSoC5/LED_Driver_Gear.c ****     
 738              		.loc 1 370 0
 739 0002 FFF7FEFF 		bl	LED_Driver_Gear_ClearDisplayAll
 740              	.LVL90:
 373:.\Generated_Source\PSoC5/LED_Driver_Gear.c ****     {
 741              		.loc 1 373 0
 742 0006 094B     		ldr	r3, .L75
 743 0008 9B7B     		ldrb	r3, [r3, #14]	@ zero_extendqisi2
 744 000a 23B9     		cbnz	r3, .L71
 375:.\Generated_Source\PSoC5/LED_Driver_Gear.c ****         LED_Driver_Gear_dmaInitDone = 1u;
 745              		.loc 1 375 0
 746 000c FFF7FEFF 		bl	LED_Driver_Gear_DmaInit
 747              	.LVL91:
 376:.\Generated_Source\PSoC5/LED_Driver_Gear.c ****     }
 748              		.loc 1 376 0
 749 0010 0122     		movs	r2, #1
 750 0012 064B     		ldr	r3, .L75
 751 0014 9A73     		strb	r2, [r3, #14]
 752              	.L71:
 363:.\Generated_Source\PSoC5/LED_Driver_Gear.c ****     static uint8 LED_Driver_Gear_dmaInitDone = 0u;
 753              		.loc 1 363 0 discriminator 1
 754 0016 0023     		movs	r3, #0
 755 0018 05E0     		b	.L72
 756              	.LVL92:
 757              	.L73:
 383:.\Generated_Source\PSoC5/LED_Driver_Gear.c ****         }
 758              		.loc 1 383 0 discriminator 3
 759 001a 044A     		ldr	r2, .L75
 760 001c 1A44     		add	r2, r2, r3
 761 001e FF21     		movs	r1, #255
 762 0020 1173     		strb	r1, [r2, #12]
 381:.\Generated_Source\PSoC5/LED_Driver_Gear.c ****         {
 763              		.loc 1 381 0 discriminator 3
 764 0022 0133     		adds	r3, r3, #1
 765              	.LVL93:
 766 0024 DBB2     		uxtb	r3, r3
ARM GAS  C:\Users\charl\AppData\Local\Temp\ccxfbC9q.s 			page 30


 767              	.LVL94:
 768              	.L72:
 381:.\Generated_Source\PSoC5/LED_Driver_Gear.c ****         {
 769              		.loc 1 381 0 is_stmt 0 discriminator 1
 770 0026 002B     		cmp	r3, #0
 771 0028 F7D0     		beq	.L73
 386:.\Generated_Source\PSoC5/LED_Driver_Gear.c **** 
 772              		.loc 1 386 0 is_stmt 1
 773 002a 08BD     		pop	{r3, pc}
 774              	.LVL95:
 775              	.L76:
 776              		.align	2
 777              	.L75:
 778 002c 00000000 		.word	.LANCHOR0
 779              		.cfi_endproc
 780              	.LFE3:
 781              		.size	LED_Driver_Gear_Init, .-LED_Driver_Gear_Init
 782              		.section	.text.LED_Driver_Gear_Start,"ax",%progbits
 783              		.align	2
 784              		.global	LED_Driver_Gear_Start
 785              		.thumb
 786              		.thumb_func
 787              		.type	LED_Driver_Gear_Start, %function
 788              	LED_Driver_Gear_Start:
 789              	.LFB5:
 445:.\Generated_Source\PSoC5/LED_Driver_Gear.c ****     if(0u == LED_Driver_Gear_initVar)
 790              		.loc 1 445 0
 791              		.cfi_startproc
 792              		@ args = 0, pretend = 0, frame = 0
 793              		@ frame_needed = 0, uses_anonymous_args = 0
 794 0000 08B5     		push	{r3, lr}
 795              		.cfi_def_cfa_offset 8
 796              		.cfi_offset 3, -8
 797              		.cfi_offset 14, -4
 446:.\Generated_Source\PSoC5/LED_Driver_Gear.c ****     {
 798              		.loc 1 446 0
 799 0002 054B     		ldr	r3, .L80
 800 0004 DB7B     		ldrb	r3, [r3, #15]	@ zero_extendqisi2
 801 0006 23B9     		cbnz	r3, .L78
 448:.\Generated_Source\PSoC5/LED_Driver_Gear.c ****         LED_Driver_Gear_initVar = 1u;
 802              		.loc 1 448 0
 803 0008 FFF7FEFF 		bl	LED_Driver_Gear_Init
 804              	.LVL96:
 449:.\Generated_Source\PSoC5/LED_Driver_Gear.c ****     }
 805              		.loc 1 449 0
 806 000c 0122     		movs	r2, #1
 807 000e 024B     		ldr	r3, .L80
 808 0010 DA73     		strb	r2, [r3, #15]
 809              	.L78:
 452:.\Generated_Source\PSoC5/LED_Driver_Gear.c **** }
 810              		.loc 1 452 0
 811 0012 FFF7FEFF 		bl	LED_Driver_Gear_Enable
 812              	.LVL97:
 813 0016 08BD     		pop	{r3, pc}
 814              	.L81:
 815              		.align	2
 816              	.L80:
ARM GAS  C:\Users\charl\AppData\Local\Temp\ccxfbC9q.s 			page 31


 817 0018 00000000 		.word	.LANCHOR0
 818              		.cfi_endproc
 819              	.LFE5:
 820              		.size	LED_Driver_Gear_Start, .-LED_Driver_Gear_Start
 821              		.section	.text.LED_Driver_Gear_Stop,"ax",%progbits
 822              		.align	2
 823              		.global	LED_Driver_Gear_Stop
 824              		.thumb
 825              		.thumb_func
 826              		.type	LED_Driver_Gear_Stop, %function
 827              	LED_Driver_Gear_Stop:
 828              	.LFB6:
 475:.\Generated_Source\PSoC5/LED_Driver_Gear.c ****     #if (LED_Driver_Gear_BRIGHTNESS_EN == LED_Driver_Gear_ENABLED)
 829              		.loc 1 475 0
 830              		.cfi_startproc
 831              		@ args = 0, pretend = 0, frame = 0
 832              		@ frame_needed = 0, uses_anonymous_args = 0
 833 0000 10B5     		push	{r4, lr}
 834              		.cfi_def_cfa_offset 8
 835              		.cfi_offset 4, -8
 836              		.cfi_offset 14, -4
 478:.\Generated_Source\PSoC5/LED_Driver_Gear.c ****     #endif /* (LED_Driver_Gear_BRIGHTNESS_EN == LED_Driver_Gear_ENABLED) */
 837              		.loc 1 478 0
 838 0002 0024     		movs	r4, #0
 839 0004 044B     		ldr	r3, .L84
 840 0006 1C70     		strb	r4, [r3]
 481:.\Generated_Source\PSoC5/LED_Driver_Gear.c ****     LED_Driver_Gear_ClearDisplayAll();
 841              		.loc 1 481 0
 842 0008 FFF7FEFF 		bl	LED_Driver_Gear_DmaDisable
 843              	.LVL98:
 482:.\Generated_Source\PSoC5/LED_Driver_Gear.c ****     
 844              		.loc 1 482 0
 845 000c FFF7FEFF 		bl	LED_Driver_Gear_ClearDisplayAll
 846              	.LVL99:
 484:.\Generated_Source\PSoC5/LED_Driver_Gear.c **** }
 847              		.loc 1 484 0
 848 0010 024B     		ldr	r3, .L84+4
 849 0012 5C73     		strb	r4, [r3, #13]
 850 0014 10BD     		pop	{r4, pc}
 851              	.L85:
 852 0016 00BF     		.align	2
 853              	.L84:
 854 0018 74650040 		.word	1073767796
 855 001c 00000000 		.word	.LANCHOR0
 856              		.cfi_endproc
 857              	.LFE6:
 858              		.size	LED_Driver_Gear_Stop, .-LED_Driver_Gear_Stop
 859              		.section	.text.LED_Driver_Gear_PutDecimalPoint,"ax",%progbits
 860              		.align	2
 861              		.global	LED_Driver_Gear_PutDecimalPoint
 862              		.thumb
 863              		.thumb_func
 864              		.type	LED_Driver_Gear_PutDecimalPoint, %function
 865              	LED_Driver_Gear_PutDecimalPoint:
 866              	.LFB32:
 862:.\Generated_Source\PSoC5/LED_Driver_Gear.c **** 
 863:.\Generated_Source\PSoC5/LED_Driver_Gear.c **** 
ARM GAS  C:\Users\charl\AppData\Local\Temp\ccxfbC9q.s 			page 32


 864:.\Generated_Source\PSoC5/LED_Driver_Gear.c **** /*******************************************************************************
 865:.\Generated_Source\PSoC5/LED_Driver_Gear.c **** * Function Name: LED_Driver_Gear_Write7SegNumberDec
 866:.\Generated_Source\PSoC5/LED_Driver_Gear.c **** ********************************************************************************
 867:.\Generated_Source\PSoC5/LED_Driver_Gear.c **** *
 868:.\Generated_Source\PSoC5/LED_Driver_Gear.c **** * Summary:
 869:.\Generated_Source\PSoC5/LED_Driver_Gear.c **** *  Displays a signed integer up to 8 characters long, starting at 'position' 
 870:.\Generated_Source\PSoC5/LED_Driver_Gear.c **** *  and extending for 'digits' characters. The negative sign will consume one 
 871:.\Generated_Source\PSoC5/LED_Driver_Gear.c **** *  digit if it is required. If you do not use the correct number of digits for
 872:.\Generated_Source\PSoC5/LED_Driver_Gear.c **** *  your number, the least significant digits will be displayed. For example, 
 873:.\Generated_Source\PSoC5/LED_Driver_Gear.c **** *  if value is -1234, display is 0 and digits is 4, the result will be: -234.
 874:.\Generated_Source\PSoC5/LED_Driver_Gear.c **** *
 875:.\Generated_Source\PSoC5/LED_Driver_Gear.c **** * Parameters:
 876:.\Generated_Source\PSoC5/LED_Driver_Gear.c **** *  int32 number: a signed integer number to display. It is the responsibility 
 877:.\Generated_Source\PSoC5/LED_Driver_Gear.c **** *                of the user to ensure that the display has enough digits to 
 878:.\Generated_Source\PSoC5/LED_Driver_Gear.c **** *                accurately represent the number passed to this function. If 
 879:.\Generated_Source\PSoC5/LED_Driver_Gear.c **** *                not, the least significant digits will be displayed. Also note
 880:.\Generated_Source\PSoC5/LED_Driver_Gear.c **** *                that a negative number will require 1 more digit than the
 881:.\Generated_Source\PSoC5/LED_Driver_Gear.c **** *                equivalent positive number to display the negative sign.
 882:.\Generated_Source\PSoC5/LED_Driver_Gear.c **** *  uint8 position: Digit position of the Display/Common RAM to start.
 883:.\Generated_Source\PSoC5/LED_Driver_Gear.c **** *  uint8 digits: The number of digits you wish to use to display the value 
 884:.\Generated_Source\PSoC5/LED_Driver_Gear.c **** *                passed into the function. The negative sign will consume one 
 885:.\Generated_Source\PSoC5/LED_Driver_Gear.c **** *                digit if it is required.
 886:.\Generated_Source\PSoC5/LED_Driver_Gear.c **** *  uint8 alignment: How to align the provided number in the allocated digits.
 887:.\Generated_Source\PSoC5/LED_Driver_Gear.c **** *       RIGHT_ALIGN - Least significant digit occupies the rightmost digit
 888:.\Generated_Source\PSoC5/LED_Driver_Gear.c **** *                     (position + digits). Unused digits are turned off unless
 889:.\Generated_Source\PSoC5/LED_Driver_Gear.c **** *                     ZERO_PAD enabled.
 890:.\Generated_Source\PSoC5/LED_Driver_Gear.c **** *       LEFT_ALIGN - Most significant digit (or negative sign) occupies the
 891:.\Generated_Source\PSoC5/LED_Driver_Gear.c **** *                    digit specified by position. Unused digits are turned off.
 892:.\Generated_Source\PSoC5/LED_Driver_Gear.c **** *       ZERO_PAD - Unused digits to the left are padded with leading zeros.
 893:.\Generated_Source\PSoC5/LED_Driver_Gear.c **** *
 894:.\Generated_Source\PSoC5/LED_Driver_Gear.c **** * Return:
 895:.\Generated_Source\PSoC5/LED_Driver_Gear.c **** *  None
 896:.\Generated_Source\PSoC5/LED_Driver_Gear.c **** *
 897:.\Generated_Source\PSoC5/LED_Driver_Gear.c **** * Side effects:
 898:.\Generated_Source\PSoC5/LED_Driver_Gear.c **** *  None
 899:.\Generated_Source\PSoC5/LED_Driver_Gear.c **** *
 900:.\Generated_Source\PSoC5/LED_Driver_Gear.c **** *******************************************************************************/
 901:.\Generated_Source\PSoC5/LED_Driver_Gear.c **** void LED_Driver_Gear_Write7SegNumberDec(int32 number, uint8 position, uint8 digits, uint8 alignment
 902:.\Generated_Source\PSoC5/LED_Driver_Gear.c **** 
 903:.\Generated_Source\PSoC5/LED_Driver_Gear.c **** {
 904:.\Generated_Source\PSoC5/LED_Driver_Gear.c ****     uint8 i;
 905:.\Generated_Source\PSoC5/LED_Driver_Gear.c ****     uint8 relPosition;
 906:.\Generated_Source\PSoC5/LED_Driver_Gear.c ****     uint8 choiceReg;
 907:.\Generated_Source\PSoC5/LED_Driver_Gear.c ****     uint8 numberSign;
 908:.\Generated_Source\PSoC5/LED_Driver_Gear.c ****     uint8 selectVal;
 909:.\Generated_Source\PSoC5/LED_Driver_Gear.c ****     uint8 zeroCount = 0u;
 910:.\Generated_Source\PSoC5/LED_Driver_Gear.c ****     uint8 bufArray[8u] = {0u};
 911:.\Generated_Source\PSoC5/LED_Driver_Gear.c ****     uint32 numberVal;
 912:.\Generated_Source\PSoC5/LED_Driver_Gear.c ****         
 913:.\Generated_Source\PSoC5/LED_Driver_Gear.c ****     /* Choose to use either the low, mid or high control registers */
 914:.\Generated_Source\PSoC5/LED_Driver_Gear.c ****     if(position < LED_Driver_Gear_NUM_COM)
 915:.\Generated_Source\PSoC5/LED_Driver_Gear.c ****     {
 916:.\Generated_Source\PSoC5/LED_Driver_Gear.c ****         choiceReg = LED_Driver_Gear_SEG_REG_LOW;
 917:.\Generated_Source\PSoC5/LED_Driver_Gear.c ****         relPosition = position;
 918:.\Generated_Source\PSoC5/LED_Driver_Gear.c ****     }
 919:.\Generated_Source\PSoC5/LED_Driver_Gear.c ****     else if (position < LED_Driver_Gear_TWO_NUM_COM)
 920:.\Generated_Source\PSoC5/LED_Driver_Gear.c ****     {
ARM GAS  C:\Users\charl\AppData\Local\Temp\ccxfbC9q.s 			page 33


 921:.\Generated_Source\PSoC5/LED_Driver_Gear.c ****         choiceReg = LED_Driver_Gear_SEG_REG_MID;
 922:.\Generated_Source\PSoC5/LED_Driver_Gear.c ****         relPosition = position - LED_Driver_Gear_NUM_COM;
 923:.\Generated_Source\PSoC5/LED_Driver_Gear.c ****     }
 924:.\Generated_Source\PSoC5/LED_Driver_Gear.c ****     else
 925:.\Generated_Source\PSoC5/LED_Driver_Gear.c ****     {
 926:.\Generated_Source\PSoC5/LED_Driver_Gear.c ****         choiceReg = LED_Driver_Gear_SEG_REG_HIGH;
 927:.\Generated_Source\PSoC5/LED_Driver_Gear.c ****         relPosition = position - LED_Driver_Gear_TWO_NUM_COM;
 928:.\Generated_Source\PSoC5/LED_Driver_Gear.c ****     }
 929:.\Generated_Source\PSoC5/LED_Driver_Gear.c ****     
 930:.\Generated_Source\PSoC5/LED_Driver_Gear.c ****     /* Routine to extract the sign and to convert to unsigned */
 931:.\Generated_Source\PSoC5/LED_Driver_Gear.c ****     if(number >= LED_Driver_Gear_ZERO_NEG)
 932:.\Generated_Source\PSoC5/LED_Driver_Gear.c ****     {
 933:.\Generated_Source\PSoC5/LED_Driver_Gear.c ****         numberVal = (uint32)number;
 934:.\Generated_Source\PSoC5/LED_Driver_Gear.c ****         numberSign = LED_Driver_Gear_UNSIGNED;
 935:.\Generated_Source\PSoC5/LED_Driver_Gear.c ****     }
 936:.\Generated_Source\PSoC5/LED_Driver_Gear.c ****     else
 937:.\Generated_Source\PSoC5/LED_Driver_Gear.c ****     {
 938:.\Generated_Source\PSoC5/LED_Driver_Gear.c ****         numberVal = (uint32)(-number);
 939:.\Generated_Source\PSoC5/LED_Driver_Gear.c ****         numberSign = LED_Driver_Gear_SIGNED;
 940:.\Generated_Source\PSoC5/LED_Driver_Gear.c ****     }
 941:.\Generated_Source\PSoC5/LED_Driver_Gear.c ****     
 942:.\Generated_Source\PSoC5/LED_Driver_Gear.c ****     /* Fill up the temporary array */
 943:.\Generated_Source\PSoC5/LED_Driver_Gear.c ****     for(i = digits; i > 0u; i--)
 944:.\Generated_Source\PSoC5/LED_Driver_Gear.c ****     {
 945:.\Generated_Source\PSoC5/LED_Driver_Gear.c ****         selectVal = (uint8)(numberVal % 10u);
 946:.\Generated_Source\PSoC5/LED_Driver_Gear.c ****         bufArray[i-1u] = LED_Driver_Gear_EncodeNumber7Seg(selectVal);
 947:.\Generated_Source\PSoC5/LED_Driver_Gear.c ****         numberVal = numberVal / 10u;
 948:.\Generated_Source\PSoC5/LED_Driver_Gear.c ****     }
 949:.\Generated_Source\PSoC5/LED_Driver_Gear.c ****     
 950:.\Generated_Source\PSoC5/LED_Driver_Gear.c ****     /* Clean up the array and place sign if needed */
 951:.\Generated_Source\PSoC5/LED_Driver_Gear.c ****     if(alignment == LED_Driver_Gear_ZERO_PAD)
 952:.\Generated_Source\PSoC5/LED_Driver_Gear.c ****     {
 953:.\Generated_Source\PSoC5/LED_Driver_Gear.c ****         if(numberSign == LED_Driver_Gear_SIGNED)
 954:.\Generated_Source\PSoC5/LED_Driver_Gear.c ****         {
 955:.\Generated_Source\PSoC5/LED_Driver_Gear.c ****             /* Place sign on the MSB */
 956:.\Generated_Source\PSoC5/LED_Driver_Gear.c ****             bufArray[0u] = LED_Driver_Gear_EncodeChar7Seg('-');
 957:.\Generated_Source\PSoC5/LED_Driver_Gear.c ****         }
 958:.\Generated_Source\PSoC5/LED_Driver_Gear.c ****     }
 959:.\Generated_Source\PSoC5/LED_Driver_Gear.c ****     else
 960:.\Generated_Source\PSoC5/LED_Driver_Gear.c ****     {
 961:.\Generated_Source\PSoC5/LED_Driver_Gear.c ****         for(i = 0u; i < digits; i++)
 962:.\Generated_Source\PSoC5/LED_Driver_Gear.c ****         {
 963:.\Generated_Source\PSoC5/LED_Driver_Gear.c ****             if (bufArray[i] != LED_Driver_Gear_ZERO_7CHAR)
 964:.\Generated_Source\PSoC5/LED_Driver_Gear.c ****             {
 965:.\Generated_Source\PSoC5/LED_Driver_Gear.c ****                 if(numberSign == LED_Driver_Gear_SIGNED)
 966:.\Generated_Source\PSoC5/LED_Driver_Gear.c ****                 {
 967:.\Generated_Source\PSoC5/LED_Driver_Gear.c ****                     if(i == 0u)
 968:.\Generated_Source\PSoC5/LED_Driver_Gear.c ****                     {
 969:.\Generated_Source\PSoC5/LED_Driver_Gear.c ****                         /* Place sign on the MSB */
 970:.\Generated_Source\PSoC5/LED_Driver_Gear.c ****                         bufArray[i] = LED_Driver_Gear_EncodeChar7Seg('-');
 971:.\Generated_Source\PSoC5/LED_Driver_Gear.c ****                     }
 972:.\Generated_Source\PSoC5/LED_Driver_Gear.c ****                     else
 973:.\Generated_Source\PSoC5/LED_Driver_Gear.c ****                     {
 974:.\Generated_Source\PSoC5/LED_Driver_Gear.c ****                         /* Place sign before MSB */
 975:.\Generated_Source\PSoC5/LED_Driver_Gear.c ****                         bufArray[i-1u] = LED_Driver_Gear_EncodeChar7Seg('-');
 976:.\Generated_Source\PSoC5/LED_Driver_Gear.c ****                     }
 977:.\Generated_Source\PSoC5/LED_Driver_Gear.c ****                 }
ARM GAS  C:\Users\charl\AppData\Local\Temp\ccxfbC9q.s 			page 34


 978:.\Generated_Source\PSoC5/LED_Driver_Gear.c ****                 /* Exit when encountering non-zero number */
 979:.\Generated_Source\PSoC5/LED_Driver_Gear.c ****                 break;
 980:.\Generated_Source\PSoC5/LED_Driver_Gear.c ****             }
 981:.\Generated_Source\PSoC5/LED_Driver_Gear.c ****             else
 982:.\Generated_Source\PSoC5/LED_Driver_Gear.c ****             {
 983:.\Generated_Source\PSoC5/LED_Driver_Gear.c ****                 if(zeroCount != (digits - 1u))
 984:.\Generated_Source\PSoC5/LED_Driver_Gear.c ****                 {
 985:.\Generated_Source\PSoC5/LED_Driver_Gear.c ****                     /* Turn off the display */
 986:.\Generated_Source\PSoC5/LED_Driver_Gear.c ****                     bufArray[i] = LED_Driver_Gear_CLEAR;
 987:.\Generated_Source\PSoC5/LED_Driver_Gear.c ****                     zeroCount++;
 988:.\Generated_Source\PSoC5/LED_Driver_Gear.c ****                 }
 989:.\Generated_Source\PSoC5/LED_Driver_Gear.c ****             }    
 990:.\Generated_Source\PSoC5/LED_Driver_Gear.c ****         }
 991:.\Generated_Source\PSoC5/LED_Driver_Gear.c ****     }
 992:.\Generated_Source\PSoC5/LED_Driver_Gear.c ****     
 993:.\Generated_Source\PSoC5/LED_Driver_Gear.c ****     /* Place the values in the segment array according to alignment */
 994:.\Generated_Source\PSoC5/LED_Driver_Gear.c ****     if(alignment == LED_Driver_Gear_LEFT_ALIGN)
 995:.\Generated_Source\PSoC5/LED_Driver_Gear.c ****     {
 996:.\Generated_Source\PSoC5/LED_Driver_Gear.c ****         for(i = 0u; i < digits; i++)
 997:.\Generated_Source\PSoC5/LED_Driver_Gear.c ****         {
 998:.\Generated_Source\PSoC5/LED_Driver_Gear.c ****             if(bufArray[i] != LED_Driver_Gear_CLEAR)
 999:.\Generated_Source\PSoC5/LED_Driver_Gear.c ****             {
1000:.\Generated_Source\PSoC5/LED_Driver_Gear.c ****                 if(relPosition < LED_Driver_Gear_NUM_COM)
1001:.\Generated_Source\PSoC5/LED_Driver_Gear.c ****                 {
1002:.\Generated_Source\PSoC5/LED_Driver_Gear.c ****                     /* Only show displays that are not empty */
1003:.\Generated_Source\PSoC5/LED_Driver_Gear.c ****                     switch(choiceReg)
1004:.\Generated_Source\PSoC5/LED_Driver_Gear.c ****                     {
1005:.\Generated_Source\PSoC5/LED_Driver_Gear.c ****                         case LED_Driver_Gear_SEG_REG_LOW :
1006:.\Generated_Source\PSoC5/LED_Driver_Gear.c ****                             LED_Driver_Gear_segLBuffer[relPosition] = bufArray[i];
1007:.\Generated_Source\PSoC5/LED_Driver_Gear.c ****                             break;
1008:.\Generated_Source\PSoC5/LED_Driver_Gear.c ****                         case LED_Driver_Gear_SEG_REG_MID :
1009:.\Generated_Source\PSoC5/LED_Driver_Gear.c ****                             #if (LED_Driver_Gear_NUM_SEG > 8u)
1010:.\Generated_Source\PSoC5/LED_Driver_Gear.c ****                                 LED_Driver_Gear_segMBuffer[relPosition] = bufArray[i];
1011:.\Generated_Source\PSoC5/LED_Driver_Gear.c ****                             #endif /* (LED_Driver_Gear_NUM_SEG > 8u) */
1012:.\Generated_Source\PSoC5/LED_Driver_Gear.c ****                             break;
1013:.\Generated_Source\PSoC5/LED_Driver_Gear.c ****                         case LED_Driver_Gear_SEG_REG_HIGH :
1014:.\Generated_Source\PSoC5/LED_Driver_Gear.c ****                             #if (LED_Driver_Gear_NUM_SEG > 16u)
1015:.\Generated_Source\PSoC5/LED_Driver_Gear.c ****                                 LED_Driver_Gear_segHBuffer[relPosition] = bufArray[i];
1016:.\Generated_Source\PSoC5/LED_Driver_Gear.c ****                             #endif /* (LED_Driver_Gear_NUM_SEG > 16u) */
1017:.\Generated_Source\PSoC5/LED_Driver_Gear.c ****                             break;
1018:.\Generated_Source\PSoC5/LED_Driver_Gear.c ****                         default :
1019:.\Generated_Source\PSoC5/LED_Driver_Gear.c ****                             LED_Driver_Gear_segLBuffer[relPosition] = bufArray[i];
1020:.\Generated_Source\PSoC5/LED_Driver_Gear.c ****                             break;
1021:.\Generated_Source\PSoC5/LED_Driver_Gear.c ****                     }
1022:.\Generated_Source\PSoC5/LED_Driver_Gear.c ****                 }
1023:.\Generated_Source\PSoC5/LED_Driver_Gear.c ****                 relPosition++;
1024:.\Generated_Source\PSoC5/LED_Driver_Gear.c ****             }
1025:.\Generated_Source\PSoC5/LED_Driver_Gear.c ****         }
1026:.\Generated_Source\PSoC5/LED_Driver_Gear.c ****         /* Clear the rest of the positions to the right of value */
1027:.\Generated_Source\PSoC5/LED_Driver_Gear.c ****         while(relPosition < digits)
1028:.\Generated_Source\PSoC5/LED_Driver_Gear.c ****         {
1029:.\Generated_Source\PSoC5/LED_Driver_Gear.c ****             switch(choiceReg)
1030:.\Generated_Source\PSoC5/LED_Driver_Gear.c ****             {
1031:.\Generated_Source\PSoC5/LED_Driver_Gear.c ****                 case LED_Driver_Gear_SEG_REG_LOW :
1032:.\Generated_Source\PSoC5/LED_Driver_Gear.c ****                     LED_Driver_Gear_segLBuffer[relPosition] = LED_Driver_Gear_CLEAR;
1033:.\Generated_Source\PSoC5/LED_Driver_Gear.c ****                     break;
1034:.\Generated_Source\PSoC5/LED_Driver_Gear.c ****                 case LED_Driver_Gear_SEG_REG_MID :
ARM GAS  C:\Users\charl\AppData\Local\Temp\ccxfbC9q.s 			page 35


1035:.\Generated_Source\PSoC5/LED_Driver_Gear.c ****                     #if (LED_Driver_Gear_NUM_SEG > 8u)
1036:.\Generated_Source\PSoC5/LED_Driver_Gear.c ****                         LED_Driver_Gear_segMBuffer[relPosition] = LED_Driver_Gear_CLEAR;
1037:.\Generated_Source\PSoC5/LED_Driver_Gear.c ****                     #endif /* (LED_Driver_Gear_NUM_SEG > 8u) */
1038:.\Generated_Source\PSoC5/LED_Driver_Gear.c ****                     break;
1039:.\Generated_Source\PSoC5/LED_Driver_Gear.c ****                 case LED_Driver_Gear_SEG_REG_HIGH :
1040:.\Generated_Source\PSoC5/LED_Driver_Gear.c ****                     #if (LED_Driver_Gear_NUM_SEG > 16u)
1041:.\Generated_Source\PSoC5/LED_Driver_Gear.c ****                         LED_Driver_Gear_segHBuffer[relPosition] = LED_Driver_Gear_CLEAR;
1042:.\Generated_Source\PSoC5/LED_Driver_Gear.c ****                     #endif /* (LED_Driver_Gear_NUM_SEG > 16u) */
1043:.\Generated_Source\PSoC5/LED_Driver_Gear.c ****                     break;
1044:.\Generated_Source\PSoC5/LED_Driver_Gear.c ****                 default :
1045:.\Generated_Source\PSoC5/LED_Driver_Gear.c ****                     LED_Driver_Gear_segLBuffer[relPosition] = LED_Driver_Gear_CLEAR;
1046:.\Generated_Source\PSoC5/LED_Driver_Gear.c ****                     break;
1047:.\Generated_Source\PSoC5/LED_Driver_Gear.c ****             }
1048:.\Generated_Source\PSoC5/LED_Driver_Gear.c ****             relPosition++;
1049:.\Generated_Source\PSoC5/LED_Driver_Gear.c ****         }
1050:.\Generated_Source\PSoC5/LED_Driver_Gear.c ****     }
1051:.\Generated_Source\PSoC5/LED_Driver_Gear.c ****     else
1052:.\Generated_Source\PSoC5/LED_Driver_Gear.c ****     {
1053:.\Generated_Source\PSoC5/LED_Driver_Gear.c ****         /* Alignment for Right and zero padded */
1054:.\Generated_Source\PSoC5/LED_Driver_Gear.c ****         for(i = digits; i > 0u; i--)
1055:.\Generated_Source\PSoC5/LED_Driver_Gear.c ****         {
1056:.\Generated_Source\PSoC5/LED_Driver_Gear.c ****             if(((i + relPosition) - 1u) < LED_Driver_Gear_NUM_COM)
1057:.\Generated_Source\PSoC5/LED_Driver_Gear.c ****             {
1058:.\Generated_Source\PSoC5/LED_Driver_Gear.c ****                 /* Decide which row to use */
1059:.\Generated_Source\PSoC5/LED_Driver_Gear.c ****                 switch(choiceReg)
1060:.\Generated_Source\PSoC5/LED_Driver_Gear.c ****                 {
1061:.\Generated_Source\PSoC5/LED_Driver_Gear.c ****                     case LED_Driver_Gear_SEG_REG_LOW :
1062:.\Generated_Source\PSoC5/LED_Driver_Gear.c ****                         LED_Driver_Gear_segLBuffer[(i + relPosition) - 1u] = bufArray[i-1u];
1063:.\Generated_Source\PSoC5/LED_Driver_Gear.c ****                         break;
1064:.\Generated_Source\PSoC5/LED_Driver_Gear.c ****                     case LED_Driver_Gear_SEG_REG_MID :
1065:.\Generated_Source\PSoC5/LED_Driver_Gear.c ****                         #if (LED_Driver_Gear_NUM_SEG > 8u)
1066:.\Generated_Source\PSoC5/LED_Driver_Gear.c ****                             LED_Driver_Gear_segMBuffer[(i + relPosition) - 1u] = bufArray[i-1u];
1067:.\Generated_Source\PSoC5/LED_Driver_Gear.c ****                         #endif /* (LED_Driver_Gear_NUM_SEG > 8u) */
1068:.\Generated_Source\PSoC5/LED_Driver_Gear.c ****                         break;
1069:.\Generated_Source\PSoC5/LED_Driver_Gear.c ****                     case LED_Driver_Gear_SEG_REG_HIGH :
1070:.\Generated_Source\PSoC5/LED_Driver_Gear.c ****                         #if (LED_Driver_Gear_NUM_SEG > 16u)
1071:.\Generated_Source\PSoC5/LED_Driver_Gear.c ****                             LED_Driver_Gear_segHBuffer[(i + relPosition) - 1u] = bufArray[i-1u];
1072:.\Generated_Source\PSoC5/LED_Driver_Gear.c ****                         #endif /* (LED_Driver_Gear_NUM_SEG > 16u) */
1073:.\Generated_Source\PSoC5/LED_Driver_Gear.c ****                         break;
1074:.\Generated_Source\PSoC5/LED_Driver_Gear.c ****                     default :
1075:.\Generated_Source\PSoC5/LED_Driver_Gear.c ****                         LED_Driver_Gear_segLBuffer[(i + relPosition) - 1u] = bufArray[i-1u];
1076:.\Generated_Source\PSoC5/LED_Driver_Gear.c ****                         break;
1077:.\Generated_Source\PSoC5/LED_Driver_Gear.c ****                 }
1078:.\Generated_Source\PSoC5/LED_Driver_Gear.c ****             }
1079:.\Generated_Source\PSoC5/LED_Driver_Gear.c ****         }
1080:.\Generated_Source\PSoC5/LED_Driver_Gear.c ****     }
1081:.\Generated_Source\PSoC5/LED_Driver_Gear.c **** }
1082:.\Generated_Source\PSoC5/LED_Driver_Gear.c **** 
1083:.\Generated_Source\PSoC5/LED_Driver_Gear.c **** 
1084:.\Generated_Source\PSoC5/LED_Driver_Gear.c **** /*******************************************************************************
1085:.\Generated_Source\PSoC5/LED_Driver_Gear.c **** * Function Name: LED_Driver_Gear_Write7SegNumberHex
1086:.\Generated_Source\PSoC5/LED_Driver_Gear.c **** ********************************************************************************
1087:.\Generated_Source\PSoC5/LED_Driver_Gear.c **** *
1088:.\Generated_Source\PSoC5/LED_Driver_Gear.c **** * Summary:
1089:.\Generated_Source\PSoC5/LED_Driver_Gear.c **** *  Displays a hexadecimal number up to 8 characters long, starting at 'position'
1090:.\Generated_Source\PSoC5/LED_Driver_Gear.c **** *  and extending for 'digits' characters. If you do not use the correct number 
1091:.\Generated_Source\PSoC5/LED_Driver_Gear.c **** *  of digits for your number, the least significant digits will be displayed. 
ARM GAS  C:\Users\charl\AppData\Local\Temp\ccxfbC9q.s 			page 36


1092:.\Generated_Source\PSoC5/LED_Driver_Gear.c **** *  For example, if value is 0xDEADBEEF, display is 0 and digits is 4, the result 
1093:.\Generated_Source\PSoC5/LED_Driver_Gear.c **** *  will be: BEEF.
1094:.\Generated_Source\PSoC5/LED_Driver_Gear.c **** *
1095:.\Generated_Source\PSoC5/LED_Driver_Gear.c **** * Parameters:
1096:.\Generated_Source\PSoC5/LED_Driver_Gear.c **** *  uint32 number: The hexadecimal number to display. It is the responsibility of
1097:.\Generated_Source\PSoC5/LED_Driver_Gear.c **** *                 the user to ensure that the display has enough digits to 
1098:.\Generated_Source\PSoC5/LED_Driver_Gear.c **** *                 accurately representthe number passed to this function. If 
1099:.\Generated_Source\PSoC5/LED_Driver_Gear.c **** *                 not, the least significant digits will be displayed.
1100:.\Generated_Source\PSoC5/LED_Driver_Gear.c **** *  uint8 position: Position of the Display/Common to start number.
1101:.\Generated_Source\PSoC5/LED_Driver_Gear.c **** *  uint8 digits: The number of digits you wish to use to display the value 
1102:.\Generated_Source\PSoC5/LED_Driver_Gear.c **** *                passed into the function. If you do not use the correct number 
1103:.\Generated_Source\PSoC5/LED_Driver_Gear.c **** *                of digits for your number, the least significant digits will be
1104:.\Generated_Source\PSoC5/LED_Driver_Gear.c **** *                displayed.
1105:.\Generated_Source\PSoC5/LED_Driver_Gear.c **** *  uint8 alignment: How to align the provided number in the allocated digits.
1106:.\Generated_Source\PSoC5/LED_Driver_Gear.c **** *       RIGHT_ALIGN - Least significant digit occupies the rightmost digit
1107:.\Generated_Source\PSoC5/LED_Driver_Gear.c **** *                     (position + digits). Unused digits are turned off unless
1108:.\Generated_Source\PSoC5/LED_Driver_Gear.c **** *                     ZERO_PAD enabled.
1109:.\Generated_Source\PSoC5/LED_Driver_Gear.c **** *       LEFT_ALIGN - Most significant digit (or negative sign) occupies the
1110:.\Generated_Source\PSoC5/LED_Driver_Gear.c **** *                    digit specified by position. Unused digits are turned off.
1111:.\Generated_Source\PSoC5/LED_Driver_Gear.c **** *       ZERO_PAD - Unused digits to the left are padded with leading zeros.
1112:.\Generated_Source\PSoC5/LED_Driver_Gear.c **** *
1113:.\Generated_Source\PSoC5/LED_Driver_Gear.c **** * Return:
1114:.\Generated_Source\PSoC5/LED_Driver_Gear.c **** *  None
1115:.\Generated_Source\PSoC5/LED_Driver_Gear.c **** *
1116:.\Generated_Source\PSoC5/LED_Driver_Gear.c **** * Side effects:
1117:.\Generated_Source\PSoC5/LED_Driver_Gear.c **** *  None
1118:.\Generated_Source\PSoC5/LED_Driver_Gear.c **** *
1119:.\Generated_Source\PSoC5/LED_Driver_Gear.c **** *******************************************************************************/
1120:.\Generated_Source\PSoC5/LED_Driver_Gear.c **** void LED_Driver_Gear_Write7SegNumberHex(uint32 number, uint8 position, uint8 digits, uint8 alignmen
1121:.\Generated_Source\PSoC5/LED_Driver_Gear.c **** 
1122:.\Generated_Source\PSoC5/LED_Driver_Gear.c **** {
1123:.\Generated_Source\PSoC5/LED_Driver_Gear.c ****     uint8 i;
1124:.\Generated_Source\PSoC5/LED_Driver_Gear.c ****     uint8 relPosition;
1125:.\Generated_Source\PSoC5/LED_Driver_Gear.c ****     uint8 choiceReg;
1126:.\Generated_Source\PSoC5/LED_Driver_Gear.c ****     uint8 selectVal;
1127:.\Generated_Source\PSoC5/LED_Driver_Gear.c ****     uint8 zeroCount = 0u;
1128:.\Generated_Source\PSoC5/LED_Driver_Gear.c ****     uint8 bufArray[8u] = {0u};
1129:.\Generated_Source\PSoC5/LED_Driver_Gear.c ****     uint32 numberVal;
1130:.\Generated_Source\PSoC5/LED_Driver_Gear.c ****         
1131:.\Generated_Source\PSoC5/LED_Driver_Gear.c ****     numberVal = number;
1132:.\Generated_Source\PSoC5/LED_Driver_Gear.c ****     
1133:.\Generated_Source\PSoC5/LED_Driver_Gear.c ****     /* Choose to use either the low, mid or high control registers */
1134:.\Generated_Source\PSoC5/LED_Driver_Gear.c ****     if(position < LED_Driver_Gear_NUM_COM)
1135:.\Generated_Source\PSoC5/LED_Driver_Gear.c ****     {
1136:.\Generated_Source\PSoC5/LED_Driver_Gear.c ****         choiceReg = LED_Driver_Gear_SEG_REG_LOW;
1137:.\Generated_Source\PSoC5/LED_Driver_Gear.c ****         relPosition = position;
1138:.\Generated_Source\PSoC5/LED_Driver_Gear.c ****     }
1139:.\Generated_Source\PSoC5/LED_Driver_Gear.c ****     else if (position < LED_Driver_Gear_TWO_NUM_COM)
1140:.\Generated_Source\PSoC5/LED_Driver_Gear.c ****     {
1141:.\Generated_Source\PSoC5/LED_Driver_Gear.c ****         choiceReg = LED_Driver_Gear_SEG_REG_MID;
1142:.\Generated_Source\PSoC5/LED_Driver_Gear.c ****         relPosition = position - LED_Driver_Gear_NUM_COM;
1143:.\Generated_Source\PSoC5/LED_Driver_Gear.c ****     }
1144:.\Generated_Source\PSoC5/LED_Driver_Gear.c ****     else
1145:.\Generated_Source\PSoC5/LED_Driver_Gear.c ****     {
1146:.\Generated_Source\PSoC5/LED_Driver_Gear.c ****         choiceReg = LED_Driver_Gear_SEG_REG_HIGH;
1147:.\Generated_Source\PSoC5/LED_Driver_Gear.c ****         relPosition = position - LED_Driver_Gear_TWO_NUM_COM;
1148:.\Generated_Source\PSoC5/LED_Driver_Gear.c ****     }
ARM GAS  C:\Users\charl\AppData\Local\Temp\ccxfbC9q.s 			page 37


1149:.\Generated_Source\PSoC5/LED_Driver_Gear.c ****     
1150:.\Generated_Source\PSoC5/LED_Driver_Gear.c ****     /* Fill up the temporary array */
1151:.\Generated_Source\PSoC5/LED_Driver_Gear.c ****     for(i = digits; i > 0u; i--)
1152:.\Generated_Source\PSoC5/LED_Driver_Gear.c ****     {
1153:.\Generated_Source\PSoC5/LED_Driver_Gear.c ****         selectVal = (uint8)((uint8)numberVal & LED_Driver_Gear_NIBBLE_MASK);
1154:.\Generated_Source\PSoC5/LED_Driver_Gear.c ****         bufArray[i-1u] = LED_Driver_Gear_EncodeNumber7Seg(selectVal);
1155:.\Generated_Source\PSoC5/LED_Driver_Gear.c ****         numberVal = (uint32)((uint32)numberVal >> LED_Driver_Gear_SHIFT_NIBBLE);
1156:.\Generated_Source\PSoC5/LED_Driver_Gear.c ****     }
1157:.\Generated_Source\PSoC5/LED_Driver_Gear.c ****     
1158:.\Generated_Source\PSoC5/LED_Driver_Gear.c ****     /* Clean up the array */
1159:.\Generated_Source\PSoC5/LED_Driver_Gear.c ****     if(alignment != LED_Driver_Gear_ZERO_PAD)
1160:.\Generated_Source\PSoC5/LED_Driver_Gear.c ****     {
1161:.\Generated_Source\PSoC5/LED_Driver_Gear.c ****         for(i = 0u; i < digits; i++)
1162:.\Generated_Source\PSoC5/LED_Driver_Gear.c ****         {
1163:.\Generated_Source\PSoC5/LED_Driver_Gear.c ****             if (bufArray[i] != LED_Driver_Gear_ZERO_7CHAR)
1164:.\Generated_Source\PSoC5/LED_Driver_Gear.c ****             {
1165:.\Generated_Source\PSoC5/LED_Driver_Gear.c ****                 /* Exit when encountering non-zero number */
1166:.\Generated_Source\PSoC5/LED_Driver_Gear.c ****                 break;
1167:.\Generated_Source\PSoC5/LED_Driver_Gear.c ****             }
1168:.\Generated_Source\PSoC5/LED_Driver_Gear.c ****             else
1169:.\Generated_Source\PSoC5/LED_Driver_Gear.c ****             {
1170:.\Generated_Source\PSoC5/LED_Driver_Gear.c ****                 if(zeroCount != (digits - 1u))
1171:.\Generated_Source\PSoC5/LED_Driver_Gear.c ****                 {
1172:.\Generated_Source\PSoC5/LED_Driver_Gear.c ****                     /* Turn off the display */
1173:.\Generated_Source\PSoC5/LED_Driver_Gear.c ****                     bufArray[i] = LED_Driver_Gear_CLEAR;
1174:.\Generated_Source\PSoC5/LED_Driver_Gear.c ****                     zeroCount++;
1175:.\Generated_Source\PSoC5/LED_Driver_Gear.c ****                 }
1176:.\Generated_Source\PSoC5/LED_Driver_Gear.c ****             }    
1177:.\Generated_Source\PSoC5/LED_Driver_Gear.c ****         }
1178:.\Generated_Source\PSoC5/LED_Driver_Gear.c ****     }
1179:.\Generated_Source\PSoC5/LED_Driver_Gear.c ****     
1180:.\Generated_Source\PSoC5/LED_Driver_Gear.c ****     /* Place the values in the segment array according to alignment */
1181:.\Generated_Source\PSoC5/LED_Driver_Gear.c ****     if(alignment == LED_Driver_Gear_LEFT_ALIGN)
1182:.\Generated_Source\PSoC5/LED_Driver_Gear.c ****     {
1183:.\Generated_Source\PSoC5/LED_Driver_Gear.c ****         for(i = 0u; i < digits; i++)
1184:.\Generated_Source\PSoC5/LED_Driver_Gear.c ****         {
1185:.\Generated_Source\PSoC5/LED_Driver_Gear.c ****             if(bufArray[i] != LED_Driver_Gear_CLEAR)
1186:.\Generated_Source\PSoC5/LED_Driver_Gear.c ****             {
1187:.\Generated_Source\PSoC5/LED_Driver_Gear.c ****                 if(relPosition < LED_Driver_Gear_NUM_COM)
1188:.\Generated_Source\PSoC5/LED_Driver_Gear.c ****                 {
1189:.\Generated_Source\PSoC5/LED_Driver_Gear.c ****                     /* Only show displays that are not empty */
1190:.\Generated_Source\PSoC5/LED_Driver_Gear.c ****                     switch(choiceReg)
1191:.\Generated_Source\PSoC5/LED_Driver_Gear.c ****                     {
1192:.\Generated_Source\PSoC5/LED_Driver_Gear.c ****                         case LED_Driver_Gear_SEG_REG_LOW :
1193:.\Generated_Source\PSoC5/LED_Driver_Gear.c ****                             LED_Driver_Gear_segLBuffer[relPosition] = bufArray[i];
1194:.\Generated_Source\PSoC5/LED_Driver_Gear.c ****                             break;
1195:.\Generated_Source\PSoC5/LED_Driver_Gear.c ****                         case LED_Driver_Gear_SEG_REG_MID :
1196:.\Generated_Source\PSoC5/LED_Driver_Gear.c ****                             #if (LED_Driver_Gear_NUM_SEG > 8u)
1197:.\Generated_Source\PSoC5/LED_Driver_Gear.c ****                                 LED_Driver_Gear_segMBuffer[relPosition] = bufArray[i];
1198:.\Generated_Source\PSoC5/LED_Driver_Gear.c ****                             #endif /* (LED_Driver_Gear_NUM_SEG > 8u) */
1199:.\Generated_Source\PSoC5/LED_Driver_Gear.c ****                             break;
1200:.\Generated_Source\PSoC5/LED_Driver_Gear.c ****                         case LED_Driver_Gear_SEG_REG_HIGH :
1201:.\Generated_Source\PSoC5/LED_Driver_Gear.c ****                             #if (LED_Driver_Gear_NUM_SEG > 16u)
1202:.\Generated_Source\PSoC5/LED_Driver_Gear.c ****                                 LED_Driver_Gear_segHBuffer[relPosition] = bufArray[i];
1203:.\Generated_Source\PSoC5/LED_Driver_Gear.c ****                             #endif /* (LED_Driver_Gear_NUM_SEG > 16u) */
1204:.\Generated_Source\PSoC5/LED_Driver_Gear.c ****                             break;
1205:.\Generated_Source\PSoC5/LED_Driver_Gear.c ****                         default :
ARM GAS  C:\Users\charl\AppData\Local\Temp\ccxfbC9q.s 			page 38


1206:.\Generated_Source\PSoC5/LED_Driver_Gear.c ****                             LED_Driver_Gear_segLBuffer[relPosition] = bufArray[i];
1207:.\Generated_Source\PSoC5/LED_Driver_Gear.c ****                             break;
1208:.\Generated_Source\PSoC5/LED_Driver_Gear.c ****                     }
1209:.\Generated_Source\PSoC5/LED_Driver_Gear.c ****                 }
1210:.\Generated_Source\PSoC5/LED_Driver_Gear.c ****                 relPosition++;
1211:.\Generated_Source\PSoC5/LED_Driver_Gear.c ****             }
1212:.\Generated_Source\PSoC5/LED_Driver_Gear.c ****         }
1213:.\Generated_Source\PSoC5/LED_Driver_Gear.c ****         /* Clear the rest of the positions to the right of value */
1214:.\Generated_Source\PSoC5/LED_Driver_Gear.c ****         while(relPosition < digits)
1215:.\Generated_Source\PSoC5/LED_Driver_Gear.c ****         {
1216:.\Generated_Source\PSoC5/LED_Driver_Gear.c ****             switch(choiceReg)
1217:.\Generated_Source\PSoC5/LED_Driver_Gear.c ****             {
1218:.\Generated_Source\PSoC5/LED_Driver_Gear.c ****                 case LED_Driver_Gear_SEG_REG_LOW :
1219:.\Generated_Source\PSoC5/LED_Driver_Gear.c ****                     LED_Driver_Gear_segLBuffer[relPosition] = LED_Driver_Gear_CLEAR;
1220:.\Generated_Source\PSoC5/LED_Driver_Gear.c ****                     break;
1221:.\Generated_Source\PSoC5/LED_Driver_Gear.c ****                 case LED_Driver_Gear_SEG_REG_MID :
1222:.\Generated_Source\PSoC5/LED_Driver_Gear.c ****                     #if (LED_Driver_Gear_NUM_SEG > 8u)
1223:.\Generated_Source\PSoC5/LED_Driver_Gear.c ****                         LED_Driver_Gear_segMBuffer[relPosition] = LED_Driver_Gear_CLEAR;
1224:.\Generated_Source\PSoC5/LED_Driver_Gear.c ****                     #endif /* (LED_Driver_Gear_NUM_SEG > 8u) */
1225:.\Generated_Source\PSoC5/LED_Driver_Gear.c ****                     break;
1226:.\Generated_Source\PSoC5/LED_Driver_Gear.c ****                 case LED_Driver_Gear_SEG_REG_HIGH :
1227:.\Generated_Source\PSoC5/LED_Driver_Gear.c ****                     #if (LED_Driver_Gear_NUM_SEG > 16u)
1228:.\Generated_Source\PSoC5/LED_Driver_Gear.c ****                         LED_Driver_Gear_segHBuffer[relPosition] = LED_Driver_Gear_CLEAR;
1229:.\Generated_Source\PSoC5/LED_Driver_Gear.c ****                     #endif /* (LED_Driver_Gear_NUM_SEG > 16u) */
1230:.\Generated_Source\PSoC5/LED_Driver_Gear.c ****                     break;
1231:.\Generated_Source\PSoC5/LED_Driver_Gear.c ****                 default :
1232:.\Generated_Source\PSoC5/LED_Driver_Gear.c ****                     LED_Driver_Gear_segLBuffer[relPosition] = LED_Driver_Gear_CLEAR;
1233:.\Generated_Source\PSoC5/LED_Driver_Gear.c ****                     break;
1234:.\Generated_Source\PSoC5/LED_Driver_Gear.c ****             }
1235:.\Generated_Source\PSoC5/LED_Driver_Gear.c ****             relPosition++;
1236:.\Generated_Source\PSoC5/LED_Driver_Gear.c ****         }
1237:.\Generated_Source\PSoC5/LED_Driver_Gear.c ****     }
1238:.\Generated_Source\PSoC5/LED_Driver_Gear.c ****     else
1239:.\Generated_Source\PSoC5/LED_Driver_Gear.c ****     {
1240:.\Generated_Source\PSoC5/LED_Driver_Gear.c ****         /* Alignment for right and zero padded */
1241:.\Generated_Source\PSoC5/LED_Driver_Gear.c ****         for(i = digits; i > 0u; i--)
1242:.\Generated_Source\PSoC5/LED_Driver_Gear.c ****         {
1243:.\Generated_Source\PSoC5/LED_Driver_Gear.c ****             if(((i + relPosition) - 1u) < LED_Driver_Gear_NUM_COM)
1244:.\Generated_Source\PSoC5/LED_Driver_Gear.c ****             {
1245:.\Generated_Source\PSoC5/LED_Driver_Gear.c ****                 /* Decide which row to use */
1246:.\Generated_Source\PSoC5/LED_Driver_Gear.c ****                 switch(choiceReg)
1247:.\Generated_Source\PSoC5/LED_Driver_Gear.c ****                 {
1248:.\Generated_Source\PSoC5/LED_Driver_Gear.c ****                     case LED_Driver_Gear_SEG_REG_LOW :
1249:.\Generated_Source\PSoC5/LED_Driver_Gear.c ****                         LED_Driver_Gear_segLBuffer[(i + relPosition) - 1u] = bufArray[i-1u];
1250:.\Generated_Source\PSoC5/LED_Driver_Gear.c ****                         break;
1251:.\Generated_Source\PSoC5/LED_Driver_Gear.c ****                     case LED_Driver_Gear_SEG_REG_MID :
1252:.\Generated_Source\PSoC5/LED_Driver_Gear.c ****                         #if (LED_Driver_Gear_NUM_SEG > 8u)
1253:.\Generated_Source\PSoC5/LED_Driver_Gear.c ****                             LED_Driver_Gear_segMBuffer[(i + relPosition) - 1u] = bufArray[i-1u];
1254:.\Generated_Source\PSoC5/LED_Driver_Gear.c ****                         #endif /* (LED_Driver_Gear_NUM_SEG > 8u) */
1255:.\Generated_Source\PSoC5/LED_Driver_Gear.c ****                         break;
1256:.\Generated_Source\PSoC5/LED_Driver_Gear.c ****                     case LED_Driver_Gear_SEG_REG_HIGH :
1257:.\Generated_Source\PSoC5/LED_Driver_Gear.c ****                         #if (LED_Driver_Gear_NUM_SEG > 16u)
1258:.\Generated_Source\PSoC5/LED_Driver_Gear.c ****                             LED_Driver_Gear_segHBuffer[(i + relPosition) - 1u] = bufArray[i-1u];
1259:.\Generated_Source\PSoC5/LED_Driver_Gear.c ****                         #endif /* (LED_Driver_Gear_NUM_SEG > 16u) */
1260:.\Generated_Source\PSoC5/LED_Driver_Gear.c ****                         break;
1261:.\Generated_Source\PSoC5/LED_Driver_Gear.c ****                     default :
1262:.\Generated_Source\PSoC5/LED_Driver_Gear.c ****                         LED_Driver_Gear_segLBuffer[(i + relPosition) - 1u] = bufArray[i-1u];
ARM GAS  C:\Users\charl\AppData\Local\Temp\ccxfbC9q.s 			page 39


1263:.\Generated_Source\PSoC5/LED_Driver_Gear.c ****                         break;
1264:.\Generated_Source\PSoC5/LED_Driver_Gear.c ****                 }
1265:.\Generated_Source\PSoC5/LED_Driver_Gear.c ****             }
1266:.\Generated_Source\PSoC5/LED_Driver_Gear.c ****         }
1267:.\Generated_Source\PSoC5/LED_Driver_Gear.c ****     }
1268:.\Generated_Source\PSoC5/LED_Driver_Gear.c **** }
1269:.\Generated_Source\PSoC5/LED_Driver_Gear.c **** 
1270:.\Generated_Source\PSoC5/LED_Driver_Gear.c **** 
1271:.\Generated_Source\PSoC5/LED_Driver_Gear.c **** /*******************************************************************************
1272:.\Generated_Source\PSoC5/LED_Driver_Gear.c **** * Function Name: LED_Driver_Gear_WriteString7Seg
1273:.\Generated_Source\PSoC5/LED_Driver_Gear.c **** ********************************************************************************
1274:.\Generated_Source\PSoC5/LED_Driver_Gear.c **** *
1275:.\Generated_Source\PSoC5/LED_Driver_Gear.c **** * Summary:
1276:.\Generated_Source\PSoC5/LED_Driver_Gear.c **** *  Displays a null terminated string starting at 'position' and ending at either
1277:.\Generated_Source\PSoC5/LED_Driver_Gear.c **** *  at the end the string or the end of the display. The displayable characters 
1278:.\Generated_Source\PSoC5/LED_Driver_Gear.c **** *  are the same for the LED_Driver_PutChar7Seg() function. Non-displayable
1279:.\Generated_Source\PSoC5/LED_Driver_Gear.c **** *  characters will produce a blank space.
1280:.\Generated_Source\PSoC5/LED_Driver_Gear.c **** *
1281:.\Generated_Source\PSoC5/LED_Driver_Gear.c **** * Parameters:
1282:.\Generated_Source\PSoC5/LED_Driver_Gear.c **** *  char8 const character[]: The null terminated string to be displayed.
1283:.\Generated_Source\PSoC5/LED_Driver_Gear.c **** *  uint8 position: The position to start the string.
1284:.\Generated_Source\PSoC5/LED_Driver_Gear.c **** *
1285:.\Generated_Source\PSoC5/LED_Driver_Gear.c **** * Return:
1286:.\Generated_Source\PSoC5/LED_Driver_Gear.c **** *  None
1287:.\Generated_Source\PSoC5/LED_Driver_Gear.c **** *
1288:.\Generated_Source\PSoC5/LED_Driver_Gear.c **** * Side effects:
1289:.\Generated_Source\PSoC5/LED_Driver_Gear.c **** *  None
1290:.\Generated_Source\PSoC5/LED_Driver_Gear.c **** *
1291:.\Generated_Source\PSoC5/LED_Driver_Gear.c **** *******************************************************************************/
1292:.\Generated_Source\PSoC5/LED_Driver_Gear.c **** void LED_Driver_Gear_WriteString7Seg(char8 const character[], uint8 position)
1293:.\Generated_Source\PSoC5/LED_Driver_Gear.c **** 
1294:.\Generated_Source\PSoC5/LED_Driver_Gear.c **** {
1295:.\Generated_Source\PSoC5/LED_Driver_Gear.c ****     uint8 relPosition;
1296:.\Generated_Source\PSoC5/LED_Driver_Gear.c ****     uint8 sizeLimit;
1297:.\Generated_Source\PSoC5/LED_Driver_Gear.c ****     uint8 i = 0u;
1298:.\Generated_Source\PSoC5/LED_Driver_Gear.c ****     
1299:.\Generated_Source\PSoC5/LED_Driver_Gear.c ****     if(position < LED_Driver_Gear_NUM_COM)
1300:.\Generated_Source\PSoC5/LED_Driver_Gear.c ****     {
1301:.\Generated_Source\PSoC5/LED_Driver_Gear.c ****         sizeLimit = (uint8)(strlen(character)) + position;
1302:.\Generated_Source\PSoC5/LED_Driver_Gear.c ****         for(relPosition = position; relPosition < LED_Driver_Gear_NUM_COM; relPosition++)
1303:.\Generated_Source\PSoC5/LED_Driver_Gear.c ****         {
1304:.\Generated_Source\PSoC5/LED_Driver_Gear.c ****             if(relPosition < sizeLimit)
1305:.\Generated_Source\PSoC5/LED_Driver_Gear.c ****             {
1306:.\Generated_Source\PSoC5/LED_Driver_Gear.c ****                 LED_Driver_Gear_segLBuffer[relPosition] = LED_Driver_Gear_EncodeChar7Seg(character[
1307:.\Generated_Source\PSoC5/LED_Driver_Gear.c ****                 i++;
1308:.\Generated_Source\PSoC5/LED_Driver_Gear.c ****             }
1309:.\Generated_Source\PSoC5/LED_Driver_Gear.c ****         }
1310:.\Generated_Source\PSoC5/LED_Driver_Gear.c ****     }    
1311:.\Generated_Source\PSoC5/LED_Driver_Gear.c ****     else if (position < LED_Driver_Gear_TWO_NUM_COM)
1312:.\Generated_Source\PSoC5/LED_Driver_Gear.c ****     {
1313:.\Generated_Source\PSoC5/LED_Driver_Gear.c ****         #if (LED_Driver_Gear_NUM_SEG > 8u) 
1314:.\Generated_Source\PSoC5/LED_Driver_Gear.c ****             sizeLimit = ((uint8)(strlen(character)) + position) - LED_Driver_Gear_NUM_COM;
1315:.\Generated_Source\PSoC5/LED_Driver_Gear.c ****             for(relPosition = position - LED_Driver_Gear_NUM_COM;
1316:.\Generated_Source\PSoC5/LED_Driver_Gear.c ****                 relPosition < LED_Driver_Gear_NUM_COM; 
1317:.\Generated_Source\PSoC5/LED_Driver_Gear.c ****                 relPosition++)
1318:.\Generated_Source\PSoC5/LED_Driver_Gear.c ****             {
1319:.\Generated_Source\PSoC5/LED_Driver_Gear.c ****                 if(relPosition < sizeLimit)
ARM GAS  C:\Users\charl\AppData\Local\Temp\ccxfbC9q.s 			page 40


1320:.\Generated_Source\PSoC5/LED_Driver_Gear.c ****                 {
1321:.\Generated_Source\PSoC5/LED_Driver_Gear.c ****                     LED_Driver_Gear_segMBuffer[relPosition] = LED_Driver_Gear_EncodeChar7Seg(charac
1322:.\Generated_Source\PSoC5/LED_Driver_Gear.c ****                     i++;
1323:.\Generated_Source\PSoC5/LED_Driver_Gear.c ****                 }
1324:.\Generated_Source\PSoC5/LED_Driver_Gear.c ****             }
1325:.\Generated_Source\PSoC5/LED_Driver_Gear.c ****         #endif /* (LED_Driver_Gear_NUM_SEG > 8u) */
1326:.\Generated_Source\PSoC5/LED_Driver_Gear.c ****     }
1327:.\Generated_Source\PSoC5/LED_Driver_Gear.c ****     else
1328:.\Generated_Source\PSoC5/LED_Driver_Gear.c ****     {
1329:.\Generated_Source\PSoC5/LED_Driver_Gear.c ****         #if (LED_Driver_Gear_NUM_SEG > 16u)
1330:.\Generated_Source\PSoC5/LED_Driver_Gear.c ****             sizeLimit = ((uint8)(strlen(character)) + position) - LED_Driver_Gear_TWO_NUM_COM;
1331:.\Generated_Source\PSoC5/LED_Driver_Gear.c ****             for(relPosition = position - LED_Driver_Gear_TWO_NUM_COM;
1332:.\Generated_Source\PSoC5/LED_Driver_Gear.c ****                 relPosition < LED_Driver_Gear_NUM_COM; 
1333:.\Generated_Source\PSoC5/LED_Driver_Gear.c ****                 relPosition++)
1334:.\Generated_Source\PSoC5/LED_Driver_Gear.c ****             {
1335:.\Generated_Source\PSoC5/LED_Driver_Gear.c ****                 if(relPosition < sizeLimit)
1336:.\Generated_Source\PSoC5/LED_Driver_Gear.c ****                 {
1337:.\Generated_Source\PSoC5/LED_Driver_Gear.c ****                     LED_Driver_Gear_segHBuffer[relPosition] = LED_Driver_Gear_EncodeChar7Seg(charac
1338:.\Generated_Source\PSoC5/LED_Driver_Gear.c ****                     i++;
1339:.\Generated_Source\PSoC5/LED_Driver_Gear.c ****                 }    
1340:.\Generated_Source\PSoC5/LED_Driver_Gear.c ****             }
1341:.\Generated_Source\PSoC5/LED_Driver_Gear.c ****         #endif /* (LED_Driver_Gear_NUM_SEG > 16u) */
1342:.\Generated_Source\PSoC5/LED_Driver_Gear.c ****     }
1343:.\Generated_Source\PSoC5/LED_Driver_Gear.c **** }
1344:.\Generated_Source\PSoC5/LED_Driver_Gear.c **** 
1345:.\Generated_Source\PSoC5/LED_Driver_Gear.c **** 
1346:.\Generated_Source\PSoC5/LED_Driver_Gear.c **** /*******************************************************************************
1347:.\Generated_Source\PSoC5/LED_Driver_Gear.c **** * Function Name: LED_Driver_Gear_PutChar7Seg
1348:.\Generated_Source\PSoC5/LED_Driver_Gear.c **** ********************************************************************************
1349:.\Generated_Source\PSoC5/LED_Driver_Gear.c **** *
1350:.\Generated_Source\PSoC5/LED_Driver_Gear.c **** * Summary:
1351:.\Generated_Source\PSoC5/LED_Driver_Gear.c **** *  Displays an ascii encoded character at 'position'. This function can display 
1352:.\Generated_Source\PSoC5/LED_Driver_Gear.c **** *  all alphanumeric characters. The function can also display '-', '.', '_', 
1353:.\Generated_Source\PSoC5/LED_Driver_Gear.c **** *  ' ', and '='. All unknown characters are displayed as a space.
1354:.\Generated_Source\PSoC5/LED_Driver_Gear.c **** *
1355:.\Generated_Source\PSoC5/LED_Driver_Gear.c **** * Parameters:
1356:.\Generated_Source\PSoC5/LED_Driver_Gear.c **** *  char8 character: ASCII character.
1357:.\Generated_Source\PSoC5/LED_Driver_Gear.c **** *  uint8 position: The position of the character.
1358:.\Generated_Source\PSoC5/LED_Driver_Gear.c **** *
1359:.\Generated_Source\PSoC5/LED_Driver_Gear.c **** * Return:
1360:.\Generated_Source\PSoC5/LED_Driver_Gear.c **** *  None
1361:.\Generated_Source\PSoC5/LED_Driver_Gear.c **** *
1362:.\Generated_Source\PSoC5/LED_Driver_Gear.c **** * Side effects:
1363:.\Generated_Source\PSoC5/LED_Driver_Gear.c **** *  None
1364:.\Generated_Source\PSoC5/LED_Driver_Gear.c **** *
1365:.\Generated_Source\PSoC5/LED_Driver_Gear.c **** *******************************************************************************/
1366:.\Generated_Source\PSoC5/LED_Driver_Gear.c **** void LED_Driver_Gear_PutChar7Seg(char8 character , uint8 position)
1367:.\Generated_Source\PSoC5/LED_Driver_Gear.c **** 
1368:.\Generated_Source\PSoC5/LED_Driver_Gear.c **** {
1369:.\Generated_Source\PSoC5/LED_Driver_Gear.c ****     uint8 relPosition;
1370:.\Generated_Source\PSoC5/LED_Driver_Gear.c ****     
1371:.\Generated_Source\PSoC5/LED_Driver_Gear.c ****     if(position < LED_Driver_Gear_NUM_COM)
1372:.\Generated_Source\PSoC5/LED_Driver_Gear.c ****     {
1373:.\Generated_Source\PSoC5/LED_Driver_Gear.c ****         relPosition = position;
1374:.\Generated_Source\PSoC5/LED_Driver_Gear.c ****         LED_Driver_Gear_segLBuffer[relPosition] = LED_Driver_Gear_EncodeChar7Seg(character);
1375:.\Generated_Source\PSoC5/LED_Driver_Gear.c ****     }    
1376:.\Generated_Source\PSoC5/LED_Driver_Gear.c ****     else if (position < LED_Driver_Gear_TWO_NUM_COM)
ARM GAS  C:\Users\charl\AppData\Local\Temp\ccxfbC9q.s 			page 41


1377:.\Generated_Source\PSoC5/LED_Driver_Gear.c ****     {
1378:.\Generated_Source\PSoC5/LED_Driver_Gear.c ****         #if (LED_Driver_Gear_NUM_SEG > 8u) 
1379:.\Generated_Source\PSoC5/LED_Driver_Gear.c ****             relPosition = position - LED_Driver_Gear_NUM_COM;
1380:.\Generated_Source\PSoC5/LED_Driver_Gear.c ****             LED_Driver_Gear_segMBuffer[relPosition] = LED_Driver_Gear_EncodeChar7Seg(character);
1381:.\Generated_Source\PSoC5/LED_Driver_Gear.c ****         #endif /* (LED_Driver_Gear_NUM_SEG > 8u) */
1382:.\Generated_Source\PSoC5/LED_Driver_Gear.c ****     }
1383:.\Generated_Source\PSoC5/LED_Driver_Gear.c ****     else
1384:.\Generated_Source\PSoC5/LED_Driver_Gear.c ****     {
1385:.\Generated_Source\PSoC5/LED_Driver_Gear.c ****         #if (LED_Driver_Gear_NUM_SEG > 16u)
1386:.\Generated_Source\PSoC5/LED_Driver_Gear.c ****             relPosition = position - LED_Driver_Gear_TWO_NUM_COM;
1387:.\Generated_Source\PSoC5/LED_Driver_Gear.c ****             if(relPosition < LED_Driver_Gear_NUM_COM)
1388:.\Generated_Source\PSoC5/LED_Driver_Gear.c ****             {
1389:.\Generated_Source\PSoC5/LED_Driver_Gear.c ****                 LED_Driver_Gear_segHBuffer[relPosition] = LED_Driver_Gear_EncodeChar7Seg(character)
1390:.\Generated_Source\PSoC5/LED_Driver_Gear.c ****             }
1391:.\Generated_Source\PSoC5/LED_Driver_Gear.c ****         #endif /* (LED_Driver_Gear_NUM_SEG > 16u) */
1392:.\Generated_Source\PSoC5/LED_Driver_Gear.c ****     }
1393:.\Generated_Source\PSoC5/LED_Driver_Gear.c **** }
1394:.\Generated_Source\PSoC5/LED_Driver_Gear.c **** 
1395:.\Generated_Source\PSoC5/LED_Driver_Gear.c **** 
1396:.\Generated_Source\PSoC5/LED_Driver_Gear.c **** /*******************************************************************************
1397:.\Generated_Source\PSoC5/LED_Driver_Gear.c **** * Function Name: LED_Driver_Gear_Write7SegDigitDec
1398:.\Generated_Source\PSoC5/LED_Driver_Gear.c **** ********************************************************************************
1399:.\Generated_Source\PSoC5/LED_Driver_Gear.c **** *
1400:.\Generated_Source\PSoC5/LED_Driver_Gear.c **** * Summary:
1401:.\Generated_Source\PSoC5/LED_Driver_Gear.c **** *  Displays a single digit on the specified display. The number in 'digit' 
1402:.\Generated_Source\PSoC5/LED_Driver_Gear.c **** *  (0-9) is placed on 'position.'
1403:.\Generated_Source\PSoC5/LED_Driver_Gear.c **** *
1404:.\Generated_Source\PSoC5/LED_Driver_Gear.c **** * Parameters:
1405:.\Generated_Source\PSoC5/LED_Driver_Gear.c **** *  uint8 digit: A number between 0 and 9 to display.
1406:.\Generated_Source\PSoC5/LED_Driver_Gear.c **** *  uint8 position: Position of the display in which to place the number.
1407:.\Generated_Source\PSoC5/LED_Driver_Gear.c **** *
1408:.\Generated_Source\PSoC5/LED_Driver_Gear.c **** * Return:
1409:.\Generated_Source\PSoC5/LED_Driver_Gear.c **** *  None
1410:.\Generated_Source\PSoC5/LED_Driver_Gear.c **** *
1411:.\Generated_Source\PSoC5/LED_Driver_Gear.c **** * Side effects:
1412:.\Generated_Source\PSoC5/LED_Driver_Gear.c **** *  None
1413:.\Generated_Source\PSoC5/LED_Driver_Gear.c **** *
1414:.\Generated_Source\PSoC5/LED_Driver_Gear.c **** *******************************************************************************/
1415:.\Generated_Source\PSoC5/LED_Driver_Gear.c **** void LED_Driver_Gear_Write7SegDigitDec(uint8 digit, uint8 position)
1416:.\Generated_Source\PSoC5/LED_Driver_Gear.c **** 
1417:.\Generated_Source\PSoC5/LED_Driver_Gear.c **** {
1418:.\Generated_Source\PSoC5/LED_Driver_Gear.c ****     uint8 relPosition;
1419:.\Generated_Source\PSoC5/LED_Driver_Gear.c ****     
1420:.\Generated_Source\PSoC5/LED_Driver_Gear.c ****     /* Only display numerical values */
1421:.\Generated_Source\PSoC5/LED_Driver_Gear.c ****     if (digit < 10u)
1422:.\Generated_Source\PSoC5/LED_Driver_Gear.c ****     {
1423:.\Generated_Source\PSoC5/LED_Driver_Gear.c ****         if(position < LED_Driver_Gear_NUM_COM)
1424:.\Generated_Source\PSoC5/LED_Driver_Gear.c ****         {
1425:.\Generated_Source\PSoC5/LED_Driver_Gear.c ****             relPosition = position;
1426:.\Generated_Source\PSoC5/LED_Driver_Gear.c ****             LED_Driver_Gear_segLBuffer[relPosition] = LED_Driver_Gear_EncodeNumber7Seg(digit);
1427:.\Generated_Source\PSoC5/LED_Driver_Gear.c ****         }    
1428:.\Generated_Source\PSoC5/LED_Driver_Gear.c ****         else if (position < LED_Driver_Gear_TWO_NUM_COM)
1429:.\Generated_Source\PSoC5/LED_Driver_Gear.c ****         {
1430:.\Generated_Source\PSoC5/LED_Driver_Gear.c ****             #if (LED_Driver_Gear_NUM_SEG > 8u)
1431:.\Generated_Source\PSoC5/LED_Driver_Gear.c ****                 relPosition = position - LED_Driver_Gear_NUM_COM;
1432:.\Generated_Source\PSoC5/LED_Driver_Gear.c ****                 LED_Driver_Gear_segMBuffer[relPosition] = LED_Driver_Gear_EncodeNumber7Seg(digit);
1433:.\Generated_Source\PSoC5/LED_Driver_Gear.c ****             #endif /* (LED_Driver_Gear_NUM_SEG > 8u) */
ARM GAS  C:\Users\charl\AppData\Local\Temp\ccxfbC9q.s 			page 42


1434:.\Generated_Source\PSoC5/LED_Driver_Gear.c ****         } 
1435:.\Generated_Source\PSoC5/LED_Driver_Gear.c ****         else
1436:.\Generated_Source\PSoC5/LED_Driver_Gear.c ****         {
1437:.\Generated_Source\PSoC5/LED_Driver_Gear.c ****             #if (LED_Driver_Gear_NUM_SEG > 16u)
1438:.\Generated_Source\PSoC5/LED_Driver_Gear.c ****                 relPosition = position - LED_Driver_Gear_TWO_NUM_COM;
1439:.\Generated_Source\PSoC5/LED_Driver_Gear.c ****                 if(relPosition < LED_Driver_Gear_TWO_NUM_COM)
1440:.\Generated_Source\PSoC5/LED_Driver_Gear.c ****                 {
1441:.\Generated_Source\PSoC5/LED_Driver_Gear.c ****                     LED_Driver_Gear_segHBuffer[relPosition] = LED_Driver_Gear_EncodeNumber7Seg(digi
1442:.\Generated_Source\PSoC5/LED_Driver_Gear.c ****                 }
1443:.\Generated_Source\PSoC5/LED_Driver_Gear.c ****             #endif /* (LED_Driver_Gear_NUM_SEG > 16u) */
1444:.\Generated_Source\PSoC5/LED_Driver_Gear.c ****         }
1445:.\Generated_Source\PSoC5/LED_Driver_Gear.c ****     }
1446:.\Generated_Source\PSoC5/LED_Driver_Gear.c **** }
1447:.\Generated_Source\PSoC5/LED_Driver_Gear.c **** 
1448:.\Generated_Source\PSoC5/LED_Driver_Gear.c **** 
1449:.\Generated_Source\PSoC5/LED_Driver_Gear.c **** /*******************************************************************************
1450:.\Generated_Source\PSoC5/LED_Driver_Gear.c **** * Function Name: LED_Driver_Gear_Write7SegDigitHex
1451:.\Generated_Source\PSoC5/LED_Driver_Gear.c **** ********************************************************************************
1452:.\Generated_Source\PSoC5/LED_Driver_Gear.c **** *
1453:.\Generated_Source\PSoC5/LED_Driver_Gear.c **** * Summary:
1454:.\Generated_Source\PSoC5/LED_Driver_Gear.c **** *  Displays a single digit at the specified position. The number in 'digit' 
1455:.\Generated_Source\PSoC5/LED_Driver_Gear.c **** *  (0-F) is placed on 'position'.
1456:.\Generated_Source\PSoC5/LED_Driver_Gear.c **** *
1457:.\Generated_Source\PSoC5/LED_Driver_Gear.c **** * Parameters:
1458:.\Generated_Source\PSoC5/LED_Driver_Gear.c **** *  uint8 digit: A number between 0x0 and 0xF (0 to 15)
1459:.\Generated_Source\PSoC5/LED_Driver_Gear.c **** *  uint8 position: The position in which to place the number.
1460:.\Generated_Source\PSoC5/LED_Driver_Gear.c **** *
1461:.\Generated_Source\PSoC5/LED_Driver_Gear.c **** * Return:
1462:.\Generated_Source\PSoC5/LED_Driver_Gear.c **** *  None
1463:.\Generated_Source\PSoC5/LED_Driver_Gear.c **** *
1464:.\Generated_Source\PSoC5/LED_Driver_Gear.c **** * Side effects:
1465:.\Generated_Source\PSoC5/LED_Driver_Gear.c **** *  None
1466:.\Generated_Source\PSoC5/LED_Driver_Gear.c **** *
1467:.\Generated_Source\PSoC5/LED_Driver_Gear.c **** *******************************************************************************/
1468:.\Generated_Source\PSoC5/LED_Driver_Gear.c **** void LED_Driver_Gear_Write7SegDigitHex(uint8 digit, uint8 position)
1469:.\Generated_Source\PSoC5/LED_Driver_Gear.c **** 
1470:.\Generated_Source\PSoC5/LED_Driver_Gear.c **** {
1471:.\Generated_Source\PSoC5/LED_Driver_Gear.c ****     uint8 relPosition;
1472:.\Generated_Source\PSoC5/LED_Driver_Gear.c ****     
1473:.\Generated_Source\PSoC5/LED_Driver_Gear.c ****     if(position < LED_Driver_Gear_NUM_COM)
1474:.\Generated_Source\PSoC5/LED_Driver_Gear.c ****     {
1475:.\Generated_Source\PSoC5/LED_Driver_Gear.c ****         relPosition = position;
1476:.\Generated_Source\PSoC5/LED_Driver_Gear.c ****         LED_Driver_Gear_segLBuffer[relPosition] = LED_Driver_Gear_EncodeNumber7Seg(digit);
1477:.\Generated_Source\PSoC5/LED_Driver_Gear.c ****     }    
1478:.\Generated_Source\PSoC5/LED_Driver_Gear.c ****     else if (position < LED_Driver_Gear_TWO_NUM_COM)
1479:.\Generated_Source\PSoC5/LED_Driver_Gear.c ****     {
1480:.\Generated_Source\PSoC5/LED_Driver_Gear.c ****         #if (LED_Driver_Gear_NUM_SEG > 8u) 
1481:.\Generated_Source\PSoC5/LED_Driver_Gear.c ****             relPosition = position - LED_Driver_Gear_NUM_COM;
1482:.\Generated_Source\PSoC5/LED_Driver_Gear.c ****             LED_Driver_Gear_segMBuffer[relPosition] = LED_Driver_Gear_EncodeNumber7Seg(digit);
1483:.\Generated_Source\PSoC5/LED_Driver_Gear.c ****         #endif /* (LED_Driver_Gear_NUM_SEG > 8u) */
1484:.\Generated_Source\PSoC5/LED_Driver_Gear.c ****     }
1485:.\Generated_Source\PSoC5/LED_Driver_Gear.c ****     else
1486:.\Generated_Source\PSoC5/LED_Driver_Gear.c ****     {
1487:.\Generated_Source\PSoC5/LED_Driver_Gear.c ****         #if (LED_Driver_Gear_NUM_SEG > 16u)
1488:.\Generated_Source\PSoC5/LED_Driver_Gear.c ****             relPosition = position - LED_Driver_Gear_TWO_NUM_COM;
1489:.\Generated_Source\PSoC5/LED_Driver_Gear.c ****             if(relPosition < LED_Driver_Gear_NUM_COM)
1490:.\Generated_Source\PSoC5/LED_Driver_Gear.c ****             {
ARM GAS  C:\Users\charl\AppData\Local\Temp\ccxfbC9q.s 			page 43


1491:.\Generated_Source\PSoC5/LED_Driver_Gear.c ****                 LED_Driver_Gear_segHBuffer[relPosition] = LED_Driver_Gear_EncodeNumber7Seg(digit);
1492:.\Generated_Source\PSoC5/LED_Driver_Gear.c ****             }
1493:.\Generated_Source\PSoC5/LED_Driver_Gear.c ****         #endif /* (LED_Driver_Gear_NUM_SEG > 16u) */
1494:.\Generated_Source\PSoC5/LED_Driver_Gear.c ****     }
1495:.\Generated_Source\PSoC5/LED_Driver_Gear.c **** }
1496:.\Generated_Source\PSoC5/LED_Driver_Gear.c **** 
1497:.\Generated_Source\PSoC5/LED_Driver_Gear.c **** 
1498:.\Generated_Source\PSoC5/LED_Driver_Gear.c **** /*******************************************************************************
1499:.\Generated_Source\PSoC5/LED_Driver_Gear.c **** * Function Name: LED_Driver_Gear_Write14SegNumberDec
1500:.\Generated_Source\PSoC5/LED_Driver_Gear.c **** ********************************************************************************
1501:.\Generated_Source\PSoC5/LED_Driver_Gear.c **** *
1502:.\Generated_Source\PSoC5/LED_Driver_Gear.c **** * Summary:
1503:.\Generated_Source\PSoC5/LED_Driver_Gear.c **** *  Displays a signed integer up to 8 characters long, starting at 'position' and
1504:.\Generated_Source\PSoC5/LED_Driver_Gear.c **** *  extending for 'digits' characters. The negative sign will take an extra digit
1505:.\Generated_Source\PSoC5/LED_Driver_Gear.c **** *  if it is required. If you do not use the correct number of digits for your 
1506:.\Generated_Source\PSoC5/LED_Driver_Gear.c **** *  number, only the least significant digits will be displayed.
1507:.\Generated_Source\PSoC5/LED_Driver_Gear.c **** *
1508:.\Generated_Source\PSoC5/LED_Driver_Gear.c **** * Parameters:
1509:.\Generated_Source\PSoC5/LED_Driver_Gear.c **** *  int32 number: a signed integer number to display. It is the responsibility 
1510:.\Generated_Source\PSoC5/LED_Driver_Gear.c **** *                of the user to ensure that the display has enough digits to 
1511:.\Generated_Source\PSoC5/LED_Driver_Gear.c **** *                accurately represent the number passed to this function. Note 
1512:.\Generated_Source\PSoC5/LED_Driver_Gear.c **** *                that a negative number will require 1 more digit than the 
1513:.\Generated_Source\PSoC5/LED_Driver_Gear.c **** *                equivalent positive number to display the negative sign.
1514:.\Generated_Source\PSoC5/LED_Driver_Gear.c **** *  uint8 position: Digit position of the Display/Common RAM to start.
1515:.\Generated_Source\PSoC5/LED_Driver_Gear.c **** *  uint8 digits: The number of digits you wish to use to display the value 
1516:.\Generated_Source\PSoC5/LED_Driver_Gear.c **** *                passed into the function. The negative sign will take an extra
1517:.\Generated_Source\PSoC5/LED_Driver_Gear.c **** *                digit if it is required.
1518:.\Generated_Source\PSoC5/LED_Driver_Gear.c **** *  uint8 alignment: How to align the provided number in the allocated digits.
1519:.\Generated_Source\PSoC5/LED_Driver_Gear.c **** *       RIGHT_ALIGN - Least significant digit occupies the rightmost digit
1520:.\Generated_Source\PSoC5/LED_Driver_Gear.c **** *                     (position + digits). Unused digits are turned off unless
1521:.\Generated_Source\PSoC5/LED_Driver_Gear.c **** *                     ZERO_PAD enabled.
1522:.\Generated_Source\PSoC5/LED_Driver_Gear.c **** *       LEFT_ALIGN - Most significant digit (or negative sign) occupies the
1523:.\Generated_Source\PSoC5/LED_Driver_Gear.c **** *                    digit specified by position. Unused digits are turned off.
1524:.\Generated_Source\PSoC5/LED_Driver_Gear.c **** *       ZERO_PAD - Unused digits to the left are padded with leading zeros.
1525:.\Generated_Source\PSoC5/LED_Driver_Gear.c **** * Return:
1526:.\Generated_Source\PSoC5/LED_Driver_Gear.c **** *  None
1527:.\Generated_Source\PSoC5/LED_Driver_Gear.c **** *
1528:.\Generated_Source\PSoC5/LED_Driver_Gear.c **** * Side effects:
1529:.\Generated_Source\PSoC5/LED_Driver_Gear.c **** *  None
1530:.\Generated_Source\PSoC5/LED_Driver_Gear.c **** *
1531:.\Generated_Source\PSoC5/LED_Driver_Gear.c **** *******************************************************************************/
1532:.\Generated_Source\PSoC5/LED_Driver_Gear.c **** void LED_Driver_Gear_Write14SegNumberDec(int32 number, uint8 position, uint8 digits, uint8 alignmen
1533:.\Generated_Source\PSoC5/LED_Driver_Gear.c **** 
1534:.\Generated_Source\PSoC5/LED_Driver_Gear.c **** {
1535:.\Generated_Source\PSoC5/LED_Driver_Gear.c ****     uint8 i;
1536:.\Generated_Source\PSoC5/LED_Driver_Gear.c ****     uint8 relPosition;
1537:.\Generated_Source\PSoC5/LED_Driver_Gear.c ****     uint8 numberSign;
1538:.\Generated_Source\PSoC5/LED_Driver_Gear.c ****     uint8 selectVal;
1539:.\Generated_Source\PSoC5/LED_Driver_Gear.c ****     uint8 zeroCount = 0u;
1540:.\Generated_Source\PSoC5/LED_Driver_Gear.c ****     uint16 bufArray[8u] = {0u};
1541:.\Generated_Source\PSoC5/LED_Driver_Gear.c ****     uint32 numberVal;
1542:.\Generated_Source\PSoC5/LED_Driver_Gear.c ****         
1543:.\Generated_Source\PSoC5/LED_Driver_Gear.c ****     /* Routine to extract the sign and to convert to unsigned */
1544:.\Generated_Source\PSoC5/LED_Driver_Gear.c ****     if(number >= LED_Driver_Gear_ZERO_NEG)
1545:.\Generated_Source\PSoC5/LED_Driver_Gear.c ****     {
1546:.\Generated_Source\PSoC5/LED_Driver_Gear.c ****         numberVal = (uint32)number;
1547:.\Generated_Source\PSoC5/LED_Driver_Gear.c ****         numberSign = LED_Driver_Gear_UNSIGNED;
ARM GAS  C:\Users\charl\AppData\Local\Temp\ccxfbC9q.s 			page 44


1548:.\Generated_Source\PSoC5/LED_Driver_Gear.c ****     }
1549:.\Generated_Source\PSoC5/LED_Driver_Gear.c ****     else
1550:.\Generated_Source\PSoC5/LED_Driver_Gear.c ****     {
1551:.\Generated_Source\PSoC5/LED_Driver_Gear.c ****         numberVal = (uint32)(-number);
1552:.\Generated_Source\PSoC5/LED_Driver_Gear.c ****         numberSign = LED_Driver_Gear_SIGNED;
1553:.\Generated_Source\PSoC5/LED_Driver_Gear.c ****     }
1554:.\Generated_Source\PSoC5/LED_Driver_Gear.c ****     
1555:.\Generated_Source\PSoC5/LED_Driver_Gear.c ****     /* Fill up the temporary array */
1556:.\Generated_Source\PSoC5/LED_Driver_Gear.c ****     for(i = digits; i > 0u; i--)
1557:.\Generated_Source\PSoC5/LED_Driver_Gear.c ****     {
1558:.\Generated_Source\PSoC5/LED_Driver_Gear.c ****         selectVal = (uint8)(numberVal % 10u);
1559:.\Generated_Source\PSoC5/LED_Driver_Gear.c ****         bufArray[i-1u] = LED_Driver_Gear_EncodeNumber14Seg(selectVal);
1560:.\Generated_Source\PSoC5/LED_Driver_Gear.c ****         numberVal = numberVal / 10u;
1561:.\Generated_Source\PSoC5/LED_Driver_Gear.c ****     }
1562:.\Generated_Source\PSoC5/LED_Driver_Gear.c ****     
1563:.\Generated_Source\PSoC5/LED_Driver_Gear.c ****     /* Clean up the array and place sign if needed */
1564:.\Generated_Source\PSoC5/LED_Driver_Gear.c ****     if(alignment == LED_Driver_Gear_ZERO_PAD)
1565:.\Generated_Source\PSoC5/LED_Driver_Gear.c ****     {
1566:.\Generated_Source\PSoC5/LED_Driver_Gear.c ****         if(numberSign == LED_Driver_Gear_SIGNED)
1567:.\Generated_Source\PSoC5/LED_Driver_Gear.c ****         {
1568:.\Generated_Source\PSoC5/LED_Driver_Gear.c ****             /* Place sign on the MSB */
1569:.\Generated_Source\PSoC5/LED_Driver_Gear.c ****             bufArray[0u] = LED_Driver_Gear_EncodeChar14Seg('-');
1570:.\Generated_Source\PSoC5/LED_Driver_Gear.c ****         }
1571:.\Generated_Source\PSoC5/LED_Driver_Gear.c ****     }
1572:.\Generated_Source\PSoC5/LED_Driver_Gear.c ****     else
1573:.\Generated_Source\PSoC5/LED_Driver_Gear.c ****     {
1574:.\Generated_Source\PSoC5/LED_Driver_Gear.c ****         for(i = 0u; i < digits; i++)
1575:.\Generated_Source\PSoC5/LED_Driver_Gear.c ****         {
1576:.\Generated_Source\PSoC5/LED_Driver_Gear.c ****             if (bufArray[i] != LED_Driver_Gear_ZERO_14CHAR)
1577:.\Generated_Source\PSoC5/LED_Driver_Gear.c ****             {
1578:.\Generated_Source\PSoC5/LED_Driver_Gear.c ****                 if(numberSign == LED_Driver_Gear_SIGNED)
1579:.\Generated_Source\PSoC5/LED_Driver_Gear.c ****                 {
1580:.\Generated_Source\PSoC5/LED_Driver_Gear.c ****                     if(i == 0u)
1581:.\Generated_Source\PSoC5/LED_Driver_Gear.c ****                     {
1582:.\Generated_Source\PSoC5/LED_Driver_Gear.c ****                         /* Place sign on the MSB */
1583:.\Generated_Source\PSoC5/LED_Driver_Gear.c ****                         bufArray[i] = LED_Driver_Gear_EncodeChar14Seg('-');
1584:.\Generated_Source\PSoC5/LED_Driver_Gear.c ****                     }
1585:.\Generated_Source\PSoC5/LED_Driver_Gear.c ****                     else
1586:.\Generated_Source\PSoC5/LED_Driver_Gear.c ****                     {
1587:.\Generated_Source\PSoC5/LED_Driver_Gear.c ****                         /* Place sign before MSB */
1588:.\Generated_Source\PSoC5/LED_Driver_Gear.c ****                         bufArray[i-1u] = LED_Driver_Gear_EncodeChar14Seg('-');
1589:.\Generated_Source\PSoC5/LED_Driver_Gear.c ****                     }
1590:.\Generated_Source\PSoC5/LED_Driver_Gear.c ****                 }
1591:.\Generated_Source\PSoC5/LED_Driver_Gear.c ****                 /* Exit when encountering non-zero number */
1592:.\Generated_Source\PSoC5/LED_Driver_Gear.c ****                 break;
1593:.\Generated_Source\PSoC5/LED_Driver_Gear.c ****             }
1594:.\Generated_Source\PSoC5/LED_Driver_Gear.c ****             else
1595:.\Generated_Source\PSoC5/LED_Driver_Gear.c ****             {
1596:.\Generated_Source\PSoC5/LED_Driver_Gear.c ****                 if(zeroCount != (digits - 1u))
1597:.\Generated_Source\PSoC5/LED_Driver_Gear.c ****                 {
1598:.\Generated_Source\PSoC5/LED_Driver_Gear.c ****                     /* Turn off the display */
1599:.\Generated_Source\PSoC5/LED_Driver_Gear.c ****                     bufArray[i] = LED_Driver_Gear_CLEAR_16;
1600:.\Generated_Source\PSoC5/LED_Driver_Gear.c ****                     zeroCount++;
1601:.\Generated_Source\PSoC5/LED_Driver_Gear.c ****                 }
1602:.\Generated_Source\PSoC5/LED_Driver_Gear.c ****             }    
1603:.\Generated_Source\PSoC5/LED_Driver_Gear.c ****         }
1604:.\Generated_Source\PSoC5/LED_Driver_Gear.c ****     }
ARM GAS  C:\Users\charl\AppData\Local\Temp\ccxfbC9q.s 			page 45


1605:.\Generated_Source\PSoC5/LED_Driver_Gear.c ****     
1606:.\Generated_Source\PSoC5/LED_Driver_Gear.c ****     relPosition = position;
1607:.\Generated_Source\PSoC5/LED_Driver_Gear.c ****     
1608:.\Generated_Source\PSoC5/LED_Driver_Gear.c ****     /* Place the values in the segment array according to alignment */
1609:.\Generated_Source\PSoC5/LED_Driver_Gear.c ****     if(alignment == LED_Driver_Gear_LEFT_ALIGN)
1610:.\Generated_Source\PSoC5/LED_Driver_Gear.c ****     {
1611:.\Generated_Source\PSoC5/LED_Driver_Gear.c ****         for(i = 0u; i < digits; i++)
1612:.\Generated_Source\PSoC5/LED_Driver_Gear.c ****         {
1613:.\Generated_Source\PSoC5/LED_Driver_Gear.c ****             if(bufArray[i] != LED_Driver_Gear_CLEAR_16)
1614:.\Generated_Source\PSoC5/LED_Driver_Gear.c ****             {
1615:.\Generated_Source\PSoC5/LED_Driver_Gear.c ****                 if(relPosition < LED_Driver_Gear_NUM_COM)
1616:.\Generated_Source\PSoC5/LED_Driver_Gear.c ****                 {
1617:.\Generated_Source\PSoC5/LED_Driver_Gear.c ****                     /* Only show displays that are not empty */
1618:.\Generated_Source\PSoC5/LED_Driver_Gear.c ****                     LED_Driver_Gear_segLBuffer[relPosition] = LO8(bufArray[i]);
1619:.\Generated_Source\PSoC5/LED_Driver_Gear.c ****                 #if (LED_Driver_Gear_NUM_SEG > 8u)
1620:.\Generated_Source\PSoC5/LED_Driver_Gear.c ****                     LED_Driver_Gear_segMBuffer[relPosition] = HI8(bufArray[i]);
1621:.\Generated_Source\PSoC5/LED_Driver_Gear.c ****                 #endif /* (LED_Driver_Gear_NUM_SEG > 8u) */
1622:.\Generated_Source\PSoC5/LED_Driver_Gear.c ****                 }
1623:.\Generated_Source\PSoC5/LED_Driver_Gear.c ****                 relPosition++;
1624:.\Generated_Source\PSoC5/LED_Driver_Gear.c ****             }
1625:.\Generated_Source\PSoC5/LED_Driver_Gear.c ****         }
1626:.\Generated_Source\PSoC5/LED_Driver_Gear.c ****         /* Clear the rest of the positions to the right of value */
1627:.\Generated_Source\PSoC5/LED_Driver_Gear.c ****         while(relPosition < digits)
1628:.\Generated_Source\PSoC5/LED_Driver_Gear.c ****         {
1629:.\Generated_Source\PSoC5/LED_Driver_Gear.c ****             /* Only show displays that are not empty */
1630:.\Generated_Source\PSoC5/LED_Driver_Gear.c ****             LED_Driver_Gear_segLBuffer[relPosition] = LED_Driver_Gear_CLEAR;
1631:.\Generated_Source\PSoC5/LED_Driver_Gear.c ****             #if (LED_Driver_Gear_NUM_SEG > 8u)
1632:.\Generated_Source\PSoC5/LED_Driver_Gear.c ****                 LED_Driver_Gear_segMBuffer[relPosition] = LED_Driver_Gear_CLEAR;
1633:.\Generated_Source\PSoC5/LED_Driver_Gear.c ****             #endif /* (LED_Driver_Gear_NUM_SEG > 8u) */
1634:.\Generated_Source\PSoC5/LED_Driver_Gear.c ****             
1635:.\Generated_Source\PSoC5/LED_Driver_Gear.c ****             relPosition++;
1636:.\Generated_Source\PSoC5/LED_Driver_Gear.c ****         }
1637:.\Generated_Source\PSoC5/LED_Driver_Gear.c ****     }
1638:.\Generated_Source\PSoC5/LED_Driver_Gear.c ****     else
1639:.\Generated_Source\PSoC5/LED_Driver_Gear.c ****     {
1640:.\Generated_Source\PSoC5/LED_Driver_Gear.c ****         for(i = digits; i > 0u; i--)
1641:.\Generated_Source\PSoC5/LED_Driver_Gear.c ****         {
1642:.\Generated_Source\PSoC5/LED_Driver_Gear.c ****             if(((i + relPosition) - 1u) < LED_Driver_Gear_NUM_COM)
1643:.\Generated_Source\PSoC5/LED_Driver_Gear.c ****             {
1644:.\Generated_Source\PSoC5/LED_Driver_Gear.c ****                 LED_Driver_Gear_segLBuffer[(i + relPosition) - 1u] = LO8(bufArray[i-1u]);
1645:.\Generated_Source\PSoC5/LED_Driver_Gear.c ****             #if (LED_Driver_Gear_NUM_SEG > 8u)
1646:.\Generated_Source\PSoC5/LED_Driver_Gear.c ****                 LED_Driver_Gear_segMBuffer[(i + relPosition) - 1u] = HI8(bufArray[i-1u]);
1647:.\Generated_Source\PSoC5/LED_Driver_Gear.c ****             #endif /* (LED_Driver_Gear_NUM_SEG > 8u) */
1648:.\Generated_Source\PSoC5/LED_Driver_Gear.c ****             }
1649:.\Generated_Source\PSoC5/LED_Driver_Gear.c ****         }  
1650:.\Generated_Source\PSoC5/LED_Driver_Gear.c ****     }
1651:.\Generated_Source\PSoC5/LED_Driver_Gear.c **** }
1652:.\Generated_Source\PSoC5/LED_Driver_Gear.c **** 
1653:.\Generated_Source\PSoC5/LED_Driver_Gear.c **** 
1654:.\Generated_Source\PSoC5/LED_Driver_Gear.c **** /*******************************************************************************
1655:.\Generated_Source\PSoC5/LED_Driver_Gear.c **** * Function Name: LED_Driver_Gear_Write14SegNumberHex
1656:.\Generated_Source\PSoC5/LED_Driver_Gear.c **** ********************************************************************************
1657:.\Generated_Source\PSoC5/LED_Driver_Gear.c **** *
1658:.\Generated_Source\PSoC5/LED_Driver_Gear.c **** * Summary:
1659:.\Generated_Source\PSoC5/LED_Driver_Gear.c **** *  Displays a hexadecimal number up to 8 characters long, starting at 'position'
1660:.\Generated_Source\PSoC5/LED_Driver_Gear.c **** *  and extending for 'digits' characters. If you do not use the correct number
1661:.\Generated_Source\PSoC5/LED_Driver_Gear.c **** *  of digits for your number, the least significant digits will be displayed. 
ARM GAS  C:\Users\charl\AppData\Local\Temp\ccxfbC9q.s 			page 46


1662:.\Generated_Source\PSoC5/LED_Driver_Gear.c **** *  For example, if value is 0xDEADBEEF, display is 0 and digits is 4, the result
1663:.\Generated_Source\PSoC5/LED_Driver_Gear.c **** *  will be: BEEF.
1664:.\Generated_Source\PSoC5/LED_Driver_Gear.c **** *
1665:.\Generated_Source\PSoC5/LED_Driver_Gear.c **** * Parameters:
1666:.\Generated_Source\PSoC5/LED_Driver_Gear.c **** *  uint32 number: The hexadecimal number to display. It is the responsibility 
1667:.\Generated_Source\PSoC5/LED_Driver_Gear.c **** *                 of the user to ensure that the display has enough digits to 
1668:.\Generated_Source\PSoC5/LED_Driver_Gear.c **** *                 accurately represent the number passed to this function. If 
1669:.\Generated_Source\PSoC5/LED_Driver_Gear.c **** *                 not, only the least significant digits will be displayed.
1670:.\Generated_Source\PSoC5/LED_Driver_Gear.c **** *  uint8 position: Position of the Display/Common to start number.
1671:.\Generated_Source\PSoC5/LED_Driver_Gear.c **** *  uint8 digits: The number of digits you wish to use to display the value 
1672:.\Generated_Source\PSoC5/LED_Driver_Gear.c **** *                passed into the function. If you do not use the correct number
1673:.\Generated_Source\PSoC5/LED_Driver_Gear.c **** *                of digits for your number, the least significant digits will 
1674:.\Generated_Source\PSoC5/LED_Driver_Gear.c **** *                be displayed.
1675:.\Generated_Source\PSoC5/LED_Driver_Gear.c **** *  uint8 alignment: How to align the provided number in the allocated digits.
1676:.\Generated_Source\PSoC5/LED_Driver_Gear.c **** *       RIGHT_ALIGN - Least significant digit occupies the rightmost digit
1677:.\Generated_Source\PSoC5/LED_Driver_Gear.c **** *                     (position + digits). Unused digits are turned off unless
1678:.\Generated_Source\PSoC5/LED_Driver_Gear.c **** *                     ZERO_PAD enabled.
1679:.\Generated_Source\PSoC5/LED_Driver_Gear.c **** *       LEFT_ALIGN - Most significant digit (or negative sign) occupies the
1680:.\Generated_Source\PSoC5/LED_Driver_Gear.c **** *                    digit specified by position. Unused digits are turned off.
1681:.\Generated_Source\PSoC5/LED_Driver_Gear.c **** *       ZERO_PAD - Unused digits to the left are padded with leading zeros.
1682:.\Generated_Source\PSoC5/LED_Driver_Gear.c **** * Return:
1683:.\Generated_Source\PSoC5/LED_Driver_Gear.c **** *  None
1684:.\Generated_Source\PSoC5/LED_Driver_Gear.c **** *
1685:.\Generated_Source\PSoC5/LED_Driver_Gear.c **** * Side effects:
1686:.\Generated_Source\PSoC5/LED_Driver_Gear.c **** *  None
1687:.\Generated_Source\PSoC5/LED_Driver_Gear.c **** *
1688:.\Generated_Source\PSoC5/LED_Driver_Gear.c **** *******************************************************************************/
1689:.\Generated_Source\PSoC5/LED_Driver_Gear.c **** void LED_Driver_Gear_Write14SegNumberHex(uint32 number, uint8 position, uint8 digits, uint8 alignme
1690:.\Generated_Source\PSoC5/LED_Driver_Gear.c **** 
1691:.\Generated_Source\PSoC5/LED_Driver_Gear.c **** {
1692:.\Generated_Source\PSoC5/LED_Driver_Gear.c ****     uint8 i;
1693:.\Generated_Source\PSoC5/LED_Driver_Gear.c ****     uint8 relPosition;
1694:.\Generated_Source\PSoC5/LED_Driver_Gear.c ****     uint8 selectVal;
1695:.\Generated_Source\PSoC5/LED_Driver_Gear.c ****     uint16 bufArray[8u] = {0u};
1696:.\Generated_Source\PSoC5/LED_Driver_Gear.c ****     uint32 numberVal;
1697:.\Generated_Source\PSoC5/LED_Driver_Gear.c ****     
1698:.\Generated_Source\PSoC5/LED_Driver_Gear.c ****     numberVal = number;
1699:.\Generated_Source\PSoC5/LED_Driver_Gear.c ****     
1700:.\Generated_Source\PSoC5/LED_Driver_Gear.c ****     /* Fill up the temporary array */
1701:.\Generated_Source\PSoC5/LED_Driver_Gear.c ****     for(i = digits; i > 0u; i--)
1702:.\Generated_Source\PSoC5/LED_Driver_Gear.c ****     {
1703:.\Generated_Source\PSoC5/LED_Driver_Gear.c ****         selectVal = (uint8)((uint8)numberVal & LED_Driver_Gear_NIBBLE_MASK);
1704:.\Generated_Source\PSoC5/LED_Driver_Gear.c ****         bufArray[i-1u] = LED_Driver_Gear_EncodeNumber14Seg(selectVal);
1705:.\Generated_Source\PSoC5/LED_Driver_Gear.c ****         numberVal = (uint32)((uint32)numberVal >> LED_Driver_Gear_SHIFT_NIBBLE);
1706:.\Generated_Source\PSoC5/LED_Driver_Gear.c ****     }
1707:.\Generated_Source\PSoC5/LED_Driver_Gear.c ****     
1708:.\Generated_Source\PSoC5/LED_Driver_Gear.c ****     /* Clean up the array */
1709:.\Generated_Source\PSoC5/LED_Driver_Gear.c ****     for(i = 0u; i < digits; i++)
1710:.\Generated_Source\PSoC5/LED_Driver_Gear.c ****     {
1711:.\Generated_Source\PSoC5/LED_Driver_Gear.c ****         if (bufArray[i] != LED_Driver_Gear_ZERO_14CHAR)
1712:.\Generated_Source\PSoC5/LED_Driver_Gear.c ****         {
1713:.\Generated_Source\PSoC5/LED_Driver_Gear.c ****             /* Exit when encountering non-zero number */
1714:.\Generated_Source\PSoC5/LED_Driver_Gear.c ****             break;
1715:.\Generated_Source\PSoC5/LED_Driver_Gear.c ****         }
1716:.\Generated_Source\PSoC5/LED_Driver_Gear.c ****         else
1717:.\Generated_Source\PSoC5/LED_Driver_Gear.c ****         {
1718:.\Generated_Source\PSoC5/LED_Driver_Gear.c ****             /* Turn off the display */
ARM GAS  C:\Users\charl\AppData\Local\Temp\ccxfbC9q.s 			page 47


1719:.\Generated_Source\PSoC5/LED_Driver_Gear.c ****             bufArray[i] = LED_Driver_Gear_CLEAR_16;
1720:.\Generated_Source\PSoC5/LED_Driver_Gear.c ****         }    
1721:.\Generated_Source\PSoC5/LED_Driver_Gear.c ****     }
1722:.\Generated_Source\PSoC5/LED_Driver_Gear.c ****     
1723:.\Generated_Source\PSoC5/LED_Driver_Gear.c ****     relPosition = position;
1724:.\Generated_Source\PSoC5/LED_Driver_Gear.c ****     
1725:.\Generated_Source\PSoC5/LED_Driver_Gear.c ****     /* Place the values in the segment array according to alignment */
1726:.\Generated_Source\PSoC5/LED_Driver_Gear.c ****     if(alignment == LED_Driver_Gear_LEFT_ALIGN)
1727:.\Generated_Source\PSoC5/LED_Driver_Gear.c ****     {
1728:.\Generated_Source\PSoC5/LED_Driver_Gear.c ****         for(i = 0u; i < digits; i++)
1729:.\Generated_Source\PSoC5/LED_Driver_Gear.c ****         {
1730:.\Generated_Source\PSoC5/LED_Driver_Gear.c ****             if(bufArray[i] != LED_Driver_Gear_CLEAR_16)
1731:.\Generated_Source\PSoC5/LED_Driver_Gear.c ****             {
1732:.\Generated_Source\PSoC5/LED_Driver_Gear.c ****                 if(relPosition < LED_Driver_Gear_NUM_COM)
1733:.\Generated_Source\PSoC5/LED_Driver_Gear.c ****                 {
1734:.\Generated_Source\PSoC5/LED_Driver_Gear.c ****                     /* Only show displays that are not empty */
1735:.\Generated_Source\PSoC5/LED_Driver_Gear.c ****                     LED_Driver_Gear_segLBuffer[relPosition] = LO8(bufArray[i]);
1736:.\Generated_Source\PSoC5/LED_Driver_Gear.c ****                 #if (LED_Driver_Gear_NUM_SEG > 8u)
1737:.\Generated_Source\PSoC5/LED_Driver_Gear.c ****                     LED_Driver_Gear_segMBuffer[relPosition] = HI8(bufArray[i]);
1738:.\Generated_Source\PSoC5/LED_Driver_Gear.c ****                 #endif /* (LED_Driver_Gear_NUM_SEG > 8u) */
1739:.\Generated_Source\PSoC5/LED_Driver_Gear.c ****                 }
1740:.\Generated_Source\PSoC5/LED_Driver_Gear.c ****                 relPosition++;
1741:.\Generated_Source\PSoC5/LED_Driver_Gear.c ****             }
1742:.\Generated_Source\PSoC5/LED_Driver_Gear.c ****         }
1743:.\Generated_Source\PSoC5/LED_Driver_Gear.c ****         /* Clear the rest of the positions to the right of value */
1744:.\Generated_Source\PSoC5/LED_Driver_Gear.c ****         while(relPosition < digits)
1745:.\Generated_Source\PSoC5/LED_Driver_Gear.c ****         {
1746:.\Generated_Source\PSoC5/LED_Driver_Gear.c ****             /* Only show displays that are not empty */
1747:.\Generated_Source\PSoC5/LED_Driver_Gear.c ****             LED_Driver_Gear_segLBuffer[relPosition] = LED_Driver_Gear_CLEAR;
1748:.\Generated_Source\PSoC5/LED_Driver_Gear.c ****             #if (LED_Driver_Gear_NUM_SEG > 8u)
1749:.\Generated_Source\PSoC5/LED_Driver_Gear.c ****                 LED_Driver_Gear_segMBuffer[relPosition] = LED_Driver_Gear_CLEAR;
1750:.\Generated_Source\PSoC5/LED_Driver_Gear.c ****             #endif /* (LED_Driver_Gear_NUM_SEG > 8u) */
1751:.\Generated_Source\PSoC5/LED_Driver_Gear.c ****             
1752:.\Generated_Source\PSoC5/LED_Driver_Gear.c ****             relPosition++;
1753:.\Generated_Source\PSoC5/LED_Driver_Gear.c ****         }
1754:.\Generated_Source\PSoC5/LED_Driver_Gear.c ****     }
1755:.\Generated_Source\PSoC5/LED_Driver_Gear.c ****     else
1756:.\Generated_Source\PSoC5/LED_Driver_Gear.c ****     {
1757:.\Generated_Source\PSoC5/LED_Driver_Gear.c ****         for(i = digits; i > 0u; i--)
1758:.\Generated_Source\PSoC5/LED_Driver_Gear.c ****         {
1759:.\Generated_Source\PSoC5/LED_Driver_Gear.c ****             if(((i + relPosition) - 1u) < LED_Driver_Gear_NUM_COM)
1760:.\Generated_Source\PSoC5/LED_Driver_Gear.c ****             {
1761:.\Generated_Source\PSoC5/LED_Driver_Gear.c ****                 LED_Driver_Gear_segLBuffer[(i + relPosition) - 1u] = LO8(bufArray[i-1u]);
1762:.\Generated_Source\PSoC5/LED_Driver_Gear.c ****             #if (LED_Driver_Gear_NUM_SEG > 8u)
1763:.\Generated_Source\PSoC5/LED_Driver_Gear.c ****                 LED_Driver_Gear_segMBuffer[(i + relPosition) - 1u] = HI8(bufArray[i-1u]);
1764:.\Generated_Source\PSoC5/LED_Driver_Gear.c ****             #endif /* (LED_Driver_Gear_NUM_SEG > 8u) */
1765:.\Generated_Source\PSoC5/LED_Driver_Gear.c ****             }
1766:.\Generated_Source\PSoC5/LED_Driver_Gear.c ****         }  
1767:.\Generated_Source\PSoC5/LED_Driver_Gear.c ****     }
1768:.\Generated_Source\PSoC5/LED_Driver_Gear.c **** }
1769:.\Generated_Source\PSoC5/LED_Driver_Gear.c **** 
1770:.\Generated_Source\PSoC5/LED_Driver_Gear.c **** 
1771:.\Generated_Source\PSoC5/LED_Driver_Gear.c **** /*******************************************************************************
1772:.\Generated_Source\PSoC5/LED_Driver_Gear.c **** * Function Name: LED_Driver_Gear_WriteString14Seg
1773:.\Generated_Source\PSoC5/LED_Driver_Gear.c **** ********************************************************************************
1774:.\Generated_Source\PSoC5/LED_Driver_Gear.c **** *
1775:.\Generated_Source\PSoC5/LED_Driver_Gear.c **** * Summary:
ARM GAS  C:\Users\charl\AppData\Local\Temp\ccxfbC9q.s 			page 48


1776:.\Generated_Source\PSoC5/LED_Driver_Gear.c **** *  Displays a null terminated string starting at 'position' and ending at 
1777:.\Generated_Source\PSoC5/LED_Driver_Gear.c **** *  either the  the string or the  the display. The displayable 
1778:.\Generated_Source\PSoC5/LED_Driver_Gear.c **** *  characters are the same for the LED_Driver_PutCharacter() function. 
1779:.\Generated_Source\PSoC5/LED_Driver_Gear.c **** *  Non-displayable characters will produce a blank space.
1780:.\Generated_Source\PSoC5/LED_Driver_Gear.c **** *
1781:.\Generated_Source\PSoC5/LED_Driver_Gear.c **** * Parameters:
1782:.\Generated_Source\PSoC5/LED_Driver_Gear.c **** *  char8 const character[]: The null terminated string to be displayed.
1783:.\Generated_Source\PSoC5/LED_Driver_Gear.c **** *  uint8 position: The position to start the string.
1784:.\Generated_Source\PSoC5/LED_Driver_Gear.c **** *
1785:.\Generated_Source\PSoC5/LED_Driver_Gear.c **** * Return:
1786:.\Generated_Source\PSoC5/LED_Driver_Gear.c **** *  None
1787:.\Generated_Source\PSoC5/LED_Driver_Gear.c **** *
1788:.\Generated_Source\PSoC5/LED_Driver_Gear.c **** * Side effects:
1789:.\Generated_Source\PSoC5/LED_Driver_Gear.c **** *  None
1790:.\Generated_Source\PSoC5/LED_Driver_Gear.c **** *
1791:.\Generated_Source\PSoC5/LED_Driver_Gear.c **** *******************************************************************************/
1792:.\Generated_Source\PSoC5/LED_Driver_Gear.c **** void LED_Driver_Gear_WriteString14Seg(char8 const character[], uint8 position)
1793:.\Generated_Source\PSoC5/LED_Driver_Gear.c **** 
1794:.\Generated_Source\PSoC5/LED_Driver_Gear.c **** {
1795:.\Generated_Source\PSoC5/LED_Driver_Gear.c ****     uint8 currPosition;
1796:.\Generated_Source\PSoC5/LED_Driver_Gear.c ****     uint8 sizeLimit;
1797:.\Generated_Source\PSoC5/LED_Driver_Gear.c ****     uint8 i = 0u;
1798:.\Generated_Source\PSoC5/LED_Driver_Gear.c ****     uint16 charDisplay;
1799:.\Generated_Source\PSoC5/LED_Driver_Gear.c ****     
1800:.\Generated_Source\PSoC5/LED_Driver_Gear.c ****     sizeLimit = (uint8)(strlen(character)) + position;
1801:.\Generated_Source\PSoC5/LED_Driver_Gear.c ****     
1802:.\Generated_Source\PSoC5/LED_Driver_Gear.c ****     for(currPosition = position; currPosition < LED_Driver_Gear_NUM_COM; currPosition++)
1803:.\Generated_Source\PSoC5/LED_Driver_Gear.c ****     {
1804:.\Generated_Source\PSoC5/LED_Driver_Gear.c ****         if(currPosition < sizeLimit)
1805:.\Generated_Source\PSoC5/LED_Driver_Gear.c ****         {
1806:.\Generated_Source\PSoC5/LED_Driver_Gear.c ****             charDisplay = LED_Driver_Gear_EncodeChar14Seg(character[i]);
1807:.\Generated_Source\PSoC5/LED_Driver_Gear.c ****             LED_Driver_Gear_segLBuffer[currPosition] = LO8(charDisplay);
1808:.\Generated_Source\PSoC5/LED_Driver_Gear.c ****             #if (LED_Driver_Gear_NUM_SEG > 8u)
1809:.\Generated_Source\PSoC5/LED_Driver_Gear.c ****             LED_Driver_Gear_segMBuffer[currPosition] = HI8(charDisplay);
1810:.\Generated_Source\PSoC5/LED_Driver_Gear.c ****             #endif /* (LED_Driver_Gear_NUM_SEG > 8u) */
1811:.\Generated_Source\PSoC5/LED_Driver_Gear.c ****             i++;
1812:.\Generated_Source\PSoC5/LED_Driver_Gear.c ****         }
1813:.\Generated_Source\PSoC5/LED_Driver_Gear.c ****     }
1814:.\Generated_Source\PSoC5/LED_Driver_Gear.c **** }
1815:.\Generated_Source\PSoC5/LED_Driver_Gear.c **** 
1816:.\Generated_Source\PSoC5/LED_Driver_Gear.c **** 
1817:.\Generated_Source\PSoC5/LED_Driver_Gear.c **** /*******************************************************************************
1818:.\Generated_Source\PSoC5/LED_Driver_Gear.c **** * Function Name: LED_Driver_Gear_PutChar14Seg
1819:.\Generated_Source\PSoC5/LED_Driver_Gear.c **** ********************************************************************************
1820:.\Generated_Source\PSoC5/LED_Driver_Gear.c **** *
1821:.\Generated_Source\PSoC5/LED_Driver_Gear.c **** * Summary:
1822:.\Generated_Source\PSoC5/LED_Driver_Gear.c **** *  Displays an ascii encoded character at 'position'. This function can display
1823:.\Generated_Source\PSoC5/LED_Driver_Gear.c **** *  all alphanumeric characters. The function can also display '-', '.', '_', 
1824:.\Generated_Source\PSoC5/LED_Driver_Gear.c **** *  ' ', and '='. All unknown characters are displayed as a space.
1825:.\Generated_Source\PSoC5/LED_Driver_Gear.c **** *
1826:.\Generated_Source\PSoC5/LED_Driver_Gear.c **** * Parameters:
1827:.\Generated_Source\PSoC5/LED_Driver_Gear.c **** *  char8 character: ASCII character.
1828:.\Generated_Source\PSoC5/LED_Driver_Gear.c **** *  uint8 position: The position of the character.
1829:.\Generated_Source\PSoC5/LED_Driver_Gear.c **** *
1830:.\Generated_Source\PSoC5/LED_Driver_Gear.c **** * Return:
1831:.\Generated_Source\PSoC5/LED_Driver_Gear.c **** *  None
1832:.\Generated_Source\PSoC5/LED_Driver_Gear.c **** *
ARM GAS  C:\Users\charl\AppData\Local\Temp\ccxfbC9q.s 			page 49


1833:.\Generated_Source\PSoC5/LED_Driver_Gear.c **** * Side effects:
1834:.\Generated_Source\PSoC5/LED_Driver_Gear.c **** *  None
1835:.\Generated_Source\PSoC5/LED_Driver_Gear.c **** *
1836:.\Generated_Source\PSoC5/LED_Driver_Gear.c **** *******************************************************************************/
1837:.\Generated_Source\PSoC5/LED_Driver_Gear.c **** void LED_Driver_Gear_PutChar14Seg(char8 character , uint8 position)
1838:.\Generated_Source\PSoC5/LED_Driver_Gear.c **** 
1839:.\Generated_Source\PSoC5/LED_Driver_Gear.c **** {
1840:.\Generated_Source\PSoC5/LED_Driver_Gear.c ****     uint16 charDisplay;
1841:.\Generated_Source\PSoC5/LED_Driver_Gear.c ****     
1842:.\Generated_Source\PSoC5/LED_Driver_Gear.c ****     if(position < LED_Driver_Gear_NUM_COM)
1843:.\Generated_Source\PSoC5/LED_Driver_Gear.c ****     {
1844:.\Generated_Source\PSoC5/LED_Driver_Gear.c ****         charDisplay = LED_Driver_Gear_EncodeChar14Seg(character);
1845:.\Generated_Source\PSoC5/LED_Driver_Gear.c ****         LED_Driver_Gear_segLBuffer[position] = LO8(charDisplay);
1846:.\Generated_Source\PSoC5/LED_Driver_Gear.c ****     #if (LED_Driver_Gear_NUM_SEG > 8u)
1847:.\Generated_Source\PSoC5/LED_Driver_Gear.c ****         LED_Driver_Gear_segMBuffer[position] = HI8(charDisplay);
1848:.\Generated_Source\PSoC5/LED_Driver_Gear.c ****     #endif /* (LED_Driver_Gear_NUM_SEG > 8u) */
1849:.\Generated_Source\PSoC5/LED_Driver_Gear.c ****     }
1850:.\Generated_Source\PSoC5/LED_Driver_Gear.c **** }
1851:.\Generated_Source\PSoC5/LED_Driver_Gear.c **** 
1852:.\Generated_Source\PSoC5/LED_Driver_Gear.c **** 
1853:.\Generated_Source\PSoC5/LED_Driver_Gear.c **** /*******************************************************************************
1854:.\Generated_Source\PSoC5/LED_Driver_Gear.c **** * Function Name: LED_Driver_Gear_Write14SegDigitDec
1855:.\Generated_Source\PSoC5/LED_Driver_Gear.c **** ********************************************************************************
1856:.\Generated_Source\PSoC5/LED_Driver_Gear.c **** *
1857:.\Generated_Source\PSoC5/LED_Driver_Gear.c **** * Summary:
1858:.\Generated_Source\PSoC5/LED_Driver_Gear.c **** *  Displays a single digit on the specified display. The number in 'digit' 
1859:.\Generated_Source\PSoC5/LED_Driver_Gear.c **** *  (0-9) is placed on 'position'.
1860:.\Generated_Source\PSoC5/LED_Driver_Gear.c **** *
1861:.\Generated_Source\PSoC5/LED_Driver_Gear.c **** * Parameters:
1862:.\Generated_Source\PSoC5/LED_Driver_Gear.c **** *  uint8 digit: A number between 0 and 9 to display.
1863:.\Generated_Source\PSoC5/LED_Driver_Gear.c **** *  uint8 position: Position of the display in which to place the number.
1864:.\Generated_Source\PSoC5/LED_Driver_Gear.c **** *
1865:.\Generated_Source\PSoC5/LED_Driver_Gear.c **** * Return:
1866:.\Generated_Source\PSoC5/LED_Driver_Gear.c **** *  None
1867:.\Generated_Source\PSoC5/LED_Driver_Gear.c **** *
1868:.\Generated_Source\PSoC5/LED_Driver_Gear.c **** * Side effects:
1869:.\Generated_Source\PSoC5/LED_Driver_Gear.c **** *  None
1870:.\Generated_Source\PSoC5/LED_Driver_Gear.c **** *
1871:.\Generated_Source\PSoC5/LED_Driver_Gear.c **** *******************************************************************************/
1872:.\Generated_Source\PSoC5/LED_Driver_Gear.c **** void LED_Driver_Gear_Write14SegDigitDec(uint8 digit, uint8 position)
1873:.\Generated_Source\PSoC5/LED_Driver_Gear.c **** 
1874:.\Generated_Source\PSoC5/LED_Driver_Gear.c **** {
1875:.\Generated_Source\PSoC5/LED_Driver_Gear.c ****     uint16 charDisplay;
1876:.\Generated_Source\PSoC5/LED_Driver_Gear.c ****     
1877:.\Generated_Source\PSoC5/LED_Driver_Gear.c ****     if((digit < 10u) && (position < LED_Driver_Gear_NUM_COM))
1878:.\Generated_Source\PSoC5/LED_Driver_Gear.c ****     {
1879:.\Generated_Source\PSoC5/LED_Driver_Gear.c ****         charDisplay = LED_Driver_Gear_EncodeNumber14Seg(digit);
1880:.\Generated_Source\PSoC5/LED_Driver_Gear.c ****         LED_Driver_Gear_segLBuffer[position] = LO8(charDisplay);
1881:.\Generated_Source\PSoC5/LED_Driver_Gear.c ****     #if (LED_Driver_Gear_NUM_SEG > 8u)
1882:.\Generated_Source\PSoC5/LED_Driver_Gear.c ****         LED_Driver_Gear_segMBuffer[position] = HI8(charDisplay);
1883:.\Generated_Source\PSoC5/LED_Driver_Gear.c ****     #endif /* (LED_Driver_Gear_NUM_SEG > 8u) */
1884:.\Generated_Source\PSoC5/LED_Driver_Gear.c ****     }
1885:.\Generated_Source\PSoC5/LED_Driver_Gear.c **** }
1886:.\Generated_Source\PSoC5/LED_Driver_Gear.c **** 
1887:.\Generated_Source\PSoC5/LED_Driver_Gear.c **** 
1888:.\Generated_Source\PSoC5/LED_Driver_Gear.c **** /*******************************************************************************
1889:.\Generated_Source\PSoC5/LED_Driver_Gear.c **** * Function Name: LED_Driver_Gear_Write14SegDigitHex
ARM GAS  C:\Users\charl\AppData\Local\Temp\ccxfbC9q.s 			page 50


1890:.\Generated_Source\PSoC5/LED_Driver_Gear.c **** ********************************************************************************
1891:.\Generated_Source\PSoC5/LED_Driver_Gear.c **** *
1892:.\Generated_Source\PSoC5/LED_Driver_Gear.c **** * Summary:
1893:.\Generated_Source\PSoC5/LED_Driver_Gear.c **** *  Displays a single digit at the specified position. The number in 'digit' 
1894:.\Generated_Source\PSoC5/LED_Driver_Gear.c **** *  (0-F) is placed on 'position'.
1895:.\Generated_Source\PSoC5/LED_Driver_Gear.c **** *
1896:.\Generated_Source\PSoC5/LED_Driver_Gear.c **** * Parameters:
1897:.\Generated_Source\PSoC5/LED_Driver_Gear.c **** *  uint8 digit: A number between 0x0 and 0xF (0 to 15)
1898:.\Generated_Source\PSoC5/LED_Driver_Gear.c **** *  uint8 position: The position in which to place the number.
1899:.\Generated_Source\PSoC5/LED_Driver_Gear.c **** *
1900:.\Generated_Source\PSoC5/LED_Driver_Gear.c **** * Return:
1901:.\Generated_Source\PSoC5/LED_Driver_Gear.c **** *  None
1902:.\Generated_Source\PSoC5/LED_Driver_Gear.c **** *
1903:.\Generated_Source\PSoC5/LED_Driver_Gear.c **** * Side effects:
1904:.\Generated_Source\PSoC5/LED_Driver_Gear.c **** *  None
1905:.\Generated_Source\PSoC5/LED_Driver_Gear.c **** *
1906:.\Generated_Source\PSoC5/LED_Driver_Gear.c **** *******************************************************************************/
1907:.\Generated_Source\PSoC5/LED_Driver_Gear.c **** void LED_Driver_Gear_Write14SegDigitHex(uint8 digit, uint8 position)
1908:.\Generated_Source\PSoC5/LED_Driver_Gear.c **** 
1909:.\Generated_Source\PSoC5/LED_Driver_Gear.c **** {
1910:.\Generated_Source\PSoC5/LED_Driver_Gear.c ****     uint16 charDisplay;
1911:.\Generated_Source\PSoC5/LED_Driver_Gear.c **** 
1912:.\Generated_Source\PSoC5/LED_Driver_Gear.c ****     if(position < LED_Driver_Gear_NUM_COM)
1913:.\Generated_Source\PSoC5/LED_Driver_Gear.c ****     {
1914:.\Generated_Source\PSoC5/LED_Driver_Gear.c ****         charDisplay = LED_Driver_Gear_EncodeNumber14Seg(digit);
1915:.\Generated_Source\PSoC5/LED_Driver_Gear.c ****         LED_Driver_Gear_segLBuffer[position] = LO8(charDisplay);
1916:.\Generated_Source\PSoC5/LED_Driver_Gear.c ****     #if (LED_Driver_Gear_NUM_SEG > 8u)
1917:.\Generated_Source\PSoC5/LED_Driver_Gear.c ****         LED_Driver_Gear_segMBuffer[position] = HI8(charDisplay);
1918:.\Generated_Source\PSoC5/LED_Driver_Gear.c ****     #endif /* (LED_Driver_Gear_NUM_SEG > 8u) */
1919:.\Generated_Source\PSoC5/LED_Driver_Gear.c ****     }
1920:.\Generated_Source\PSoC5/LED_Driver_Gear.c **** }
1921:.\Generated_Source\PSoC5/LED_Driver_Gear.c **** 
1922:.\Generated_Source\PSoC5/LED_Driver_Gear.c **** 
1923:.\Generated_Source\PSoC5/LED_Driver_Gear.c **** /*******************************************************************************
1924:.\Generated_Source\PSoC5/LED_Driver_Gear.c **** * Function Name: LED_Driver_Gear_Write16SegNumberDec
1925:.\Generated_Source\PSoC5/LED_Driver_Gear.c **** ********************************************************************************
1926:.\Generated_Source\PSoC5/LED_Driver_Gear.c **** *
1927:.\Generated_Source\PSoC5/LED_Driver_Gear.c **** * Summary:
1928:.\Generated_Source\PSoC5/LED_Driver_Gear.c **** *  Displays a signed integer up to 8 characters long, starting at 'position' 
1929:.\Generated_Source\PSoC5/LED_Driver_Gear.c **** *  and extending for 'digits' characters. The negative sign will take an extra 
1930:.\Generated_Source\PSoC5/LED_Driver_Gear.c **** *  digit if it is required.
1931:.\Generated_Source\PSoC5/LED_Driver_Gear.c **** *
1932:.\Generated_Source\PSoC5/LED_Driver_Gear.c **** * Parameters:
1933:.\Generated_Source\PSoC5/LED_Driver_Gear.c **** *  int32 number: a signed integer number to display. It is the responsibility 
1934:.\Generated_Source\PSoC5/LED_Driver_Gear.c **** *                of the user to ensure that the display has enough digits to 
1935:.\Generated_Source\PSoC5/LED_Driver_Gear.c **** *                accurately represent the number passed to this function. If 
1936:.\Generated_Source\PSoC5/LED_Driver_Gear.c **** *                not, the least significant digits will be displayed. Also 
1937:.\Generated_Source\PSoC5/LED_Driver_Gear.c **** *                note that a negative number will require 1 more digit than the
1938:.\Generated_Source\PSoC5/LED_Driver_Gear.c **** *                equivalent positive number to display the negative sign.
1939:.\Generated_Source\PSoC5/LED_Driver_Gear.c **** *  uint8 position: Digit position of the Display/Common RAM to start.
1940:.\Generated_Source\PSoC5/LED_Driver_Gear.c **** *  uint8 digits: The number of digits you wish to use to display the value 
1941:.\Generated_Source\PSoC5/LED_Driver_Gear.c **** *                passed into the function. The negative sign will take an extra 
1942:.\Generated_Source\PSoC5/LED_Driver_Gear.c **** *                digit if it is required.
1943:.\Generated_Source\PSoC5/LED_Driver_Gear.c **** *  uint8 alignment: How to align the provided number in the allocated digits.
1944:.\Generated_Source\PSoC5/LED_Driver_Gear.c **** *       RIGHT_ALIGN - Least significant digit occupies the rightmost digit
1945:.\Generated_Source\PSoC5/LED_Driver_Gear.c **** *                     (position + digits). Unused digits are turned off unless
1946:.\Generated_Source\PSoC5/LED_Driver_Gear.c **** *                     ZERO_PAD enabled.
ARM GAS  C:\Users\charl\AppData\Local\Temp\ccxfbC9q.s 			page 51


1947:.\Generated_Source\PSoC5/LED_Driver_Gear.c **** *       LEFT_ALIGN - Most significant digit (or negative sign) occupies the
1948:.\Generated_Source\PSoC5/LED_Driver_Gear.c **** *                    digit specified by position. Unused digits are turned off.
1949:.\Generated_Source\PSoC5/LED_Driver_Gear.c **** *       ZERO_PAD - Unused digits to the left are padded with leading zeros.
1950:.\Generated_Source\PSoC5/LED_Driver_Gear.c **** * Return:
1951:.\Generated_Source\PSoC5/LED_Driver_Gear.c **** *  None
1952:.\Generated_Source\PSoC5/LED_Driver_Gear.c **** *
1953:.\Generated_Source\PSoC5/LED_Driver_Gear.c **** * Side effects:
1954:.\Generated_Source\PSoC5/LED_Driver_Gear.c **** *  None
1955:.\Generated_Source\PSoC5/LED_Driver_Gear.c **** *
1956:.\Generated_Source\PSoC5/LED_Driver_Gear.c **** *******************************************************************************/
1957:.\Generated_Source\PSoC5/LED_Driver_Gear.c **** void LED_Driver_Gear_Write16SegNumberDec(int32 number, uint8 position, uint8 digits, uint8 alignmen
1958:.\Generated_Source\PSoC5/LED_Driver_Gear.c **** 
1959:.\Generated_Source\PSoC5/LED_Driver_Gear.c **** {
1960:.\Generated_Source\PSoC5/LED_Driver_Gear.c ****     uint8 i;
1961:.\Generated_Source\PSoC5/LED_Driver_Gear.c ****     uint8 relPosition;
1962:.\Generated_Source\PSoC5/LED_Driver_Gear.c ****     uint8 numberSign;
1963:.\Generated_Source\PSoC5/LED_Driver_Gear.c ****     uint8 selectVal;
1964:.\Generated_Source\PSoC5/LED_Driver_Gear.c ****     uint8 zeroCount = 0u;
1965:.\Generated_Source\PSoC5/LED_Driver_Gear.c ****     uint16 bufArray[8u] = {0u};
1966:.\Generated_Source\PSoC5/LED_Driver_Gear.c ****     uint32 numberVal;
1967:.\Generated_Source\PSoC5/LED_Driver_Gear.c ****     
1968:.\Generated_Source\PSoC5/LED_Driver_Gear.c ****     /* Routine to extract the sign and to convert to unsigned */
1969:.\Generated_Source\PSoC5/LED_Driver_Gear.c ****     if(number >= LED_Driver_Gear_ZERO_NEG)
1970:.\Generated_Source\PSoC5/LED_Driver_Gear.c ****     {
1971:.\Generated_Source\PSoC5/LED_Driver_Gear.c ****         numberVal = (uint32)number;
1972:.\Generated_Source\PSoC5/LED_Driver_Gear.c ****         numberSign = LED_Driver_Gear_UNSIGNED;
1973:.\Generated_Source\PSoC5/LED_Driver_Gear.c ****     }
1974:.\Generated_Source\PSoC5/LED_Driver_Gear.c ****     else
1975:.\Generated_Source\PSoC5/LED_Driver_Gear.c ****     {
1976:.\Generated_Source\PSoC5/LED_Driver_Gear.c ****         numberVal = (uint32)(-number);
1977:.\Generated_Source\PSoC5/LED_Driver_Gear.c ****         numberSign = LED_Driver_Gear_SIGNED;
1978:.\Generated_Source\PSoC5/LED_Driver_Gear.c ****     }
1979:.\Generated_Source\PSoC5/LED_Driver_Gear.c ****     
1980:.\Generated_Source\PSoC5/LED_Driver_Gear.c ****     /* Fill up the temporary array */
1981:.\Generated_Source\PSoC5/LED_Driver_Gear.c ****     for(i = digits; i > 0u; i--)
1982:.\Generated_Source\PSoC5/LED_Driver_Gear.c ****     {
1983:.\Generated_Source\PSoC5/LED_Driver_Gear.c ****         selectVal = (uint8)(numberVal % 10u);
1984:.\Generated_Source\PSoC5/LED_Driver_Gear.c ****         bufArray[i-1u] = LED_Driver_Gear_EncodeNumber16Seg(selectVal);
1985:.\Generated_Source\PSoC5/LED_Driver_Gear.c ****         numberVal = numberVal / 10u;
1986:.\Generated_Source\PSoC5/LED_Driver_Gear.c ****     }
1987:.\Generated_Source\PSoC5/LED_Driver_Gear.c ****     
1988:.\Generated_Source\PSoC5/LED_Driver_Gear.c ****     /* Clean up the array and place sign if needed */
1989:.\Generated_Source\PSoC5/LED_Driver_Gear.c ****     if(alignment == LED_Driver_Gear_ZERO_PAD)
1990:.\Generated_Source\PSoC5/LED_Driver_Gear.c ****     {
1991:.\Generated_Source\PSoC5/LED_Driver_Gear.c ****         if(numberSign == LED_Driver_Gear_SIGNED)
1992:.\Generated_Source\PSoC5/LED_Driver_Gear.c ****         {
1993:.\Generated_Source\PSoC5/LED_Driver_Gear.c ****             /* Place sign on the MSB */
1994:.\Generated_Source\PSoC5/LED_Driver_Gear.c ****             bufArray[0u] = LED_Driver_Gear_EncodeChar16Seg('-');
1995:.\Generated_Source\PSoC5/LED_Driver_Gear.c ****         }
1996:.\Generated_Source\PSoC5/LED_Driver_Gear.c ****     }
1997:.\Generated_Source\PSoC5/LED_Driver_Gear.c ****     else
1998:.\Generated_Source\PSoC5/LED_Driver_Gear.c ****     {
1999:.\Generated_Source\PSoC5/LED_Driver_Gear.c ****         for(i = 0u; i < digits; i++)
2000:.\Generated_Source\PSoC5/LED_Driver_Gear.c ****         {
2001:.\Generated_Source\PSoC5/LED_Driver_Gear.c ****             if (bufArray[i] != LED_Driver_Gear_ZERO_16CHAR)
2002:.\Generated_Source\PSoC5/LED_Driver_Gear.c ****             {
2003:.\Generated_Source\PSoC5/LED_Driver_Gear.c ****                 if(numberSign == LED_Driver_Gear_SIGNED)
ARM GAS  C:\Users\charl\AppData\Local\Temp\ccxfbC9q.s 			page 52


2004:.\Generated_Source\PSoC5/LED_Driver_Gear.c ****                 {
2005:.\Generated_Source\PSoC5/LED_Driver_Gear.c ****                     if(i == 0u)
2006:.\Generated_Source\PSoC5/LED_Driver_Gear.c ****                     {
2007:.\Generated_Source\PSoC5/LED_Driver_Gear.c ****                         /* Place sign on the MSB */
2008:.\Generated_Source\PSoC5/LED_Driver_Gear.c ****                         bufArray[i] = LED_Driver_Gear_EncodeChar16Seg('-');
2009:.\Generated_Source\PSoC5/LED_Driver_Gear.c ****                     }
2010:.\Generated_Source\PSoC5/LED_Driver_Gear.c ****                     else
2011:.\Generated_Source\PSoC5/LED_Driver_Gear.c ****                     {
2012:.\Generated_Source\PSoC5/LED_Driver_Gear.c ****                         /* Place sign before MSB */
2013:.\Generated_Source\PSoC5/LED_Driver_Gear.c ****                         bufArray[i-1u] = LED_Driver_Gear_EncodeChar16Seg('-');
2014:.\Generated_Source\PSoC5/LED_Driver_Gear.c ****                     }
2015:.\Generated_Source\PSoC5/LED_Driver_Gear.c ****                 }
2016:.\Generated_Source\PSoC5/LED_Driver_Gear.c ****                 /* Exit when encountering non-zero number */
2017:.\Generated_Source\PSoC5/LED_Driver_Gear.c ****                 break;
2018:.\Generated_Source\PSoC5/LED_Driver_Gear.c ****             }
2019:.\Generated_Source\PSoC5/LED_Driver_Gear.c ****             else
2020:.\Generated_Source\PSoC5/LED_Driver_Gear.c ****             {
2021:.\Generated_Source\PSoC5/LED_Driver_Gear.c ****                 if(zeroCount != (digits - 1u))
2022:.\Generated_Source\PSoC5/LED_Driver_Gear.c ****                 {
2023:.\Generated_Source\PSoC5/LED_Driver_Gear.c ****                     /* Turn off the display */
2024:.\Generated_Source\PSoC5/LED_Driver_Gear.c ****                     bufArray[i] = LED_Driver_Gear_CLEAR_16;
2025:.\Generated_Source\PSoC5/LED_Driver_Gear.c ****                     zeroCount++;
2026:.\Generated_Source\PSoC5/LED_Driver_Gear.c ****                 }
2027:.\Generated_Source\PSoC5/LED_Driver_Gear.c ****             }    
2028:.\Generated_Source\PSoC5/LED_Driver_Gear.c ****         }
2029:.\Generated_Source\PSoC5/LED_Driver_Gear.c ****     }
2030:.\Generated_Source\PSoC5/LED_Driver_Gear.c ****     
2031:.\Generated_Source\PSoC5/LED_Driver_Gear.c ****     relPosition = position;
2032:.\Generated_Source\PSoC5/LED_Driver_Gear.c ****     
2033:.\Generated_Source\PSoC5/LED_Driver_Gear.c ****     /* Place the values in the segment array according to alignment */
2034:.\Generated_Source\PSoC5/LED_Driver_Gear.c ****     if(alignment == LED_Driver_Gear_LEFT_ALIGN)
2035:.\Generated_Source\PSoC5/LED_Driver_Gear.c ****     {
2036:.\Generated_Source\PSoC5/LED_Driver_Gear.c ****         for(i = 0u; i < digits; i++)
2037:.\Generated_Source\PSoC5/LED_Driver_Gear.c ****         {
2038:.\Generated_Source\PSoC5/LED_Driver_Gear.c ****             if(bufArray[i] != LED_Driver_Gear_CLEAR_16)
2039:.\Generated_Source\PSoC5/LED_Driver_Gear.c ****             {
2040:.\Generated_Source\PSoC5/LED_Driver_Gear.c ****                 if(relPosition < LED_Driver_Gear_NUM_COM)
2041:.\Generated_Source\PSoC5/LED_Driver_Gear.c ****                 {
2042:.\Generated_Source\PSoC5/LED_Driver_Gear.c ****                     /* Only show displays that are not empty */
2043:.\Generated_Source\PSoC5/LED_Driver_Gear.c ****                     LED_Driver_Gear_segLBuffer[relPosition] = LO8(bufArray[i]);
2044:.\Generated_Source\PSoC5/LED_Driver_Gear.c ****                 #if (LED_Driver_Gear_NUM_SEG > 8u)
2045:.\Generated_Source\PSoC5/LED_Driver_Gear.c ****                     LED_Driver_Gear_segMBuffer[relPosition] = HI8(bufArray[i]);
2046:.\Generated_Source\PSoC5/LED_Driver_Gear.c ****                 #endif /* (LED_Driver_Gear_NUM_SEG > 8u) */
2047:.\Generated_Source\PSoC5/LED_Driver_Gear.c ****                 }
2048:.\Generated_Source\PSoC5/LED_Driver_Gear.c ****                 relPosition++;
2049:.\Generated_Source\PSoC5/LED_Driver_Gear.c ****             }
2050:.\Generated_Source\PSoC5/LED_Driver_Gear.c ****         }
2051:.\Generated_Source\PSoC5/LED_Driver_Gear.c ****         /* Clear the rest of the positions to the right of value */
2052:.\Generated_Source\PSoC5/LED_Driver_Gear.c ****         while(relPosition < digits)
2053:.\Generated_Source\PSoC5/LED_Driver_Gear.c ****         {
2054:.\Generated_Source\PSoC5/LED_Driver_Gear.c ****             /* Only show displays that are not empty */
2055:.\Generated_Source\PSoC5/LED_Driver_Gear.c ****             LED_Driver_Gear_segLBuffer[relPosition] = LED_Driver_Gear_CLEAR;
2056:.\Generated_Source\PSoC5/LED_Driver_Gear.c ****             #if (LED_Driver_Gear_NUM_SEG > 8u)
2057:.\Generated_Source\PSoC5/LED_Driver_Gear.c ****                 LED_Driver_Gear_segMBuffer[relPosition] = LED_Driver_Gear_CLEAR;
2058:.\Generated_Source\PSoC5/LED_Driver_Gear.c ****             #endif /* (LED_Driver_Gear_NUM_SEG > 8u) */
2059:.\Generated_Source\PSoC5/LED_Driver_Gear.c ****             
2060:.\Generated_Source\PSoC5/LED_Driver_Gear.c ****             relPosition++;
ARM GAS  C:\Users\charl\AppData\Local\Temp\ccxfbC9q.s 			page 53


2061:.\Generated_Source\PSoC5/LED_Driver_Gear.c ****         }
2062:.\Generated_Source\PSoC5/LED_Driver_Gear.c ****     }
2063:.\Generated_Source\PSoC5/LED_Driver_Gear.c ****     else
2064:.\Generated_Source\PSoC5/LED_Driver_Gear.c ****     {
2065:.\Generated_Source\PSoC5/LED_Driver_Gear.c ****         for(i = digits; i > 0u; i--)
2066:.\Generated_Source\PSoC5/LED_Driver_Gear.c ****         {
2067:.\Generated_Source\PSoC5/LED_Driver_Gear.c ****             if(((i + relPosition) - 1u) < LED_Driver_Gear_NUM_COM)
2068:.\Generated_Source\PSoC5/LED_Driver_Gear.c ****             {
2069:.\Generated_Source\PSoC5/LED_Driver_Gear.c ****                 LED_Driver_Gear_segLBuffer[(i + relPosition) - 1u] = LO8(bufArray[i-1u]);
2070:.\Generated_Source\PSoC5/LED_Driver_Gear.c ****             #if (LED_Driver_Gear_NUM_SEG > 8u)
2071:.\Generated_Source\PSoC5/LED_Driver_Gear.c ****                 LED_Driver_Gear_segMBuffer[(i + relPosition) - 1u] = HI8(bufArray[i-1u]);
2072:.\Generated_Source\PSoC5/LED_Driver_Gear.c ****             #endif /* (LED_Driver_Gear_NUM_SEG > 8u) */
2073:.\Generated_Source\PSoC5/LED_Driver_Gear.c ****             }
2074:.\Generated_Source\PSoC5/LED_Driver_Gear.c ****         }
2075:.\Generated_Source\PSoC5/LED_Driver_Gear.c ****     }
2076:.\Generated_Source\PSoC5/LED_Driver_Gear.c **** }
2077:.\Generated_Source\PSoC5/LED_Driver_Gear.c **** 
2078:.\Generated_Source\PSoC5/LED_Driver_Gear.c **** 
2079:.\Generated_Source\PSoC5/LED_Driver_Gear.c **** /*******************************************************************************
2080:.\Generated_Source\PSoC5/LED_Driver_Gear.c **** * Function Name: LED_Driver_Gear_Write16SegNumberHex
2081:.\Generated_Source\PSoC5/LED_Driver_Gear.c **** ********************************************************************************
2082:.\Generated_Source\PSoC5/LED_Driver_Gear.c **** *
2083:.\Generated_Source\PSoC5/LED_Driver_Gear.c **** * Summary:
2084:.\Generated_Source\PSoC5/LED_Driver_Gear.c **** *  Displays a hexadecimal number up to 8 characters long, starting at 'position'
2085:.\Generated_Source\PSoC5/LED_Driver_Gear.c **** *  and extending for 'digits' characters. If you do not use the correct number 
2086:.\Generated_Source\PSoC5/LED_Driver_Gear.c **** *  of digits for your number, the least significant digits will be displayed. 
2087:.\Generated_Source\PSoC5/LED_Driver_Gear.c **** *  For example, if value is 0xDEADBEEF, display is 0 and digits is 4, the result
2088:.\Generated_Source\PSoC5/LED_Driver_Gear.c **** *  will be: BEEF.
2089:.\Generated_Source\PSoC5/LED_Driver_Gear.c **** *
2090:.\Generated_Source\PSoC5/LED_Driver_Gear.c **** * Parameters:
2091:.\Generated_Source\PSoC5/LED_Driver_Gear.c **** *  uint32 number: The hexadecimal number to display. It is the responsibility of
2092:.\Generated_Source\PSoC5/LED_Driver_Gear.c **** *  the user to ensure that the display has enough digits to accurately represent
2093:.\Generated_Source\PSoC5/LED_Driver_Gear.c **** *  the number passed to this function.
2094:.\Generated_Source\PSoC5/LED_Driver_Gear.c **** *  uint8 position: Position of the Display/Common to start number.
2095:.\Generated_Source\PSoC5/LED_Driver_Gear.c **** *  uint8 digits: The number of digits you wish to use to display the value 
2096:.\Generated_Source\PSoC5/LED_Driver_Gear.c **** *                passed into the function.
2097:.\Generated_Source\PSoC5/LED_Driver_Gear.c **** *  uint8 alignment: How to align the provided number in the allocated digits.
2098:.\Generated_Source\PSoC5/LED_Driver_Gear.c **** *       RIGHT_ALIGN - Least significant digit occupies the rightmost digit
2099:.\Generated_Source\PSoC5/LED_Driver_Gear.c **** *                     (position + digits). Unused digits are turned off unless
2100:.\Generated_Source\PSoC5/LED_Driver_Gear.c **** *                     ZERO_PAD enabled.
2101:.\Generated_Source\PSoC5/LED_Driver_Gear.c **** *       LEFT_ALIGN - Most significant digit (or negative sign) occupies the
2102:.\Generated_Source\PSoC5/LED_Driver_Gear.c **** *                    digit specified by position. Unused digits are turned off.
2103:.\Generated_Source\PSoC5/LED_Driver_Gear.c **** *       ZERO_PAD - Unused digits to the left are padded with leading zeros.
2104:.\Generated_Source\PSoC5/LED_Driver_Gear.c **** * Return:
2105:.\Generated_Source\PSoC5/LED_Driver_Gear.c **** *  None
2106:.\Generated_Source\PSoC5/LED_Driver_Gear.c **** *
2107:.\Generated_Source\PSoC5/LED_Driver_Gear.c **** * Side effects:
2108:.\Generated_Source\PSoC5/LED_Driver_Gear.c **** *  None
2109:.\Generated_Source\PSoC5/LED_Driver_Gear.c **** *
2110:.\Generated_Source\PSoC5/LED_Driver_Gear.c **** *******************************************************************************/
2111:.\Generated_Source\PSoC5/LED_Driver_Gear.c **** void LED_Driver_Gear_Write16SegNumberHex(uint32 number, uint8 position, uint8 digits, uint8 alignme
2112:.\Generated_Source\PSoC5/LED_Driver_Gear.c **** 
2113:.\Generated_Source\PSoC5/LED_Driver_Gear.c **** {
2114:.\Generated_Source\PSoC5/LED_Driver_Gear.c ****     uint8 i;
2115:.\Generated_Source\PSoC5/LED_Driver_Gear.c ****     uint8 relPosition;
2116:.\Generated_Source\PSoC5/LED_Driver_Gear.c ****     uint8 selectVal;
2117:.\Generated_Source\PSoC5/LED_Driver_Gear.c ****     uint16 bufArray[8u] = {0u};
ARM GAS  C:\Users\charl\AppData\Local\Temp\ccxfbC9q.s 			page 54


2118:.\Generated_Source\PSoC5/LED_Driver_Gear.c ****     uint32 numberVal;
2119:.\Generated_Source\PSoC5/LED_Driver_Gear.c ****     
2120:.\Generated_Source\PSoC5/LED_Driver_Gear.c ****     numberVal = number;
2121:.\Generated_Source\PSoC5/LED_Driver_Gear.c ****     
2122:.\Generated_Source\PSoC5/LED_Driver_Gear.c ****     /* Fill up the temporary array */
2123:.\Generated_Source\PSoC5/LED_Driver_Gear.c ****     for(i = digits; i > 0u; i--)
2124:.\Generated_Source\PSoC5/LED_Driver_Gear.c ****     {
2125:.\Generated_Source\PSoC5/LED_Driver_Gear.c ****         selectVal = (uint8)((uint8)numberVal & LED_Driver_Gear_NIBBLE_MASK);
2126:.\Generated_Source\PSoC5/LED_Driver_Gear.c ****         bufArray[i-1u] = LED_Driver_Gear_EncodeNumber16Seg(selectVal);
2127:.\Generated_Source\PSoC5/LED_Driver_Gear.c ****         numberVal = (uint32)((uint32)numberVal >> LED_Driver_Gear_SHIFT_NIBBLE);
2128:.\Generated_Source\PSoC5/LED_Driver_Gear.c ****     }
2129:.\Generated_Source\PSoC5/LED_Driver_Gear.c ****     
2130:.\Generated_Source\PSoC5/LED_Driver_Gear.c ****     /* Clean up the array and place sign if needed */
2131:.\Generated_Source\PSoC5/LED_Driver_Gear.c ****     for(i = 0u; i < digits; i++)
2132:.\Generated_Source\PSoC5/LED_Driver_Gear.c ****     {
2133:.\Generated_Source\PSoC5/LED_Driver_Gear.c ****         if (bufArray[i] != LED_Driver_Gear_ZERO_16CHAR)
2134:.\Generated_Source\PSoC5/LED_Driver_Gear.c ****         {
2135:.\Generated_Source\PSoC5/LED_Driver_Gear.c ****             /* Exit when encountering non-zero number */
2136:.\Generated_Source\PSoC5/LED_Driver_Gear.c ****             break;
2137:.\Generated_Source\PSoC5/LED_Driver_Gear.c ****         }
2138:.\Generated_Source\PSoC5/LED_Driver_Gear.c ****         else
2139:.\Generated_Source\PSoC5/LED_Driver_Gear.c ****         {
2140:.\Generated_Source\PSoC5/LED_Driver_Gear.c ****             /* Turn off the display */
2141:.\Generated_Source\PSoC5/LED_Driver_Gear.c ****             bufArray[i] = LED_Driver_Gear_CLEAR_16;
2142:.\Generated_Source\PSoC5/LED_Driver_Gear.c ****         }    
2143:.\Generated_Source\PSoC5/LED_Driver_Gear.c ****     }
2144:.\Generated_Source\PSoC5/LED_Driver_Gear.c ****     
2145:.\Generated_Source\PSoC5/LED_Driver_Gear.c ****     relPosition = position;
2146:.\Generated_Source\PSoC5/LED_Driver_Gear.c ****     
2147:.\Generated_Source\PSoC5/LED_Driver_Gear.c ****     /* Place the values in the segment array according to alignment */
2148:.\Generated_Source\PSoC5/LED_Driver_Gear.c ****     if(alignment == LED_Driver_Gear_LEFT_ALIGN)
2149:.\Generated_Source\PSoC5/LED_Driver_Gear.c ****     {
2150:.\Generated_Source\PSoC5/LED_Driver_Gear.c ****         for(i = 0u; i < digits; i++)
2151:.\Generated_Source\PSoC5/LED_Driver_Gear.c ****         {
2152:.\Generated_Source\PSoC5/LED_Driver_Gear.c ****             if(bufArray[i] != LED_Driver_Gear_CLEAR_16)
2153:.\Generated_Source\PSoC5/LED_Driver_Gear.c ****             {
2154:.\Generated_Source\PSoC5/LED_Driver_Gear.c ****                 if(relPosition < LED_Driver_Gear_NUM_COM)
2155:.\Generated_Source\PSoC5/LED_Driver_Gear.c ****                 {
2156:.\Generated_Source\PSoC5/LED_Driver_Gear.c ****                     /* Only show displays that are not empty */
2157:.\Generated_Source\PSoC5/LED_Driver_Gear.c ****                     LED_Driver_Gear_segLBuffer[relPosition] = LO8(bufArray[i]);
2158:.\Generated_Source\PSoC5/LED_Driver_Gear.c ****                 #if (LED_Driver_Gear_NUM_SEG > 8u)
2159:.\Generated_Source\PSoC5/LED_Driver_Gear.c ****                     LED_Driver_Gear_segMBuffer[relPosition] = HI8(bufArray[i]);
2160:.\Generated_Source\PSoC5/LED_Driver_Gear.c ****                 #endif /* (LED_Driver_Gear_NUM_SEG > 8u) */
2161:.\Generated_Source\PSoC5/LED_Driver_Gear.c ****                 }
2162:.\Generated_Source\PSoC5/LED_Driver_Gear.c ****                 relPosition++;
2163:.\Generated_Source\PSoC5/LED_Driver_Gear.c ****             }
2164:.\Generated_Source\PSoC5/LED_Driver_Gear.c ****         }
2165:.\Generated_Source\PSoC5/LED_Driver_Gear.c ****         /* Clear the rest of the positions to the right of value */
2166:.\Generated_Source\PSoC5/LED_Driver_Gear.c ****         while(relPosition < digits)
2167:.\Generated_Source\PSoC5/LED_Driver_Gear.c ****         {
2168:.\Generated_Source\PSoC5/LED_Driver_Gear.c ****             /* Only show displays that are not empty */
2169:.\Generated_Source\PSoC5/LED_Driver_Gear.c ****             LED_Driver_Gear_segLBuffer[relPosition] = LED_Driver_Gear_CLEAR;
2170:.\Generated_Source\PSoC5/LED_Driver_Gear.c ****             #if (LED_Driver_Gear_NUM_SEG > 8u)
2171:.\Generated_Source\PSoC5/LED_Driver_Gear.c ****                 LED_Driver_Gear_segMBuffer[relPosition] = LED_Driver_Gear_CLEAR;
2172:.\Generated_Source\PSoC5/LED_Driver_Gear.c ****             #endif /* (LED_Driver_Gear_NUM_SEG > 8u) */
2173:.\Generated_Source\PSoC5/LED_Driver_Gear.c ****             
2174:.\Generated_Source\PSoC5/LED_Driver_Gear.c ****             relPosition++;
ARM GAS  C:\Users\charl\AppData\Local\Temp\ccxfbC9q.s 			page 55


2175:.\Generated_Source\PSoC5/LED_Driver_Gear.c ****         }
2176:.\Generated_Source\PSoC5/LED_Driver_Gear.c ****     }
2177:.\Generated_Source\PSoC5/LED_Driver_Gear.c ****     else
2178:.\Generated_Source\PSoC5/LED_Driver_Gear.c ****     {
2179:.\Generated_Source\PSoC5/LED_Driver_Gear.c ****         for(i = digits; i > 0u; i--)
2180:.\Generated_Source\PSoC5/LED_Driver_Gear.c ****         {
2181:.\Generated_Source\PSoC5/LED_Driver_Gear.c ****             if(((i + relPosition) - 1u) < LED_Driver_Gear_NUM_COM)
2182:.\Generated_Source\PSoC5/LED_Driver_Gear.c ****             {
2183:.\Generated_Source\PSoC5/LED_Driver_Gear.c ****                 LED_Driver_Gear_segLBuffer[(i + relPosition) - 1u] = LO8(bufArray[i-1u]);
2184:.\Generated_Source\PSoC5/LED_Driver_Gear.c ****             #if (LED_Driver_Gear_NUM_SEG > 8u)
2185:.\Generated_Source\PSoC5/LED_Driver_Gear.c ****                 LED_Driver_Gear_segMBuffer[(i + relPosition) - 1u] = HI8(bufArray[i-1u]);
2186:.\Generated_Source\PSoC5/LED_Driver_Gear.c ****             #endif /* (LED_Driver_Gear_NUM_SEG > 8u) */
2187:.\Generated_Source\PSoC5/LED_Driver_Gear.c ****             }
2188:.\Generated_Source\PSoC5/LED_Driver_Gear.c ****         }
2189:.\Generated_Source\PSoC5/LED_Driver_Gear.c ****     }
2190:.\Generated_Source\PSoC5/LED_Driver_Gear.c **** }
2191:.\Generated_Source\PSoC5/LED_Driver_Gear.c **** 
2192:.\Generated_Source\PSoC5/LED_Driver_Gear.c **** 
2193:.\Generated_Source\PSoC5/LED_Driver_Gear.c **** /*******************************************************************************
2194:.\Generated_Source\PSoC5/LED_Driver_Gear.c **** * Function Name: LED_Driver_Gear_WriteString16Seg
2195:.\Generated_Source\PSoC5/LED_Driver_Gear.c **** ********************************************************************************
2196:.\Generated_Source\PSoC5/LED_Driver_Gear.c **** *
2197:.\Generated_Source\PSoC5/LED_Driver_Gear.c **** * Summary:
2198:.\Generated_Source\PSoC5/LED_Driver_Gear.c **** *  Displays a null terminated string starting at 'position' and ending at either
2199:.\Generated_Source\PSoC5/LED_Driver_Gear.c **** *  the  the string or the  the display. The displayable characters 
2200:.\Generated_Source\PSoC5/LED_Driver_Gear.c **** *  are the same for the LED_Driver_PutCharacter() function. Non-displayable
2201:.\Generated_Source\PSoC5/LED_Driver_Gear.c **** *  characters will produce a blank space.
2202:.\Generated_Source\PSoC5/LED_Driver_Gear.c **** *
2203:.\Generated_Source\PSoC5/LED_Driver_Gear.c **** * Parameters:
2204:.\Generated_Source\PSoC5/LED_Driver_Gear.c **** *  char8 const character[]: The null terminated string to be displayed.
2205:.\Generated_Source\PSoC5/LED_Driver_Gear.c **** *  uint8 position: The position to start the string.
2206:.\Generated_Source\PSoC5/LED_Driver_Gear.c **** * Return:
2207:.\Generated_Source\PSoC5/LED_Driver_Gear.c **** *  None
2208:.\Generated_Source\PSoC5/LED_Driver_Gear.c **** *
2209:.\Generated_Source\PSoC5/LED_Driver_Gear.c **** * Side effects:
2210:.\Generated_Source\PSoC5/LED_Driver_Gear.c **** *  None
2211:.\Generated_Source\PSoC5/LED_Driver_Gear.c **** *
2212:.\Generated_Source\PSoC5/LED_Driver_Gear.c **** *******************************************************************************/
2213:.\Generated_Source\PSoC5/LED_Driver_Gear.c **** void LED_Driver_Gear_WriteString16Seg(char8 const character[], uint8 position)
2214:.\Generated_Source\PSoC5/LED_Driver_Gear.c **** 
2215:.\Generated_Source\PSoC5/LED_Driver_Gear.c **** {
2216:.\Generated_Source\PSoC5/LED_Driver_Gear.c ****     uint8 currPosition;
2217:.\Generated_Source\PSoC5/LED_Driver_Gear.c ****     uint8 sizeLimit;
2218:.\Generated_Source\PSoC5/LED_Driver_Gear.c ****     uint8 i = 0u;
2219:.\Generated_Source\PSoC5/LED_Driver_Gear.c ****     uint16 charDisplay;
2220:.\Generated_Source\PSoC5/LED_Driver_Gear.c ****     
2221:.\Generated_Source\PSoC5/LED_Driver_Gear.c ****     sizeLimit = (uint8)(strlen(character)) + position;
2222:.\Generated_Source\PSoC5/LED_Driver_Gear.c ****     
2223:.\Generated_Source\PSoC5/LED_Driver_Gear.c ****     for(currPosition = position; currPosition < LED_Driver_Gear_NUM_COM; currPosition++)
2224:.\Generated_Source\PSoC5/LED_Driver_Gear.c ****     {
2225:.\Generated_Source\PSoC5/LED_Driver_Gear.c ****         if(currPosition < sizeLimit)
2226:.\Generated_Source\PSoC5/LED_Driver_Gear.c ****         {
2227:.\Generated_Source\PSoC5/LED_Driver_Gear.c ****             charDisplay = LED_Driver_Gear_EncodeChar16Seg(character[i]);
2228:.\Generated_Source\PSoC5/LED_Driver_Gear.c ****             LED_Driver_Gear_segLBuffer[currPosition] = LO8(charDisplay);
2229:.\Generated_Source\PSoC5/LED_Driver_Gear.c ****             #if (LED_Driver_Gear_NUM_SEG > 8u)
2230:.\Generated_Source\PSoC5/LED_Driver_Gear.c ****                 LED_Driver_Gear_segMBuffer[currPosition] = HI8(charDisplay);
2231:.\Generated_Source\PSoC5/LED_Driver_Gear.c ****             #endif /* (LED_Driver_Gear_NUM_SEG > 8u) */
ARM GAS  C:\Users\charl\AppData\Local\Temp\ccxfbC9q.s 			page 56


2232:.\Generated_Source\PSoC5/LED_Driver_Gear.c ****             i++;
2233:.\Generated_Source\PSoC5/LED_Driver_Gear.c ****         }
2234:.\Generated_Source\PSoC5/LED_Driver_Gear.c ****     }
2235:.\Generated_Source\PSoC5/LED_Driver_Gear.c **** }
2236:.\Generated_Source\PSoC5/LED_Driver_Gear.c **** 
2237:.\Generated_Source\PSoC5/LED_Driver_Gear.c **** 
2238:.\Generated_Source\PSoC5/LED_Driver_Gear.c **** /*******************************************************************************
2239:.\Generated_Source\PSoC5/LED_Driver_Gear.c **** * Function Name: LED_Driver_Gear_PutChar16Seg
2240:.\Generated_Source\PSoC5/LED_Driver_Gear.c **** ********************************************************************************
2241:.\Generated_Source\PSoC5/LED_Driver_Gear.c **** *
2242:.\Generated_Source\PSoC5/LED_Driver_Gear.c **** * Summary:
2243:.\Generated_Source\PSoC5/LED_Driver_Gear.c **** *  Displays an ascii encoded character at 'position'. This function can display 
2244:.\Generated_Source\PSoC5/LED_Driver_Gear.c **** *  all alphanumeric characters. The function can also display '-', '.', '_', 
2245:.\Generated_Source\PSoC5/LED_Driver_Gear.c **** *  ' ', and '='. All unknown characters are displayed as a space.
2246:.\Generated_Source\PSoC5/LED_Driver_Gear.c **** *
2247:.\Generated_Source\PSoC5/LED_Driver_Gear.c **** * Parameters:
2248:.\Generated_Source\PSoC5/LED_Driver_Gear.c **** *  char8 character: ASCII character.
2249:.\Generated_Source\PSoC5/LED_Driver_Gear.c **** *  uint8 position: The position of the character.
2250:.\Generated_Source\PSoC5/LED_Driver_Gear.c **** * Return:
2251:.\Generated_Source\PSoC5/LED_Driver_Gear.c **** *  None
2252:.\Generated_Source\PSoC5/LED_Driver_Gear.c **** *
2253:.\Generated_Source\PSoC5/LED_Driver_Gear.c **** * Side effects:
2254:.\Generated_Source\PSoC5/LED_Driver_Gear.c **** *  None
2255:.\Generated_Source\PSoC5/LED_Driver_Gear.c **** *
2256:.\Generated_Source\PSoC5/LED_Driver_Gear.c **** *******************************************************************************/
2257:.\Generated_Source\PSoC5/LED_Driver_Gear.c **** void LED_Driver_Gear_PutChar16Seg(char8 character , uint8 position)
2258:.\Generated_Source\PSoC5/LED_Driver_Gear.c **** 
2259:.\Generated_Source\PSoC5/LED_Driver_Gear.c **** {
2260:.\Generated_Source\PSoC5/LED_Driver_Gear.c ****     uint16 charDisplay;
2261:.\Generated_Source\PSoC5/LED_Driver_Gear.c ****     
2262:.\Generated_Source\PSoC5/LED_Driver_Gear.c ****     if(position < LED_Driver_Gear_NUM_COM)
2263:.\Generated_Source\PSoC5/LED_Driver_Gear.c ****     {
2264:.\Generated_Source\PSoC5/LED_Driver_Gear.c ****         charDisplay = LED_Driver_Gear_EncodeChar16Seg(character);
2265:.\Generated_Source\PSoC5/LED_Driver_Gear.c ****         LED_Driver_Gear_segLBuffer[position] = LO8(charDisplay);
2266:.\Generated_Source\PSoC5/LED_Driver_Gear.c ****         #if (LED_Driver_Gear_NUM_SEG > 8u)
2267:.\Generated_Source\PSoC5/LED_Driver_Gear.c ****             LED_Driver_Gear_segMBuffer[position] = HI8(charDisplay);
2268:.\Generated_Source\PSoC5/LED_Driver_Gear.c ****         #endif /* (LED_Driver_Gear_NUM_SEG > 8u) */
2269:.\Generated_Source\PSoC5/LED_Driver_Gear.c ****     }
2270:.\Generated_Source\PSoC5/LED_Driver_Gear.c **** }
2271:.\Generated_Source\PSoC5/LED_Driver_Gear.c **** 
2272:.\Generated_Source\PSoC5/LED_Driver_Gear.c **** 
2273:.\Generated_Source\PSoC5/LED_Driver_Gear.c **** /*******************************************************************************
2274:.\Generated_Source\PSoC5/LED_Driver_Gear.c **** * Function Name: LED_Driver_Gear_Write16SegDigitDec
2275:.\Generated_Source\PSoC5/LED_Driver_Gear.c **** ********************************************************************************
2276:.\Generated_Source\PSoC5/LED_Driver_Gear.c **** *
2277:.\Generated_Source\PSoC5/LED_Driver_Gear.c **** * Summary:
2278:.\Generated_Source\PSoC5/LED_Driver_Gear.c **** *  Displays a single digit on the specified display. The number in 'digit' 
2279:.\Generated_Source\PSoC5/LED_Driver_Gear.c **** *  (0-9) is placed on 'position'.
2280:.\Generated_Source\PSoC5/LED_Driver_Gear.c **** *
2281:.\Generated_Source\PSoC5/LED_Driver_Gear.c **** * Parameters:
2282:.\Generated_Source\PSoC5/LED_Driver_Gear.c **** *  uint8 digit: A number between 0 and 9 to display.
2283:.\Generated_Source\PSoC5/LED_Driver_Gear.c **** *  uint8 position: Position of the display in which to place the number.
2284:.\Generated_Source\PSoC5/LED_Driver_Gear.c **** * Return:
2285:.\Generated_Source\PSoC5/LED_Driver_Gear.c **** *  None
2286:.\Generated_Source\PSoC5/LED_Driver_Gear.c **** *
2287:.\Generated_Source\PSoC5/LED_Driver_Gear.c **** * Side effects:
2288:.\Generated_Source\PSoC5/LED_Driver_Gear.c **** *  None
ARM GAS  C:\Users\charl\AppData\Local\Temp\ccxfbC9q.s 			page 57


2289:.\Generated_Source\PSoC5/LED_Driver_Gear.c **** *
2290:.\Generated_Source\PSoC5/LED_Driver_Gear.c **** *******************************************************************************/
2291:.\Generated_Source\PSoC5/LED_Driver_Gear.c **** void LED_Driver_Gear_Write16SegDigitDec(uint8 digit, uint8 position)
2292:.\Generated_Source\PSoC5/LED_Driver_Gear.c **** 
2293:.\Generated_Source\PSoC5/LED_Driver_Gear.c **** {
2294:.\Generated_Source\PSoC5/LED_Driver_Gear.c ****     uint16 charDisplay;
2295:.\Generated_Source\PSoC5/LED_Driver_Gear.c ****     
2296:.\Generated_Source\PSoC5/LED_Driver_Gear.c ****     if((digit < 10u) && (position < LED_Driver_Gear_NUM_COM))
2297:.\Generated_Source\PSoC5/LED_Driver_Gear.c ****     {
2298:.\Generated_Source\PSoC5/LED_Driver_Gear.c ****         charDisplay = LED_Driver_Gear_EncodeNumber16Seg(digit);
2299:.\Generated_Source\PSoC5/LED_Driver_Gear.c ****         LED_Driver_Gear_segLBuffer[position] = LO8(charDisplay);
2300:.\Generated_Source\PSoC5/LED_Driver_Gear.c ****         #if (LED_Driver_Gear_NUM_SEG > 8u)
2301:.\Generated_Source\PSoC5/LED_Driver_Gear.c ****             LED_Driver_Gear_segMBuffer[position] = HI8(charDisplay);
2302:.\Generated_Source\PSoC5/LED_Driver_Gear.c ****         #endif /* (LED_Driver_Gear_NUM_SEG > 8u) */
2303:.\Generated_Source\PSoC5/LED_Driver_Gear.c ****     }
2304:.\Generated_Source\PSoC5/LED_Driver_Gear.c **** }
2305:.\Generated_Source\PSoC5/LED_Driver_Gear.c **** 
2306:.\Generated_Source\PSoC5/LED_Driver_Gear.c **** 
2307:.\Generated_Source\PSoC5/LED_Driver_Gear.c **** /*******************************************************************************
2308:.\Generated_Source\PSoC5/LED_Driver_Gear.c **** * Function Name: LED_Driver_Gear_Write16SegDigitHex
2309:.\Generated_Source\PSoC5/LED_Driver_Gear.c **** ********************************************************************************
2310:.\Generated_Source\PSoC5/LED_Driver_Gear.c **** *
2311:.\Generated_Source\PSoC5/LED_Driver_Gear.c **** * Summary:
2312:.\Generated_Source\PSoC5/LED_Driver_Gear.c **** *  Displays a single digit at the specified position. The number in 'digit' 
2313:.\Generated_Source\PSoC5/LED_Driver_Gear.c **** *  (0-F) is placed on 'position'.
2314:.\Generated_Source\PSoC5/LED_Driver_Gear.c **** *
2315:.\Generated_Source\PSoC5/LED_Driver_Gear.c **** * Parameters:
2316:.\Generated_Source\PSoC5/LED_Driver_Gear.c **** *  uint8 digit: A number between 0x0 and 0xF (0 to 15).
2317:.\Generated_Source\PSoC5/LED_Driver_Gear.c **** *  uint8 position: The position in which to place the number.
2318:.\Generated_Source\PSoC5/LED_Driver_Gear.c **** * Return:
2319:.\Generated_Source\PSoC5/LED_Driver_Gear.c **** *  None
2320:.\Generated_Source\PSoC5/LED_Driver_Gear.c **** *
2321:.\Generated_Source\PSoC5/LED_Driver_Gear.c **** * Side effects:
2322:.\Generated_Source\PSoC5/LED_Driver_Gear.c **** *  None
2323:.\Generated_Source\PSoC5/LED_Driver_Gear.c **** *
2324:.\Generated_Source\PSoC5/LED_Driver_Gear.c **** *******************************************************************************/
2325:.\Generated_Source\PSoC5/LED_Driver_Gear.c **** void LED_Driver_Gear_Write16SegDigitHex(uint8 digit, uint8 position)
2326:.\Generated_Source\PSoC5/LED_Driver_Gear.c **** 
2327:.\Generated_Source\PSoC5/LED_Driver_Gear.c **** {
2328:.\Generated_Source\PSoC5/LED_Driver_Gear.c ****     uint16 charDisplay;
2329:.\Generated_Source\PSoC5/LED_Driver_Gear.c **** 
2330:.\Generated_Source\PSoC5/LED_Driver_Gear.c ****     if(position < LED_Driver_Gear_NUM_COM)
2331:.\Generated_Source\PSoC5/LED_Driver_Gear.c ****     {
2332:.\Generated_Source\PSoC5/LED_Driver_Gear.c ****         charDisplay = LED_Driver_Gear_EncodeNumber16Seg(digit);
2333:.\Generated_Source\PSoC5/LED_Driver_Gear.c ****         LED_Driver_Gear_segLBuffer[position] = LO8(charDisplay);
2334:.\Generated_Source\PSoC5/LED_Driver_Gear.c ****         #if (LED_Driver_Gear_NUM_SEG > 8u)
2335:.\Generated_Source\PSoC5/LED_Driver_Gear.c ****             LED_Driver_Gear_segMBuffer[position] = HI8(charDisplay);
2336:.\Generated_Source\PSoC5/LED_Driver_Gear.c ****         #endif /* (LED_Driver_Gear_NUM_SEG > 8u) */
2337:.\Generated_Source\PSoC5/LED_Driver_Gear.c ****     }
2338:.\Generated_Source\PSoC5/LED_Driver_Gear.c **** }
2339:.\Generated_Source\PSoC5/LED_Driver_Gear.c **** 
2340:.\Generated_Source\PSoC5/LED_Driver_Gear.c **** 
2341:.\Generated_Source\PSoC5/LED_Driver_Gear.c **** /*******************************************************************************
2342:.\Generated_Source\PSoC5/LED_Driver_Gear.c **** * Function Name: LED_Driver_Gear_PutDecimalPoint
2343:.\Generated_Source\PSoC5/LED_Driver_Gear.c **** ********************************************************************************
2344:.\Generated_Source\PSoC5/LED_Driver_Gear.c **** *
2345:.\Generated_Source\PSoC5/LED_Driver_Gear.c **** * Summary:
ARM GAS  C:\Users\charl\AppData\Local\Temp\ccxfbC9q.s 			page 58


2346:.\Generated_Source\PSoC5/LED_Driver_Gear.c **** *  Sets or clears the decimal point at the specified position.
2347:.\Generated_Source\PSoC5/LED_Driver_Gear.c **** *
2348:.\Generated_Source\PSoC5/LED_Driver_Gear.c **** * Parameters:
2349:.\Generated_Source\PSoC5/LED_Driver_Gear.c **** *  uint8 dp: If the value is > 0 the decimal point will be set, if zero, the 
2350:.\Generated_Source\PSoC5/LED_Driver_Gear.c **** *            decimal point will be cleared.
2351:.\Generated_Source\PSoC5/LED_Driver_Gear.c **** *  uint8 position: The position at which to adjust the decimal point.
2352:.\Generated_Source\PSoC5/LED_Driver_Gear.c **** * Return:
2353:.\Generated_Source\PSoC5/LED_Driver_Gear.c **** *  None
2354:.\Generated_Source\PSoC5/LED_Driver_Gear.c **** *
2355:.\Generated_Source\PSoC5/LED_Driver_Gear.c **** * Side effects:
2356:.\Generated_Source\PSoC5/LED_Driver_Gear.c **** *  None
2357:.\Generated_Source\PSoC5/LED_Driver_Gear.c **** *
2358:.\Generated_Source\PSoC5/LED_Driver_Gear.c **** *******************************************************************************/
2359:.\Generated_Source\PSoC5/LED_Driver_Gear.c **** void LED_Driver_Gear_PutDecimalPoint(uint8 dp, uint8 position)
2360:.\Generated_Source\PSoC5/LED_Driver_Gear.c **** 
2361:.\Generated_Source\PSoC5/LED_Driver_Gear.c **** {
 867              		.loc 1 2361 0
 868              		.cfi_startproc
 869              		@ args = 0, pretend = 0, frame = 0
 870              		@ frame_needed = 0, uses_anonymous_args = 0
 871              		@ link register save eliminated.
 872              	.LVL100:
2362:.\Generated_Source\PSoC5/LED_Driver_Gear.c ****     uint8 value;
2363:.\Generated_Source\PSoC5/LED_Driver_Gear.c ****     uint8 relPosition;
2364:.\Generated_Source\PSoC5/LED_Driver_Gear.c ****     
2365:.\Generated_Source\PSoC5/LED_Driver_Gear.c ****     value = LED_Driver_Gear_DEC_POINT_VALUE;
2366:.\Generated_Source\PSoC5/LED_Driver_Gear.c ****     
2367:.\Generated_Source\PSoC5/LED_Driver_Gear.c ****     if(position < LED_Driver_Gear_NUM_COM)
 873              		.loc 1 2367 0
 874 0000 0B46     		mov	r3, r1
 875 0002 59B9     		cbnz	r1, .L86
 876              	.LVL101:
2368:.\Generated_Source\PSoC5/LED_Driver_Gear.c ****     {
2369:.\Generated_Source\PSoC5/LED_Driver_Gear.c ****         relPosition = position;
2370:.\Generated_Source\PSoC5/LED_Driver_Gear.c ****         if(dp != 0u)
 877              		.loc 1 2370 0
 878 0004 28B1     		cbz	r0, .L88
2371:.\Generated_Source\PSoC5/LED_Driver_Gear.c ****         {
2372:.\Generated_Source\PSoC5/LED_Driver_Gear.c ****             #if(LED_Driver_Gear_SEG_DRIVE == LED_Driver_Gear_HIGH)
2373:.\Generated_Source\PSoC5/LED_Driver_Gear.c ****                 LED_Driver_Gear_segLBuffer[relPosition] |= value;
 879              		.loc 1 2373 0
 880 0006 0649     		ldr	r1, .L89
 881              	.LVL102:
 882 0008 CA5C     		ldrb	r2, [r1, r3]	@ zero_extendqisi2
 883 000a 62F07F02 		orn	r2, r2, #127
 884 000e CA54     		strb	r2, [r1, r3]
 885 0010 7047     		bx	lr
 886              	.LVL103:
 887              	.L88:
2374:.\Generated_Source\PSoC5/LED_Driver_Gear.c ****             #else
2375:.\Generated_Source\PSoC5/LED_Driver_Gear.c ****                 LED_Driver_Gear_segLBuffer[relPosition] &= value;
2376:.\Generated_Source\PSoC5/LED_Driver_Gear.c ****             #endif /* (LED_Driver_Gear_SEG_DRIVE == LED_Driver_Gear_HIGH) */
2377:.\Generated_Source\PSoC5/LED_Driver_Gear.c ****         }
2378:.\Generated_Source\PSoC5/LED_Driver_Gear.c ****         else
2379:.\Generated_Source\PSoC5/LED_Driver_Gear.c ****         {
2380:.\Generated_Source\PSoC5/LED_Driver_Gear.c ****             #if(LED_Driver_Gear_SEG_DRIVE == LED_Driver_Gear_HIGH)
2381:.\Generated_Source\PSoC5/LED_Driver_Gear.c ****                 LED_Driver_Gear_segLBuffer[relPosition] &= ((uint8)(~(uint8)value));
ARM GAS  C:\Users\charl\AppData\Local\Temp\ccxfbC9q.s 			page 59


 888              		.loc 1 2381 0
 889 0012 0349     		ldr	r1, .L89
 890              	.LVL104:
 891 0014 CA5C     		ldrb	r2, [r1, r3]	@ zero_extendqisi2
 892 0016 02F07F02 		and	r2, r2, #127
 893 001a CA54     		strb	r2, [r1, r3]
 894              	.LVL105:
 895              	.L86:
 896 001c 7047     		bx	lr
 897              	.L90:
 898 001e 00BF     		.align	2
 899              	.L89:
 900 0020 00000000 		.word	LED_Driver_Gear_segLBuffer
 901              		.cfi_endproc
 902              	.LFE32:
 903              		.size	LED_Driver_Gear_PutDecimalPoint, .-LED_Driver_Gear_PutDecimalPoint
 904              		.section	.text.LED_Driver_Gear_GetDecimalPoint,"ax",%progbits
 905              		.align	2
 906              		.global	LED_Driver_Gear_GetDecimalPoint
 907              		.thumb
 908              		.thumb_func
 909              		.type	LED_Driver_Gear_GetDecimalPoint, %function
 910              	LED_Driver_Gear_GetDecimalPoint:
 911              	.LFB33:
2382:.\Generated_Source\PSoC5/LED_Driver_Gear.c ****             #else
2383:.\Generated_Source\PSoC5/LED_Driver_Gear.c ****                 LED_Driver_Gear_segLBuffer[relPosition] |= ((uint8)(~(uint8)value));
2384:.\Generated_Source\PSoC5/LED_Driver_Gear.c ****             #endif /* (LED_Driver_Gear_SEG_DRIVE == LED_Driver_Gear_HIGH) */
2385:.\Generated_Source\PSoC5/LED_Driver_Gear.c ****         }
2386:.\Generated_Source\PSoC5/LED_Driver_Gear.c ****     } 
2387:.\Generated_Source\PSoC5/LED_Driver_Gear.c ****     else if (position < LED_Driver_Gear_TWO_NUM_COM)
2388:.\Generated_Source\PSoC5/LED_Driver_Gear.c ****     {
2389:.\Generated_Source\PSoC5/LED_Driver_Gear.c ****         #if (LED_Driver_Gear_NUM_SEG > 8u)
2390:.\Generated_Source\PSoC5/LED_Driver_Gear.c ****             relPosition = position - LED_Driver_Gear_NUM_COM;
2391:.\Generated_Source\PSoC5/LED_Driver_Gear.c ****             if(dp != 0u)
2392:.\Generated_Source\PSoC5/LED_Driver_Gear.c ****             {
2393:.\Generated_Source\PSoC5/LED_Driver_Gear.c ****                 #if(LED_Driver_Gear_SEG_DRIVE == LED_Driver_Gear_HIGH)
2394:.\Generated_Source\PSoC5/LED_Driver_Gear.c ****                     LED_Driver_Gear_segMBuffer[relPosition] |= value;
2395:.\Generated_Source\PSoC5/LED_Driver_Gear.c ****                 #else
2396:.\Generated_Source\PSoC5/LED_Driver_Gear.c ****                     LED_Driver_Gear_segMBuffer[relPosition] &= value;
2397:.\Generated_Source\PSoC5/LED_Driver_Gear.c ****                 #endif /* (LED_Driver_Gear_SEG_DRIVE == LED_Driver_Gear_HIGH) */
2398:.\Generated_Source\PSoC5/LED_Driver_Gear.c ****             }
2399:.\Generated_Source\PSoC5/LED_Driver_Gear.c ****             else
2400:.\Generated_Source\PSoC5/LED_Driver_Gear.c ****             {
2401:.\Generated_Source\PSoC5/LED_Driver_Gear.c ****                 #if(LED_Driver_Gear_SEG_DRIVE == LED_Driver_Gear_HIGH)
2402:.\Generated_Source\PSoC5/LED_Driver_Gear.c ****                     LED_Driver_Gear_segMBuffer[relPosition] &= ((uint8)(~(uint8)value));
2403:.\Generated_Source\PSoC5/LED_Driver_Gear.c ****                 #else
2404:.\Generated_Source\PSoC5/LED_Driver_Gear.c ****                     LED_Driver_Gear_segMBuffer[relPosition] |= ((uint8)(~(uint8)value));
2405:.\Generated_Source\PSoC5/LED_Driver_Gear.c ****                 #endif /* (LED_Driver_Gear_SEG_DRIVE == LED_Driver_Gear_HIGH) */
2406:.\Generated_Source\PSoC5/LED_Driver_Gear.c ****             }
2407:.\Generated_Source\PSoC5/LED_Driver_Gear.c ****         #endif /* (LED_Driver_Gear_NUM_SEG > 8u) */
2408:.\Generated_Source\PSoC5/LED_Driver_Gear.c ****     } 
2409:.\Generated_Source\PSoC5/LED_Driver_Gear.c ****     else
2410:.\Generated_Source\PSoC5/LED_Driver_Gear.c ****     {
2411:.\Generated_Source\PSoC5/LED_Driver_Gear.c ****         #if (LED_Driver_Gear_NUM_SEG > 16u)
2412:.\Generated_Source\PSoC5/LED_Driver_Gear.c ****             relPosition = position - LED_Driver_Gear_TWO_NUM_COM;
2413:.\Generated_Source\PSoC5/LED_Driver_Gear.c ****             if(relPosition < LED_Driver_Gear_NUM_COM)
2414:.\Generated_Source\PSoC5/LED_Driver_Gear.c ****             {
ARM GAS  C:\Users\charl\AppData\Local\Temp\ccxfbC9q.s 			page 60


2415:.\Generated_Source\PSoC5/LED_Driver_Gear.c ****                 if(dp != 0u)
2416:.\Generated_Source\PSoC5/LED_Driver_Gear.c ****                 {
2417:.\Generated_Source\PSoC5/LED_Driver_Gear.c ****                     #if(LED_Driver_Gear_SEG_DRIVE == LED_Driver_Gear_HIGH)
2418:.\Generated_Source\PSoC5/LED_Driver_Gear.c ****                         LED_Driver_Gear_segHBuffer[relPosition] |= value;
2419:.\Generated_Source\PSoC5/LED_Driver_Gear.c ****                     #else
2420:.\Generated_Source\PSoC5/LED_Driver_Gear.c ****                         LED_Driver_Gear_segHBuffer[relPosition] &= value;
2421:.\Generated_Source\PSoC5/LED_Driver_Gear.c ****                     #endif /* (LED_Driver_Gear_SEG_DRIVE == LED_Driver_Gear_HIGH) */
2422:.\Generated_Source\PSoC5/LED_Driver_Gear.c ****                 }
2423:.\Generated_Source\PSoC5/LED_Driver_Gear.c ****                 else
2424:.\Generated_Source\PSoC5/LED_Driver_Gear.c ****                 {
2425:.\Generated_Source\PSoC5/LED_Driver_Gear.c ****                     #if(LED_Driver_Gear_SEG_DRIVE == LED_Driver_Gear_HIGH)
2426:.\Generated_Source\PSoC5/LED_Driver_Gear.c ****                         LED_Driver_Gear_segHBuffer[relPosition] &= ((uint8)(~(uint8)value));
2427:.\Generated_Source\PSoC5/LED_Driver_Gear.c ****                     #else
2428:.\Generated_Source\PSoC5/LED_Driver_Gear.c ****                         LED_Driver_Gear_segHBuffer[relPosition] |= ((uint8)(~(uint8)value));
2429:.\Generated_Source\PSoC5/LED_Driver_Gear.c ****                     #endif /* (LED_Driver_Gear_SEG_DRIVE == LED_Driver_Gear_HIGH) */
2430:.\Generated_Source\PSoC5/LED_Driver_Gear.c ****                 }
2431:.\Generated_Source\PSoC5/LED_Driver_Gear.c ****             }
2432:.\Generated_Source\PSoC5/LED_Driver_Gear.c ****         #endif /* (LED_Driver_Gear_NUM_SEG > 16u) */
2433:.\Generated_Source\PSoC5/LED_Driver_Gear.c ****     }
2434:.\Generated_Source\PSoC5/LED_Driver_Gear.c **** }
2435:.\Generated_Source\PSoC5/LED_Driver_Gear.c **** 
2436:.\Generated_Source\PSoC5/LED_Driver_Gear.c **** 
2437:.\Generated_Source\PSoC5/LED_Driver_Gear.c **** /*******************************************************************************
2438:.\Generated_Source\PSoC5/LED_Driver_Gear.c **** * Function Name: LED_Driver_Gear_GetDecimalPoint
2439:.\Generated_Source\PSoC5/LED_Driver_Gear.c **** ********************************************************************************
2440:.\Generated_Source\PSoC5/LED_Driver_Gear.c **** *
2441:.\Generated_Source\PSoC5/LED_Driver_Gear.c **** * Summary:
2442:.\Generated_Source\PSoC5/LED_Driver_Gear.c **** *  Returns zero if the decimal point is not set and one if the decimal point 
2443:.\Generated_Source\PSoC5/LED_Driver_Gear.c **** *  is set.
2444:.\Generated_Source\PSoC5/LED_Driver_Gear.c **** *
2445:.\Generated_Source\PSoC5/LED_Driver_Gear.c **** * Parameters:
2446:.\Generated_Source\PSoC5/LED_Driver_Gear.c **** *  uint8 position: The position in which to query the decimal point value.
2447:.\Generated_Source\PSoC5/LED_Driver_Gear.c **** *
2448:.\Generated_Source\PSoC5/LED_Driver_Gear.c **** * Return:
2449:.\Generated_Source\PSoC5/LED_Driver_Gear.c **** *  Returns the current state of the decimal point (segment #7 on a 7-seg 
2450:.\Generated_Source\PSoC5/LED_Driver_Gear.c **** *  display). '1' indicates the decimal point is on. '0' indicates the decimal 
2451:.\Generated_Source\PSoC5/LED_Driver_Gear.c **** *  point is off.
2452:.\Generated_Source\PSoC5/LED_Driver_Gear.c **** *
2453:.\Generated_Source\PSoC5/LED_Driver_Gear.c **** * Side effects:
2454:.\Generated_Source\PSoC5/LED_Driver_Gear.c **** *  None
2455:.\Generated_Source\PSoC5/LED_Driver_Gear.c **** *
2456:.\Generated_Source\PSoC5/LED_Driver_Gear.c **** *******************************************************************************/
2457:.\Generated_Source\PSoC5/LED_Driver_Gear.c **** uint8 LED_Driver_Gear_GetDecimalPoint(uint8 position) 
2458:.\Generated_Source\PSoC5/LED_Driver_Gear.c **** {
 912              		.loc 1 2458 0
 913              		.cfi_startproc
 914              		@ args = 0, pretend = 0, frame = 0
 915              		@ frame_needed = 0, uses_anonymous_args = 0
 916              		@ link register save eliminated.
 917              	.LVL106:
2459:.\Generated_Source\PSoC5/LED_Driver_Gear.c ****     uint8 value;
2460:.\Generated_Source\PSoC5/LED_Driver_Gear.c ****     uint8 relPosition;
2461:.\Generated_Source\PSoC5/LED_Driver_Gear.c ****     uint8 decPointVal = 0u;
2462:.\Generated_Source\PSoC5/LED_Driver_Gear.c ****     
2463:.\Generated_Source\PSoC5/LED_Driver_Gear.c ****     if(position < LED_Driver_Gear_NUM_COM)
 918              		.loc 1 2463 0
 919 0000 18B9     		cbnz	r0, .L93
ARM GAS  C:\Users\charl\AppData\Local\Temp\ccxfbC9q.s 			page 61


 920              	.LVL107:
2464:.\Generated_Source\PSoC5/LED_Driver_Gear.c ****     {
2465:.\Generated_Source\PSoC5/LED_Driver_Gear.c ****         relPosition = position;
2466:.\Generated_Source\PSoC5/LED_Driver_Gear.c ****         decPointVal = (uint8)((uint8)(LED_Driver_Gear_segLBuffer[relPosition]) >> LED_Driver_Gear_D
 921              		.loc 1 2466 0
 922 0002 034A     		ldr	r2, .L94
 923 0004 105C     		ldrb	r0, [r2, r0]	@ zero_extendqisi2
 924              	.LVL108:
 925 0006 C009     		lsrs	r0, r0, #7
 926              	.LVL109:
 927 0008 7047     		bx	lr
 928              	.LVL110:
 929              	.L93:
2461:.\Generated_Source\PSoC5/LED_Driver_Gear.c ****     
 930              		.loc 1 2461 0
 931 000a 0020     		movs	r0, #0
 932              	.LVL111:
2467:.\Generated_Source\PSoC5/LED_Driver_Gear.c ****     } 
2468:.\Generated_Source\PSoC5/LED_Driver_Gear.c ****     else if (position < LED_Driver_Gear_TWO_NUM_COM)
2469:.\Generated_Source\PSoC5/LED_Driver_Gear.c ****     {
2470:.\Generated_Source\PSoC5/LED_Driver_Gear.c ****         #if (LED_Driver_Gear_NUM_SEG > 8u) 
2471:.\Generated_Source\PSoC5/LED_Driver_Gear.c ****             relPosition = position - LED_Driver_Gear_NUM_COM;
2472:.\Generated_Source\PSoC5/LED_Driver_Gear.c ****             decPointVal = (uint8)((uint8)(LED_Driver_Gear_segMBuffer[relPosition]) >> LED_Driver_Ge
2473:.\Generated_Source\PSoC5/LED_Driver_Gear.c ****         #endif /* (LED_Driver_Gear_NUM_SEG > 8u) */
2474:.\Generated_Source\PSoC5/LED_Driver_Gear.c ****     }
2475:.\Generated_Source\PSoC5/LED_Driver_Gear.c ****     else
2476:.\Generated_Source\PSoC5/LED_Driver_Gear.c ****     {
2477:.\Generated_Source\PSoC5/LED_Driver_Gear.c ****         #if (LED_Driver_Gear_NUM_SEG > 16u)
2478:.\Generated_Source\PSoC5/LED_Driver_Gear.c ****             relPosition = position - LED_Driver_Gear_TWO_NUM_COM;
2479:.\Generated_Source\PSoC5/LED_Driver_Gear.c ****             if(relPosition < LED_Driver_Gear_NUM_COM)
2480:.\Generated_Source\PSoC5/LED_Driver_Gear.c ****             {
2481:.\Generated_Source\PSoC5/LED_Driver_Gear.c ****                 decPointVal = (uint8)((uint8)(LED_Driver_Gear_segHBuffer[relPosition]) >> LED_Drive
2482:.\Generated_Source\PSoC5/LED_Driver_Gear.c ****             }
2483:.\Generated_Source\PSoC5/LED_Driver_Gear.c ****         #endif /* (LED_Driver_Gear_NUM_SEG > 16u) */
2484:.\Generated_Source\PSoC5/LED_Driver_Gear.c ****     }
2485:.\Generated_Source\PSoC5/LED_Driver_Gear.c ****     
2486:.\Generated_Source\PSoC5/LED_Driver_Gear.c ****     #if(LED_Driver_Gear_SEG_DRIVE == LED_Driver_Gear_HIGH)
2487:.\Generated_Source\PSoC5/LED_Driver_Gear.c ****         value = (uint8)(decPointVal & LED_Driver_Gear_DEC_POINT_MASK);
2488:.\Generated_Source\PSoC5/LED_Driver_Gear.c ****     #else
2489:.\Generated_Source\PSoC5/LED_Driver_Gear.c ****         value = (uint8)((uint8)((uint8)~decPointVal) & LED_Driver_Gear_DEC_POINT_MASK);
2490:.\Generated_Source\PSoC5/LED_Driver_Gear.c ****     #endif /* (LED_Driver_Gear_SEG_DRIVE == LED_Driver_Gear_HIGH) */
2491:.\Generated_Source\PSoC5/LED_Driver_Gear.c ****     
2492:.\Generated_Source\PSoC5/LED_Driver_Gear.c ****     return(value);
2493:.\Generated_Source\PSoC5/LED_Driver_Gear.c **** }
 933              		.loc 1 2493 0
 934 000c 7047     		bx	lr
 935              	.L95:
 936 000e 00BF     		.align	2
 937              	.L94:
 938 0010 00000000 		.word	LED_Driver_Gear_segLBuffer
 939              		.cfi_endproc
 940              	.LFE33:
 941              		.size	LED_Driver_Gear_GetDecimalPoint, .-LED_Driver_Gear_GetDecimalPoint
 942              		.section	.text.LED_Driver_Gear_EncodeNumber7Seg,"ax",%progbits
 943              		.align	2
 944              		.global	LED_Driver_Gear_EncodeNumber7Seg
 945              		.thumb
ARM GAS  C:\Users\charl\AppData\Local\Temp\ccxfbC9q.s 			page 62


 946              		.thumb_func
 947              		.type	LED_Driver_Gear_EncodeNumber7Seg, %function
 948              	LED_Driver_Gear_EncodeNumber7Seg:
 949              	.LFB34:
2494:.\Generated_Source\PSoC5/LED_Driver_Gear.c **** 
2495:.\Generated_Source\PSoC5/LED_Driver_Gear.c **** 
2496:.\Generated_Source\PSoC5/LED_Driver_Gear.c **** /*******************************************************************************
2497:.\Generated_Source\PSoC5/LED_Driver_Gear.c **** * Function Name: LED_Driver_Gear_EncodeNumber7Seg
2498:.\Generated_Source\PSoC5/LED_Driver_Gear.c **** ********************************************************************************
2499:.\Generated_Source\PSoC5/LED_Driver_Gear.c **** *
2500:.\Generated_Source\PSoC5/LED_Driver_Gear.c **** * Summary:
2501:.\Generated_Source\PSoC5/LED_Driver_Gear.c **** *  Converts the lower 4 bits of the input into 7-segment data that will display 
2502:.\Generated_Source\PSoC5/LED_Driver_Gear.c **** *  the number in hex on a display. The returned data can be written directly 
2503:.\Generated_Source\PSoC5/LED_Driver_Gear.c **** *  into the display RAM to display the desired number. It is not necessary to 
2504:.\Generated_Source\PSoC5/LED_Driver_Gear.c **** *  use this function since higher level API are provided to both decode the 
2505:.\Generated_Source\PSoC5/LED_Driver_Gear.c **** *  value and write it to the display RAM.
2506:.\Generated_Source\PSoC5/LED_Driver_Gear.c **** *
2507:.\Generated_Source\PSoC5/LED_Driver_Gear.c **** * Parameters:
2508:.\Generated_Source\PSoC5/LED_Driver_Gear.c **** *  uint8 number: A number between 0x0 and 0xF to be converted into segment data.
2509:.\Generated_Source\PSoC5/LED_Driver_Gear.c **** *
2510:.\Generated_Source\PSoC5/LED_Driver_Gear.c **** * Return:
2511:.\Generated_Source\PSoC5/LED_Driver_Gear.c **** *  The value to be written into the display RAM for displaying the specific
2512:.\Generated_Source\PSoC5/LED_Driver_Gear.c **** *  number.
2513:.\Generated_Source\PSoC5/LED_Driver_Gear.c **** *
2514:.\Generated_Source\PSoC5/LED_Driver_Gear.c **** * Side effects:
2515:.\Generated_Source\PSoC5/LED_Driver_Gear.c **** *  None
2516:.\Generated_Source\PSoC5/LED_Driver_Gear.c **** *
2517:.\Generated_Source\PSoC5/LED_Driver_Gear.c **** *******************************************************************************/
2518:.\Generated_Source\PSoC5/LED_Driver_Gear.c **** uint8 LED_Driver_Gear_EncodeNumber7Seg(uint8 number) 
2519:.\Generated_Source\PSoC5/LED_Driver_Gear.c **** {
 950              		.loc 1 2519 0
 951              		.cfi_startproc
 952              		@ args = 0, pretend = 0, frame = 0
 953              		@ frame_needed = 0, uses_anonymous_args = 0
 954              		@ link register save eliminated.
 955              	.LVL112:
2520:.\Generated_Source\PSoC5/LED_Driver_Gear.c ****     /* 7-segment numerical LUT */
2521:.\Generated_Source\PSoC5/LED_Driver_Gear.c ****     #if(LED_Driver_Gear_SEG_DRIVE == LED_Driver_Gear_HIGH)
2522:.\Generated_Source\PSoC5/LED_Driver_Gear.c ****         static const uint8 CYCODE LED_Driver_Gear_7SegDigits[16] =
2523:.\Generated_Source\PSoC5/LED_Driver_Gear.c ****               /*--------------------------------------------------------*/
2524:.\Generated_Source\PSoC5/LED_Driver_Gear.c ****               /*  '0'    '1'    '2'    '3'    '4'    '5'    '6'    '7'  */
2525:.\Generated_Source\PSoC5/LED_Driver_Gear.c ****               /*--------------------------------------------------------*/
2526:.\Generated_Source\PSoC5/LED_Driver_Gear.c ****                 {0x3fu, 0x06u, 0x5bu, 0x4fu, 0x66u, 0x6du, 0x7du, 0x07u,
2527:.\Generated_Source\PSoC5/LED_Driver_Gear.c ****               /*--------------------------------------------------------*/
2528:.\Generated_Source\PSoC5/LED_Driver_Gear.c ****               /*  '8'    '9'    'A'    'B'    'C'    'D'    'E'    'F'  */
2529:.\Generated_Source\PSoC5/LED_Driver_Gear.c ****               /*--------------------------------------------------------*/
2530:.\Generated_Source\PSoC5/LED_Driver_Gear.c ****                  0x7fu, 0x6fu, 0x77u, 0x7cu, 0x39u, 0x5eu, 0x79u, 0x71u};
2531:.\Generated_Source\PSoC5/LED_Driver_Gear.c ****     #else
2532:.\Generated_Source\PSoC5/LED_Driver_Gear.c ****         static const uint8 CYCODE LED_Driver_Gear_7SegDigits[16] =
2533:.\Generated_Source\PSoC5/LED_Driver_Gear.c ****               /*--------------------------------------------------------*/
2534:.\Generated_Source\PSoC5/LED_Driver_Gear.c ****               /*  '0'    '1'    '2'    '3'    '4'    '5'    '6'    '7'  */
2535:.\Generated_Source\PSoC5/LED_Driver_Gear.c ****               /*--------------------------------------------------------*/
2536:.\Generated_Source\PSoC5/LED_Driver_Gear.c ****                 {0xc0u, 0xf9u, 0xa4u, 0xb0u, 0x99u, 0x92u, 0x82u, 0xf8u,
2537:.\Generated_Source\PSoC5/LED_Driver_Gear.c ****               /*--------------------------------------------------------*/
2538:.\Generated_Source\PSoC5/LED_Driver_Gear.c ****               /*  '8'    '9'    'A'    'B'    'C'    'D'    'E'    'F'  */
2539:.\Generated_Source\PSoC5/LED_Driver_Gear.c ****               /*--------------------------------------------------------*/
2540:.\Generated_Source\PSoC5/LED_Driver_Gear.c ****                  0x80u, 0x90u, 0x88u, 0x83u, 0xc6u, 0xa1u, 0x86u, 0x8eu};
ARM GAS  C:\Users\charl\AppData\Local\Temp\ccxfbC9q.s 			page 63


2541:.\Generated_Source\PSoC5/LED_Driver_Gear.c ****     #endif /*  LED_Driver_Gear_SEG_DRIVE */
2542:.\Generated_Source\PSoC5/LED_Driver_Gear.c **** 
2543:.\Generated_Source\PSoC5/LED_Driver_Gear.c ****     uint8 valNum;
2544:.\Generated_Source\PSoC5/LED_Driver_Gear.c ****     uint8 valHex;
2545:.\Generated_Source\PSoC5/LED_Driver_Gear.c ****     
2546:.\Generated_Source\PSoC5/LED_Driver_Gear.c ****     valNum = (uint8)(number & LED_Driver_Gear_NIBBLE_MASK);
 956              		.loc 1 2546 0
 957 0000 00F00F00 		and	r0, r0, #15
 958              	.LVL113:
2547:.\Generated_Source\PSoC5/LED_Driver_Gear.c ****     
2548:.\Generated_Source\PSoC5/LED_Driver_Gear.c ****     valHex = LED_Driver_Gear_7SegDigits[valNum];
2549:.\Generated_Source\PSoC5/LED_Driver_Gear.c ****     
2550:.\Generated_Source\PSoC5/LED_Driver_Gear.c ****     return(valHex);
2551:.\Generated_Source\PSoC5/LED_Driver_Gear.c **** }
 959              		.loc 1 2551 0
 960 0004 014B     		ldr	r3, .L97
 961 0006 185C     		ldrb	r0, [r3, r0]	@ zero_extendqisi2
 962              	.LVL114:
 963 0008 7047     		bx	lr
 964              	.L98:
 965 000a 00BF     		.align	2
 966              	.L97:
 967 000c 00000000 		.word	.LANCHOR2
 968              		.cfi_endproc
 969              	.LFE34:
 970              		.size	LED_Driver_Gear_EncodeNumber7Seg, .-LED_Driver_Gear_EncodeNumber7Seg
 971              		.section	.text.LED_Driver_Gear_Write7SegNumberHex,"ax",%progbits
 972              		.align	2
 973              		.global	LED_Driver_Gear_Write7SegNumberHex
 974              		.thumb
 975              		.thumb_func
 976              		.type	LED_Driver_Gear_Write7SegNumberHex, %function
 977              	LED_Driver_Gear_Write7SegNumberHex:
 978              	.LFB15:
1122:.\Generated_Source\PSoC5/LED_Driver_Gear.c ****     uint8 i;
 979              		.loc 1 1122 0
 980              		.cfi_startproc
 981              		@ args = 0, pretend = 0, frame = 8
 982              		@ frame_needed = 0, uses_anonymous_args = 0
 983              	.LVL115:
 984 0000 2DE9F043 		push	{r4, r5, r6, r7, r8, r9, lr}
 985              		.cfi_def_cfa_offset 28
 986              		.cfi_offset 4, -28
 987              		.cfi_offset 5, -24
 988              		.cfi_offset 6, -20
 989              		.cfi_offset 7, -16
 990              		.cfi_offset 8, -12
 991              		.cfi_offset 9, -8
 992              		.cfi_offset 14, -4
 993 0004 83B0     		sub	sp, sp, #12
 994              		.cfi_def_cfa_offset 40
 995 0006 8146     		mov	r9, r0
 996 0008 1446     		mov	r4, r2
 997 000a 9846     		mov	r8, r3
 998              	.LVL116:
1128:.\Generated_Source\PSoC5/LED_Driver_Gear.c ****     uint32 numberVal;
 999              		.loc 1 1128 0
ARM GAS  C:\Users\charl\AppData\Local\Temp\ccxfbC9q.s 			page 64


 1000 000c 0023     		movs	r3, #0
 1001              	.LVL117:
 1002 000e 0093     		str	r3, [sp]
 1003 0010 0193     		str	r3, [sp, #4]
 1004              	.LVL118:
1134:.\Generated_Source\PSoC5/LED_Driver_Gear.c ****     {
 1005              		.loc 1 1134 0
 1006 0012 0E46     		mov	r6, r1
 1007 0014 49B1     		cbz	r1, .L125
1139:.\Generated_Source\PSoC5/LED_Driver_Gear.c ****     {
 1008              		.loc 1 1139 0
 1009 0016 0129     		cmp	r1, #1
 1010 0018 03D8     		bhi	.L101
 1011              	.LVL119:
1142:.\Generated_Source\PSoC5/LED_Driver_Gear.c ****     }
 1012              		.loc 1 1142 0
 1013 001a 4E1E     		subs	r6, r1, #1
 1014 001c F6B2     		uxtb	r6, r6
 1015              	.LVL120:
1141:.\Generated_Source\PSoC5/LED_Driver_Gear.c ****         relPosition = position - LED_Driver_Gear_NUM_COM;
 1016              		.loc 1 1141 0
 1017 001e 0127     		movs	r7, #1
 1018 0020 04E0     		b	.L100
 1019              	.LVL121:
 1020              	.L101:
1147:.\Generated_Source\PSoC5/LED_Driver_Gear.c ****     }
 1021              		.loc 1 1147 0
 1022 0022 8E1E     		subs	r6, r1, #2
 1023 0024 F6B2     		uxtb	r6, r6
 1024              	.LVL122:
1146:.\Generated_Source\PSoC5/LED_Driver_Gear.c ****         relPosition = position - LED_Driver_Gear_TWO_NUM_COM;
 1025              		.loc 1 1146 0
 1026 0026 0227     		movs	r7, #2
 1027 0028 00E0     		b	.L100
 1028              	.LVL123:
 1029              	.L125:
1136:.\Generated_Source\PSoC5/LED_Driver_Gear.c ****         relPosition = position;
 1030              		.loc 1 1136 0
 1031 002a 0027     		movs	r7, #0
 1032              	.L100:
 1033              	.LVL124:
1151:.\Generated_Source\PSoC5/LED_Driver_Gear.c ****     {
 1034              		.loc 1 1151 0
 1035 002c 2346     		mov	r3, r4
 1036 002e 0BE0     		b	.L102
 1037              	.LVL125:
 1038              	.L103:
1154:.\Generated_Source\PSoC5/LED_Driver_Gear.c ****         numberVal = (uint32)((uint32)numberVal >> LED_Driver_Gear_SHIFT_NIBBLE);
 1039              		.loc 1 1154 0 discriminator 3
 1040 0030 5D1E     		subs	r5, r3, #1
 1041 0032 09F00F00 		and	r0, r9, #15
 1042 0036 FFF7FEFF 		bl	LED_Driver_Gear_EncodeNumber7Seg
 1043              	.LVL126:
 1044 003a 02AB     		add	r3, sp, #8
 1045 003c 2B44     		add	r3, r3, r5
 1046 003e 03F8080C 		strb	r0, [r3, #-8]
1155:.\Generated_Source\PSoC5/LED_Driver_Gear.c ****     }
ARM GAS  C:\Users\charl\AppData\Local\Temp\ccxfbC9q.s 			page 65


 1047              		.loc 1 1155 0 discriminator 3
 1048 0042 4FEA1919 		lsr	r9, r9, #4
 1049              	.LVL127:
1151:.\Generated_Source\PSoC5/LED_Driver_Gear.c ****     {
 1050              		.loc 1 1151 0 discriminator 3
 1051 0046 EBB2     		uxtb	r3, r5
 1052              	.LVL128:
 1053              	.L102:
1151:.\Generated_Source\PSoC5/LED_Driver_Gear.c ****     {
 1054              		.loc 1 1151 0 is_stmt 0 discriminator 1
 1055 0048 002B     		cmp	r3, #0
 1056 004a F1D1     		bne	.L103
1159:.\Generated_Source\PSoC5/LED_Driver_Gear.c ****     {
 1057              		.loc 1 1159 0 is_stmt 1
 1058 004c B8F1020F 		cmp	r8, #2
 1059 0050 14D1     		bne	.L126
 1060 0052 17E0     		b	.L105
 1061              	.LVL129:
 1062              	.L107:
1163:.\Generated_Source\PSoC5/LED_Driver_Gear.c ****             {
 1063              		.loc 1 1163 0
 1064 0054 1946     		mov	r1, r3
 1065 0056 02A8     		add	r0, sp, #8
 1066 0058 1844     		add	r0, r0, r3
 1067 005a 10F8080C 		ldrb	r0, [r0, #-8]	@ zero_extendqisi2
 1068 005e 3F28     		cmp	r0, #63
 1069 0060 10D1     		bne	.L105
1170:.\Generated_Source\PSoC5/LED_Driver_Gear.c ****                 {
 1070              		.loc 1 1170 0
 1071 0062 601E     		subs	r0, r4, #1
 1072 0064 8242     		cmp	r2, r0
 1073 0066 06D0     		beq	.L106
1173:.\Generated_Source\PSoC5/LED_Driver_Gear.c ****                     zeroCount++;
 1074              		.loc 1 1173 0
 1075 0068 02A8     		add	r0, sp, #8
 1076 006a 0144     		add	r1, r1, r0
 1077 006c 0020     		movs	r0, #0
 1078 006e 01F8080C 		strb	r0, [r1, #-8]
1174:.\Generated_Source\PSoC5/LED_Driver_Gear.c ****                 }
 1079              		.loc 1 1174 0
 1080 0072 0132     		adds	r2, r2, #1
 1081              	.LVL130:
 1082 0074 D2B2     		uxtb	r2, r2
 1083              	.LVL131:
 1084              	.L106:
1161:.\Generated_Source\PSoC5/LED_Driver_Gear.c ****         {
 1085              		.loc 1 1161 0 discriminator 2
 1086 0076 0133     		adds	r3, r3, #1
 1087              	.LVL132:
 1088 0078 DBB2     		uxtb	r3, r3
 1089              	.LVL133:
 1090 007a 01E0     		b	.L104
 1091              	.LVL134:
 1092              	.L126:
 1093 007c 0022     		movs	r2, #0
 1094 007e 1346     		mov	r3, r2
 1095              	.LVL135:
ARM GAS  C:\Users\charl\AppData\Local\Temp\ccxfbC9q.s 			page 66


 1096              	.L104:
1161:.\Generated_Source\PSoC5/LED_Driver_Gear.c ****         {
 1097              		.loc 1 1161 0 is_stmt 0 discriminator 1
 1098 0080 A342     		cmp	r3, r4
 1099 0082 E7D3     		bcc	.L107
 1100              	.LVL136:
 1101              	.L105:
1181:.\Generated_Source\PSoC5/LED_Driver_Gear.c ****     {
 1102              		.loc 1 1181 0 is_stmt 1
 1103 0084 B8F1010F 		cmp	r8, #1
 1104 0088 40D1     		bne	.L109
 1105 008a 13E0     		b	.L127
 1106              	.L114:
1185:.\Generated_Source\PSoC5/LED_Driver_Gear.c ****             {
 1107              		.loc 1 1185 0
 1108 008c 02AA     		add	r2, sp, #8
 1109 008e 1A44     		add	r2, r2, r3
 1110 0090 12F8082C 		ldrb	r2, [r2, #-8]	@ zero_extendqisi2
 1111 0094 5AB1     		cbz	r2, .L110
1187:.\Generated_Source\PSoC5/LED_Driver_Gear.c ****                 {
 1112              		.loc 1 1187 0
 1113 0096 46B9     		cbnz	r6, .L111
1190:.\Generated_Source\PSoC5/LED_Driver_Gear.c ****                     {
 1114              		.loc 1 1190 0
 1115 0098 17B1     		cbz	r7, .L113
 1116 009a 022F     		cmp	r7, #2
 1117 009c 03D8     		bhi	.L112
 1118 009e 04E0     		b	.L111
 1119              	.L113:
1193:.\Generated_Source\PSoC5/LED_Driver_Gear.c ****                             break;
 1120              		.loc 1 1193 0
 1121 00a0 1D49     		ldr	r1, .L129
 1122 00a2 8A55     		strb	r2, [r1, r6]
1194:.\Generated_Source\PSoC5/LED_Driver_Gear.c ****                         case LED_Driver_Gear_SEG_REG_MID :
 1123              		.loc 1 1194 0
 1124 00a4 01E0     		b	.L111
 1125              	.L112:
1206:.\Generated_Source\PSoC5/LED_Driver_Gear.c ****                             break;
 1126              		.loc 1 1206 0
 1127 00a6 1C49     		ldr	r1, .L129
 1128 00a8 8A55     		strb	r2, [r1, r6]
 1129              	.L111:
1210:.\Generated_Source\PSoC5/LED_Driver_Gear.c ****             }
 1130              		.loc 1 1210 0
 1131 00aa 0136     		adds	r6, r6, #1
 1132              	.LVL137:
 1133 00ac F6B2     		uxtb	r6, r6
 1134              	.LVL138:
 1135              	.L110:
1183:.\Generated_Source\PSoC5/LED_Driver_Gear.c ****         {
 1136              		.loc 1 1183 0 discriminator 2
 1137 00ae 0133     		adds	r3, r3, #1
 1138              	.LVL139:
 1139 00b0 DBB2     		uxtb	r3, r3
 1140              	.LVL140:
 1141 00b2 00E0     		b	.L108
 1142              	.L127:
ARM GAS  C:\Users\charl\AppData\Local\Temp\ccxfbC9q.s 			page 67


 1143 00b4 0023     		movs	r3, #0
 1144              	.LVL141:
 1145              	.L108:
1183:.\Generated_Source\PSoC5/LED_Driver_Gear.c ****         {
 1146              		.loc 1 1183 0 is_stmt 0 discriminator 1
 1147 00b6 A342     		cmp	r3, r4
 1148 00b8 E8D3     		bcc	.L114
 1149 00ba 0CE0     		b	.L115
 1150              	.LVL142:
 1151              	.L119:
1216:.\Generated_Source\PSoC5/LED_Driver_Gear.c ****             {
 1152              		.loc 1 1216 0 is_stmt 1
 1153 00bc 17B1     		cbz	r7, .L117
 1154 00be 022F     		cmp	r7, #2
 1155 00c0 04D8     		bhi	.L116
 1156 00c2 06E0     		b	.L118
 1157              	.L117:
1219:.\Generated_Source\PSoC5/LED_Driver_Gear.c ****                     break;
 1158              		.loc 1 1219 0
 1159 00c4 0022     		movs	r2, #0
 1160 00c6 144B     		ldr	r3, .L129
 1161 00c8 9A55     		strb	r2, [r3, r6]
1220:.\Generated_Source\PSoC5/LED_Driver_Gear.c ****                 case LED_Driver_Gear_SEG_REG_MID :
 1162              		.loc 1 1220 0
 1163 00ca 02E0     		b	.L118
 1164              	.L116:
1232:.\Generated_Source\PSoC5/LED_Driver_Gear.c ****                     break;
 1165              		.loc 1 1232 0
 1166 00cc 0022     		movs	r2, #0
 1167 00ce 124B     		ldr	r3, .L129
 1168 00d0 9A55     		strb	r2, [r3, r6]
 1169              	.L118:
1235:.\Generated_Source\PSoC5/LED_Driver_Gear.c ****         }
 1170              		.loc 1 1235 0
 1171 00d2 0136     		adds	r6, r6, #1
 1172              	.LVL143:
 1173 00d4 F6B2     		uxtb	r6, r6
 1174              	.LVL144:
 1175              	.L115:
1214:.\Generated_Source\PSoC5/LED_Driver_Gear.c ****         {
 1176              		.loc 1 1214 0
 1177 00d6 A642     		cmp	r6, r4
 1178 00d8 F0D3     		bcc	.L119
 1179 00da 19E0     		b	.L99
 1180              	.LVL145:
 1181              	.L124:
1243:.\Generated_Source\PSoC5/LED_Driver_Gear.c ****             {
 1182              		.loc 1 1243 0
 1183 00dc A319     		adds	r3, r4, r6
 1184 00de 012B     		cmp	r3, #1
 1185 00e0 12D1     		bne	.L121
1246:.\Generated_Source\PSoC5/LED_Driver_Gear.c ****                 {
 1186              		.loc 1 1246 0
 1187 00e2 17B1     		cbz	r7, .L123
 1188 00e4 022F     		cmp	r7, #2
 1189 00e6 08D8     		bhi	.L122
 1190 00e8 0EE0     		b	.L121
ARM GAS  C:\Users\charl\AppData\Local\Temp\ccxfbC9q.s 			page 68


 1191              	.L123:
1249:.\Generated_Source\PSoC5/LED_Driver_Gear.c ****                         break;
 1192              		.loc 1 1249 0
 1193 00ea 013B     		subs	r3, r3, #1
 1194 00ec 02AA     		add	r2, sp, #8
 1195 00ee 2244     		add	r2, r2, r4
 1196 00f0 12F8091C 		ldrb	r1, [r2, #-9]	@ zero_extendqisi2
 1197 00f4 084A     		ldr	r2, .L129
 1198 00f6 D154     		strb	r1, [r2, r3]
1250:.\Generated_Source\PSoC5/LED_Driver_Gear.c ****                     case LED_Driver_Gear_SEG_REG_MID :
 1199              		.loc 1 1250 0
 1200 00f8 06E0     		b	.L121
 1201              	.L122:
1262:.\Generated_Source\PSoC5/LED_Driver_Gear.c ****                         break;
 1202              		.loc 1 1262 0
 1203 00fa 013B     		subs	r3, r3, #1
 1204 00fc 02AA     		add	r2, sp, #8
 1205 00fe 2244     		add	r2, r2, r4
 1206 0100 12F8091C 		ldrb	r1, [r2, #-9]	@ zero_extendqisi2
 1207 0104 044A     		ldr	r2, .L129
 1208 0106 D154     		strb	r1, [r2, r3]
 1209              	.L121:
1241:.\Generated_Source\PSoC5/LED_Driver_Gear.c ****         {
 1210              		.loc 1 1241 0 discriminator 2
 1211 0108 013C     		subs	r4, r4, #1
 1212              	.LVL146:
 1213 010a E4B2     		uxtb	r4, r4
 1214              	.LVL147:
 1215              	.L109:
1241:.\Generated_Source\PSoC5/LED_Driver_Gear.c ****         {
 1216              		.loc 1 1241 0 is_stmt 0 discriminator 1
 1217 010c 002C     		cmp	r4, #0
 1218 010e E5D1     		bne	.L124
 1219              	.LVL148:
 1220              	.L99:
1268:.\Generated_Source\PSoC5/LED_Driver_Gear.c **** 
 1221              		.loc 1 1268 0 is_stmt 1
 1222 0110 03B0     		add	sp, sp, #12
 1223              		.cfi_def_cfa_offset 28
 1224              		@ sp needed
 1225 0112 BDE8F083 		pop	{r4, r5, r6, r7, r8, r9, pc}
 1226              	.LVL149:
 1227              	.L130:
 1228 0116 00BF     		.align	2
 1229              	.L129:
 1230 0118 00000000 		.word	LED_Driver_Gear_segLBuffer
 1231              		.cfi_endproc
 1232              	.LFE15:
 1233              		.size	LED_Driver_Gear_Write7SegNumberHex, .-LED_Driver_Gear_Write7SegNumberHex
 1234              		.section	.text.LED_Driver_Gear_Write7SegDigitDec,"ax",%progbits
 1235              		.align	2
 1236              		.global	LED_Driver_Gear_Write7SegDigitDec
 1237              		.thumb
 1238              		.thumb_func
 1239              		.type	LED_Driver_Gear_Write7SegDigitDec, %function
 1240              	LED_Driver_Gear_Write7SegDigitDec:
 1241              	.LFB18:
ARM GAS  C:\Users\charl\AppData\Local\Temp\ccxfbC9q.s 			page 69


1417:.\Generated_Source\PSoC5/LED_Driver_Gear.c ****     uint8 relPosition;
 1242              		.loc 1 1417 0
 1243              		.cfi_startproc
 1244              		@ args = 0, pretend = 0, frame = 0
 1245              		@ frame_needed = 0, uses_anonymous_args = 0
 1246              	.LVL150:
1421:.\Generated_Source\PSoC5/LED_Driver_Gear.c ****     {
 1247              		.loc 1 1421 0
 1248 0000 0928     		cmp	r0, #9
 1249 0002 07D8     		bhi	.L134
1423:.\Generated_Source\PSoC5/LED_Driver_Gear.c ****         {
 1250              		.loc 1 1423 0
 1251 0004 31B9     		cbnz	r1, .L134
1417:.\Generated_Source\PSoC5/LED_Driver_Gear.c ****     uint8 relPosition;
 1252              		.loc 1 1417 0
 1253 0006 10B5     		push	{r4, lr}
 1254              		.cfi_def_cfa_offset 8
 1255              		.cfi_offset 4, -8
 1256              		.cfi_offset 14, -4
 1257 0008 0C46     		mov	r4, r1
 1258              	.LVL151:
1426:.\Generated_Source\PSoC5/LED_Driver_Gear.c ****         }    
 1259              		.loc 1 1426 0
 1260 000a FFF7FEFF 		bl	LED_Driver_Gear_EncodeNumber7Seg
 1261              	.LVL152:
 1262 000e 024B     		ldr	r3, .L135
 1263 0010 1855     		strb	r0, [r3, r4]
 1264 0012 10BD     		pop	{r4, pc}
 1265              	.LVL153:
 1266              	.L134:
 1267              		.cfi_def_cfa_offset 0
 1268              		.cfi_restore 4
 1269              		.cfi_restore 14
 1270 0014 7047     		bx	lr
 1271              	.L136:
 1272 0016 00BF     		.align	2
 1273              	.L135:
 1274 0018 00000000 		.word	LED_Driver_Gear_segLBuffer
 1275              		.cfi_endproc
 1276              	.LFE18:
 1277              		.size	LED_Driver_Gear_Write7SegDigitDec, .-LED_Driver_Gear_Write7SegDigitDec
 1278              		.section	.text.LED_Driver_Gear_Write7SegDigitHex,"ax",%progbits
 1279              		.align	2
 1280              		.global	LED_Driver_Gear_Write7SegDigitHex
 1281              		.thumb
 1282              		.thumb_func
 1283              		.type	LED_Driver_Gear_Write7SegDigitHex, %function
 1284              	LED_Driver_Gear_Write7SegDigitHex:
 1285              	.LFB19:
1470:.\Generated_Source\PSoC5/LED_Driver_Gear.c ****     uint8 relPosition;
 1286              		.loc 1 1470 0
 1287              		.cfi_startproc
 1288              		@ args = 0, pretend = 0, frame = 0
 1289              		@ frame_needed = 0, uses_anonymous_args = 0
 1290              	.LVL154:
1473:.\Generated_Source\PSoC5/LED_Driver_Gear.c ****     {
 1291              		.loc 1 1473 0
ARM GAS  C:\Users\charl\AppData\Local\Temp\ccxfbC9q.s 			page 70


 1292 0000 31B9     		cbnz	r1, .L140
1470:.\Generated_Source\PSoC5/LED_Driver_Gear.c ****     uint8 relPosition;
 1293              		.loc 1 1470 0
 1294 0002 10B5     		push	{r4, lr}
 1295              		.cfi_def_cfa_offset 8
 1296              		.cfi_offset 4, -8
 1297              		.cfi_offset 14, -4
 1298 0004 0C46     		mov	r4, r1
 1299              	.LVL155:
1476:.\Generated_Source\PSoC5/LED_Driver_Gear.c ****     }    
 1300              		.loc 1 1476 0
 1301 0006 FFF7FEFF 		bl	LED_Driver_Gear_EncodeNumber7Seg
 1302              	.LVL156:
 1303 000a 024B     		ldr	r3, .L141
 1304 000c 1855     		strb	r0, [r3, r4]
 1305 000e 10BD     		pop	{r4, pc}
 1306              	.LVL157:
 1307              	.L140:
 1308              		.cfi_def_cfa_offset 0
 1309              		.cfi_restore 4
 1310              		.cfi_restore 14
 1311 0010 7047     		bx	lr
 1312              	.L142:
 1313 0012 00BF     		.align	2
 1314              	.L141:
 1315 0014 00000000 		.word	LED_Driver_Gear_segLBuffer
 1316              		.cfi_endproc
 1317              	.LFE19:
 1318              		.size	LED_Driver_Gear_Write7SegDigitHex, .-LED_Driver_Gear_Write7SegDigitHex
 1319              		.section	.text.LED_Driver_Gear_EncodeChar7Seg,"ax",%progbits
 1320              		.align	2
 1321              		.global	LED_Driver_Gear_EncodeChar7Seg
 1322              		.thumb
 1323              		.thumb_func
 1324              		.type	LED_Driver_Gear_EncodeChar7Seg, %function
 1325              	LED_Driver_Gear_EncodeChar7Seg:
 1326              	.LFB35:
2552:.\Generated_Source\PSoC5/LED_Driver_Gear.c **** 
2553:.\Generated_Source\PSoC5/LED_Driver_Gear.c **** 
2554:.\Generated_Source\PSoC5/LED_Driver_Gear.c **** /*******************************************************************************
2555:.\Generated_Source\PSoC5/LED_Driver_Gear.c **** * Function Name: LED_Driver_Gear_EncodeChar7Seg
2556:.\Generated_Source\PSoC5/LED_Driver_Gear.c **** ********************************************************************************
2557:.\Generated_Source\PSoC5/LED_Driver_Gear.c **** *
2558:.\Generated_Source\PSoC5/LED_Driver_Gear.c **** * Summary:
2559:.\Generated_Source\PSoC5/LED_Driver_Gear.c **** *  Converts the ASCII encoded alphabet character input into the 7-segment data
2560:.\Generated_Source\PSoC5/LED_Driver_Gear.c **** *  that will display the alphabet character on a display. The returned data can
2561:.\Generated_Source\PSoC5/LED_Driver_Gear.c **** *  be written directly into the display RAM to display the desired number. It is
2562:.\Generated_Source\PSoC5/LED_Driver_Gear.c **** *  not necessary to use this function since higher level API are provided to 
2563:.\Generated_Source\PSoC5/LED_Driver_Gear.c **** *  both decode the value and write it to the display RAM.
2564:.\Generated_Source\PSoC5/LED_Driver_Gear.c **** *
2565:.\Generated_Source\PSoC5/LED_Driver_Gear.c **** * Parameters:
2566:.\Generated_Source\PSoC5/LED_Driver_Gear.c **** *  char8 input: An ASCII alphabet character to be converted into segment data.
2567:.\Generated_Source\PSoC5/LED_Driver_Gear.c **** *
2568:.\Generated_Source\PSoC5/LED_Driver_Gear.c **** * Return:
2569:.\Generated_Source\PSoC5/LED_Driver_Gear.c **** *  The value to be written into the display RAM for displaying the specified
2570:.\Generated_Source\PSoC5/LED_Driver_Gear.c **** *  character.
2571:.\Generated_Source\PSoC5/LED_Driver_Gear.c **** *
ARM GAS  C:\Users\charl\AppData\Local\Temp\ccxfbC9q.s 			page 71


2572:.\Generated_Source\PSoC5/LED_Driver_Gear.c **** * Side effects:
2573:.\Generated_Source\PSoC5/LED_Driver_Gear.c **** *  None
2574:.\Generated_Source\PSoC5/LED_Driver_Gear.c **** *
2575:.\Generated_Source\PSoC5/LED_Driver_Gear.c **** *******************************************************************************/
2576:.\Generated_Source\PSoC5/LED_Driver_Gear.c **** uint8 LED_Driver_Gear_EncodeChar7Seg(char8 input)  
2577:.\Generated_Source\PSoC5/LED_Driver_Gear.c **** {
 1327              		.loc 1 2577 0
 1328              		.cfi_startproc
 1329              		@ args = 0, pretend = 0, frame = 0
 1330              		@ frame_needed = 0, uses_anonymous_args = 0
 1331              		@ link register save eliminated.
 1332              	.LVL158:
2578:.\Generated_Source\PSoC5/LED_Driver_Gear.c ****     /* 7-segment ASCII LUT */
2579:.\Generated_Source\PSoC5/LED_Driver_Gear.c ****     #if(LED_Driver_Gear_SEG_DRIVE == LED_Driver_Gear_HIGH)
2580:.\Generated_Source\PSoC5/LED_Driver_Gear.c ****         static const uint8 CYCODE LED_Driver_Gear_7SegASCII[6][16] =
2581:.\Generated_Source\PSoC5/LED_Driver_Gear.c ****               {
2582:.\Generated_Source\PSoC5/LED_Driver_Gear.c ****               /*--------------------------------------------------------*/
2583:.\Generated_Source\PSoC5/LED_Driver_Gear.c ****               /* 'Space' '!'    '"'    '#'    '$'    '%'    '&'    '''  */
2584:.\Generated_Source\PSoC5/LED_Driver_Gear.c ****               /*--------------------------------------------------------*/
2585:.\Generated_Source\PSoC5/LED_Driver_Gear.c ****                 {0x00u, 0x00u, 0x00u, 0x00u, 0x00u, 0x00u, 0x00u, 0x00u,
2586:.\Generated_Source\PSoC5/LED_Driver_Gear.c ****               /*--------------------------------------------------------*/
2587:.\Generated_Source\PSoC5/LED_Driver_Gear.c ****               /*  '('    ')'    '*'    '+'    ','    '-'    '.'    '/'  */
2588:.\Generated_Source\PSoC5/LED_Driver_Gear.c ****               /*--------------------------------------------------------*/
2589:.\Generated_Source\PSoC5/LED_Driver_Gear.c ****                  0x00u, 0x00u, 0x00u, 0x00u, 0x00u, 0x40u, 0x80u, 0x00u},
2590:.\Generated_Source\PSoC5/LED_Driver_Gear.c ****               /*--------------------------------------------------------*/   
2591:.\Generated_Source\PSoC5/LED_Driver_Gear.c ****               /*  '0'    '1'    '2'    '3'    '4'    '5'    '6'    '7'  */
2592:.\Generated_Source\PSoC5/LED_Driver_Gear.c ****               /*--------------------------------------------------------*/
2593:.\Generated_Source\PSoC5/LED_Driver_Gear.c ****                 {0x3fu, 0x06u, 0x5bu, 0x4fu, 0x66u, 0x6du, 0x7du, 0x07u,
2594:.\Generated_Source\PSoC5/LED_Driver_Gear.c ****               /*--------------------------------------------------------*/
2595:.\Generated_Source\PSoC5/LED_Driver_Gear.c ****               /*  '8'    '9'    ':'    ';'    '<'    '='    '>'    '?'  */
2596:.\Generated_Source\PSoC5/LED_Driver_Gear.c ****               /*--------------------------------------------------------*/
2597:.\Generated_Source\PSoC5/LED_Driver_Gear.c ****                  0x7fu, 0x6fu, 0x00u, 0x00u, 0x00u, 0x48u, 0x00u, 0x00u},
2598:.\Generated_Source\PSoC5/LED_Driver_Gear.c ****               /*--------------------------------------------------------*/
2599:.\Generated_Source\PSoC5/LED_Driver_Gear.c ****               /*  '@'    'A'    'B'    'C'    'D'    'E'    'F'    'G'  */
2600:.\Generated_Source\PSoC5/LED_Driver_Gear.c ****               /*--------------------------------------------------------*/
2601:.\Generated_Source\PSoC5/LED_Driver_Gear.c ****                 {0x00u, 0x77u, 0x7cu, 0x58u, 0x5eu, 0x79u, 0x71u, 0x3du,
2602:.\Generated_Source\PSoC5/LED_Driver_Gear.c ****               /*--------------------------------------------------------*/
2603:.\Generated_Source\PSoC5/LED_Driver_Gear.c ****               /*  'H'    'I'    'J'    'K'    'L'    'M'    'N'    'O'  */
2604:.\Generated_Source\PSoC5/LED_Driver_Gear.c ****               /*--------------------------------------------------------*/
2605:.\Generated_Source\PSoC5/LED_Driver_Gear.c ****                  0x74u, 0x10u, 0x1Eu, 0x76u, 0x38u, 0x55u, 0x54u, 0x5cu},
2606:.\Generated_Source\PSoC5/LED_Driver_Gear.c ****               /*--------------------------------------------------------*/
2607:.\Generated_Source\PSoC5/LED_Driver_Gear.c ****               /*  'P'    'Q'    'R'    'S'    'T'    'U'    'V'    'W'  */
2608:.\Generated_Source\PSoC5/LED_Driver_Gear.c ****               /*--------------------------------------------------------*/
2609:.\Generated_Source\PSoC5/LED_Driver_Gear.c ****                 {0x73u, 0x67u, 0x50u, 0x6du, 0x78u, 0x1cu, 0x1cu, 0x1du,
2610:.\Generated_Source\PSoC5/LED_Driver_Gear.c ****               /*--------------------------------------------------------*/
2611:.\Generated_Source\PSoC5/LED_Driver_Gear.c ****               /*  'X'    'Y'    'Z'    '['    '\'    ']'    '^'    '_'  */
2612:.\Generated_Source\PSoC5/LED_Driver_Gear.c ****               /*--------------------------------------------------------*/
2613:.\Generated_Source\PSoC5/LED_Driver_Gear.c ****                  0x76u, 0x6eu, 0x5bu, 0x00u, 0x00u, 0x00u, 0x00u, 0x08u},
2614:.\Generated_Source\PSoC5/LED_Driver_Gear.c ****               /*--------------------------------------------------------*/
2615:.\Generated_Source\PSoC5/LED_Driver_Gear.c ****               /*  '`'    'a'    'b'    'c'    'd'    'e'    'f'    'g'  */
2616:.\Generated_Source\PSoC5/LED_Driver_Gear.c ****               /*--------------------------------------------------------*/
2617:.\Generated_Source\PSoC5/LED_Driver_Gear.c ****                 {0x00u, 0x77u, 0x7cu, 0x58u, 0x5eu, 0x79u, 0x71u, 0x3du,
2618:.\Generated_Source\PSoC5/LED_Driver_Gear.c ****               /*--------------------------------------------------------*/
2619:.\Generated_Source\PSoC5/LED_Driver_Gear.c ****               /*  'h'    'i'    'j'    'k'    'l'    'm'    'n'    'o'  */
2620:.\Generated_Source\PSoC5/LED_Driver_Gear.c ****               /*--------------------------------------------------------*/
2621:.\Generated_Source\PSoC5/LED_Driver_Gear.c ****                  0x74u, 0x10u, 0x1Eu, 0x76u, 0x38u, 0x55u, 0x54u, 0x5cu},
2622:.\Generated_Source\PSoC5/LED_Driver_Gear.c ****               /*--------------------------------------------------------*/
ARM GAS  C:\Users\charl\AppData\Local\Temp\ccxfbC9q.s 			page 72


2623:.\Generated_Source\PSoC5/LED_Driver_Gear.c ****               /*  'p'    'q'    'r'    's'    't'    'u'    'v'    'w'  */
2624:.\Generated_Source\PSoC5/LED_Driver_Gear.c ****               /*--------------------------------------------------------*/
2625:.\Generated_Source\PSoC5/LED_Driver_Gear.c ****                 {0x73u, 0x67u, 0x50u, 0x6du, 0x78u, 0x1cu, 0x1cu, 0x1du,
2626:.\Generated_Source\PSoC5/LED_Driver_Gear.c ****               /*--------------------------------------------------------*/
2627:.\Generated_Source\PSoC5/LED_Driver_Gear.c ****               /*  'x'    'y'    'z'    '{'    '|'    '}'    '~'   'DEL' */
2628:.\Generated_Source\PSoC5/LED_Driver_Gear.c ****               /*--------------------------------------------------------*/
2629:.\Generated_Source\PSoC5/LED_Driver_Gear.c ****                  0x76u, 0x6eu, 0x5bu, 0x00u, 0x00u, 0x00u, 0x00u, 0x00u}
2630:.\Generated_Source\PSoC5/LED_Driver_Gear.c ****               };
2631:.\Generated_Source\PSoC5/LED_Driver_Gear.c ****     #else
2632:.\Generated_Source\PSoC5/LED_Driver_Gear.c ****         static const uint8 CYCODE LED_Driver_Gear_7SegASCII[6][16] =
2633:.\Generated_Source\PSoC5/LED_Driver_Gear.c ****               {
2634:.\Generated_Source\PSoC5/LED_Driver_Gear.c ****               /*--------------------------------------------------------*/
2635:.\Generated_Source\PSoC5/LED_Driver_Gear.c ****               /* 'Space' '!'    '"'    '#'    '$'    '%'    '&'    '''  */
2636:.\Generated_Source\PSoC5/LED_Driver_Gear.c ****               /*--------------------------------------------------------*/
2637:.\Generated_Source\PSoC5/LED_Driver_Gear.c ****                 {0xffu, 0xffu, 0xffu, 0xffu, 0xffu, 0xffu, 0xffu, 0xffu,
2638:.\Generated_Source\PSoC5/LED_Driver_Gear.c ****               /*--------------------------------------------------------*/
2639:.\Generated_Source\PSoC5/LED_Driver_Gear.c ****               /*  '('    ')'    '*'    '+'    ','    '-'    '.'    '/'  */
2640:.\Generated_Source\PSoC5/LED_Driver_Gear.c ****               /*--------------------------------------------------------*/
2641:.\Generated_Source\PSoC5/LED_Driver_Gear.c ****                  0xffu, 0xffu, 0xffu, 0xffu, 0xffu, 0xBfu, 0x7fu, 0xffu},
2642:.\Generated_Source\PSoC5/LED_Driver_Gear.c ****               /*--------------------------------------------------------*/   
2643:.\Generated_Source\PSoC5/LED_Driver_Gear.c ****               /*  '0'    '1'    '2'    '3'    '4'    '5'    '6'    '7'  */
2644:.\Generated_Source\PSoC5/LED_Driver_Gear.c ****               /*--------------------------------------------------------*/
2645:.\Generated_Source\PSoC5/LED_Driver_Gear.c ****                 {0xc0u, 0xf9u, 0xa4u, 0xb0u, 0x99u, 0x92u, 0x82u, 0xf8u,
2646:.\Generated_Source\PSoC5/LED_Driver_Gear.c ****               /*--------------------------------------------------------*/
2647:.\Generated_Source\PSoC5/LED_Driver_Gear.c ****               /*  '8'    '9'    ':'    ';'    '<'    '='    '>'    '?'  */
2648:.\Generated_Source\PSoC5/LED_Driver_Gear.c ****               /*--------------------------------------------------------*/
2649:.\Generated_Source\PSoC5/LED_Driver_Gear.c ****                  0x80u, 0x90u, 0xffu, 0xffu, 0xffu, 0xb7u, 0xffu, 0xffu},
2650:.\Generated_Source\PSoC5/LED_Driver_Gear.c ****               /*--------------------------------------------------------*/
2651:.\Generated_Source\PSoC5/LED_Driver_Gear.c ****               /*  '@'    'A'    'B'    'C'    'D'    'E'    'F'    'G'  */
2652:.\Generated_Source\PSoC5/LED_Driver_Gear.c ****               /*--------------------------------------------------------*/
2653:.\Generated_Source\PSoC5/LED_Driver_Gear.c ****                 {0xffu, 0x88u, 0x83u, 0xa7u, 0xa1u, 0x86u, 0x8eu, 0xc2u,
2654:.\Generated_Source\PSoC5/LED_Driver_Gear.c ****               /*--------------------------------------------------------*/
2655:.\Generated_Source\PSoC5/LED_Driver_Gear.c ****               /*  'H'    'I'    'J'    'K'    'L'    'M'    'N'    'O'  */
2656:.\Generated_Source\PSoC5/LED_Driver_Gear.c ****               /*--------------------------------------------------------*/
2657:.\Generated_Source\PSoC5/LED_Driver_Gear.c ****                  0x8bu, 0xefu, 0xe1u, 0x89u, 0xc7u, 0xaau, 0xabu, 0xa3u},
2658:.\Generated_Source\PSoC5/LED_Driver_Gear.c ****               /*--------------------------------------------------------*/
2659:.\Generated_Source\PSoC5/LED_Driver_Gear.c ****               /*  'P'    'Q'    'R'    'S'    'T'    'U'    'V'    'W'  */
2660:.\Generated_Source\PSoC5/LED_Driver_Gear.c ****               /*--------------------------------------------------------*/
2661:.\Generated_Source\PSoC5/LED_Driver_Gear.c ****                 {0x8cu, 0x98u, 0xafu, 0x92u, 0x87u, 0xe3u, 0xe3u, 0xe2u,
2662:.\Generated_Source\PSoC5/LED_Driver_Gear.c ****               /*--------------------------------------------------------*/
2663:.\Generated_Source\PSoC5/LED_Driver_Gear.c ****               /*  'X'    'Y'    'Z'    '['    '\'    ']'    '^'    '_'  */
2664:.\Generated_Source\PSoC5/LED_Driver_Gear.c ****               /*--------------------------------------------------------*/
2665:.\Generated_Source\PSoC5/LED_Driver_Gear.c ****                  0x89u, 0x91u, 0xa4u, 0xffu, 0xffu, 0xffu, 0xffu, 0xf7u},
2666:.\Generated_Source\PSoC5/LED_Driver_Gear.c ****               /*--------------------------------------------------------*/
2667:.\Generated_Source\PSoC5/LED_Driver_Gear.c ****               /*  '`'    'a'    'b'    'c'    'd'    'e'    'f'    'g'  */
2668:.\Generated_Source\PSoC5/LED_Driver_Gear.c ****               /*--------------------------------------------------------*/
2669:.\Generated_Source\PSoC5/LED_Driver_Gear.c ****                 {0xffu, 0x88u, 0x83u, 0xa7u, 0xa1u, 0x86u, 0x8eu, 0xc2u,
2670:.\Generated_Source\PSoC5/LED_Driver_Gear.c ****               /*--------------------------------------------------------*/
2671:.\Generated_Source\PSoC5/LED_Driver_Gear.c ****               /*  'h'    'i'    'j'    'k'    'l'    'm'    'n'    'o'  */
2672:.\Generated_Source\PSoC5/LED_Driver_Gear.c ****               /*--------------------------------------------------------*/
2673:.\Generated_Source\PSoC5/LED_Driver_Gear.c ****                  0x8bu, 0xefu, 0xe1u, 0x89u, 0xc7u, 0xaau, 0xabu, 0xa3u},
2674:.\Generated_Source\PSoC5/LED_Driver_Gear.c ****               /*--------------------------------------------------------*/
2675:.\Generated_Source\PSoC5/LED_Driver_Gear.c ****               /*  'p'    'q'    'r'    's'    't'    'u'    'v'    'w'  */
2676:.\Generated_Source\PSoC5/LED_Driver_Gear.c ****               /*--------------------------------------------------------*/
2677:.\Generated_Source\PSoC5/LED_Driver_Gear.c ****                 {0x8cu, 0x98u, 0xafu, 0x92u, 0x87u, 0xe3u, 0xe3u, 0xe2u,
2678:.\Generated_Source\PSoC5/LED_Driver_Gear.c ****               /*--------------------------------------------------------*/
2679:.\Generated_Source\PSoC5/LED_Driver_Gear.c ****               /*  'x'    'y'    'z'    '{'    '|'    '}'    '~'   'DEL' */
ARM GAS  C:\Users\charl\AppData\Local\Temp\ccxfbC9q.s 			page 73


2680:.\Generated_Source\PSoC5/LED_Driver_Gear.c ****               /*--------------------------------------------------------*/
2681:.\Generated_Source\PSoC5/LED_Driver_Gear.c ****                  0x89u, 0x91u, 0xa4u, 0xffu, 0xffu, 0xffu, 0xffu, 0xffu}
2682:.\Generated_Source\PSoC5/LED_Driver_Gear.c ****               };
2683:.\Generated_Source\PSoC5/LED_Driver_Gear.c ****     #endif /*  LED_Driver_Gear_SEG_DRIVE */
2684:.\Generated_Source\PSoC5/LED_Driver_Gear.c ****     
2685:.\Generated_Source\PSoC5/LED_Driver_Gear.c ****     uint8 valLow;
2686:.\Generated_Source\PSoC5/LED_Driver_Gear.c ****     uint8 valHigh;
2687:.\Generated_Source\PSoC5/LED_Driver_Gear.c ****     uint8 valHex;
2688:.\Generated_Source\PSoC5/LED_Driver_Gear.c ****     
2689:.\Generated_Source\PSoC5/LED_Driver_Gear.c ****     valLow = (uint8)((uint8)input & LED_Driver_Gear_NIBBLE_MASK);
 1333              		.loc 1 2689 0
 1334 0000 00F00F03 		and	r3, r0, #15
 1335              	.LVL159:
2690:.\Generated_Source\PSoC5/LED_Driver_Gear.c ****     
2691:.\Generated_Source\PSoC5/LED_Driver_Gear.c ****     /* valHigh used to access the row of LUT */
2692:.\Generated_Source\PSoC5/LED_Driver_Gear.c ****     valHigh = (uint8)((uint8)input >> LED_Driver_Gear_SHIFT_NIBBLE);
 1336              		.loc 1 2692 0
 1337 0004 0009     		lsrs	r0, r0, #4
 1338              	.LVL160:
2693:.\Generated_Source\PSoC5/LED_Driver_Gear.c ****     
2694:.\Generated_Source\PSoC5/LED_Driver_Gear.c ****     /* Check if the high nibble is within valid ASCII range */
2695:.\Generated_Source\PSoC5/LED_Driver_Gear.c ****     if ((valHigh > LED_Driver_Gear_SEG_ASCII_LIM_LO) && (valHigh < LED_Driver_Gear_SEG_ASCII_LIM_HI
 1339              		.loc 1 2695 0
 1340 0006 0238     		subs	r0, r0, #2
 1341              	.LVL161:
 1342 0008 C0B2     		uxtb	r0, r0
 1343              	.LVL162:
 1344 000a 0528     		cmp	r0, #5
 1345 000c 05D8     		bhi	.L145
 1346              	.LVL163:
2696:.\Generated_Source\PSoC5/LED_Driver_Gear.c ****     {
2697:.\Generated_Source\PSoC5/LED_Driver_Gear.c ****         valHigh = valHigh - LED_Driver_Gear_SEG_ASCII_OFFSET;
2698:.\Generated_Source\PSoC5/LED_Driver_Gear.c ****         valHex = LED_Driver_Gear_7SegASCII[valHigh][valLow];
 1347              		.loc 1 2698 0
 1348 000e 044A     		ldr	r2, .L146
 1349 0010 02EB0010 		add	r0, r2, r0, lsl #4
 1350              	.LVL164:
 1351 0014 0344     		add	r3, r3, r0
 1352              	.LVL165:
 1353 0016 187C     		ldrb	r0, [r3, #16]	@ zero_extendqisi2
 1354              	.LVL166:
 1355 0018 7047     		bx	lr
 1356              	.LVL167:
 1357              	.L145:
2699:.\Generated_Source\PSoC5/LED_Driver_Gear.c ****     }
2700:.\Generated_Source\PSoC5/LED_Driver_Gear.c ****     else
2701:.\Generated_Source\PSoC5/LED_Driver_Gear.c ****     {
2702:.\Generated_Source\PSoC5/LED_Driver_Gear.c ****         valHex = LED_Driver_Gear_CLEAR;
 1358              		.loc 1 2702 0
 1359 001a 0020     		movs	r0, #0
 1360              	.LVL168:
2703:.\Generated_Source\PSoC5/LED_Driver_Gear.c ****     }
2704:.\Generated_Source\PSoC5/LED_Driver_Gear.c ****     
2705:.\Generated_Source\PSoC5/LED_Driver_Gear.c ****     return(valHex);
2706:.\Generated_Source\PSoC5/LED_Driver_Gear.c **** }
 1361              		.loc 1 2706 0
 1362 001c 7047     		bx	lr
ARM GAS  C:\Users\charl\AppData\Local\Temp\ccxfbC9q.s 			page 74


 1363              	.L147:
 1364 001e 00BF     		.align	2
 1365              	.L146:
 1366 0020 00000000 		.word	.LANCHOR2
 1367              		.cfi_endproc
 1368              	.LFE35:
 1369              		.size	LED_Driver_Gear_EncodeChar7Seg, .-LED_Driver_Gear_EncodeChar7Seg
 1370              		.section	.text.LED_Driver_Gear_Write7SegNumberDec,"ax",%progbits
 1371              		.align	2
 1372              		.global	LED_Driver_Gear_Write7SegNumberDec
 1373              		.thumb
 1374              		.thumb_func
 1375              		.type	LED_Driver_Gear_Write7SegNumberDec, %function
 1376              	LED_Driver_Gear_Write7SegNumberDec:
 1377              	.LFB14:
 903:.\Generated_Source\PSoC5/LED_Driver_Gear.c ****     uint8 i;
 1378              		.loc 1 903 0
 1379              		.cfi_startproc
 1380              		@ args = 0, pretend = 0, frame = 8
 1381              		@ frame_needed = 0, uses_anonymous_args = 0
 1382              	.LVL169:
 1383 0000 2DE9F047 		push	{r4, r5, r6, r7, r8, r9, r10, lr}
 1384              		.cfi_def_cfa_offset 32
 1385              		.cfi_offset 4, -32
 1386              		.cfi_offset 5, -28
 1387              		.cfi_offset 6, -24
 1388              		.cfi_offset 7, -20
 1389              		.cfi_offset 8, -16
 1390              		.cfi_offset 9, -12
 1391              		.cfi_offset 10, -8
 1392              		.cfi_offset 14, -4
 1393 0004 82B0     		sub	sp, sp, #8
 1394              		.cfi_def_cfa_offset 40
 1395 0006 1446     		mov	r4, r2
 1396 0008 1F46     		mov	r7, r3
 1397              	.LVL170:
 910:.\Generated_Source\PSoC5/LED_Driver_Gear.c ****     uint32 numberVal;
 1398              		.loc 1 910 0
 1399 000a 0023     		movs	r3, #0
 1400              	.LVL171:
 1401 000c 0093     		str	r3, [sp]
 1402 000e 0193     		str	r3, [sp, #4]
 914:.\Generated_Source\PSoC5/LED_Driver_Gear.c ****     {
 1403              		.loc 1 914 0
 1404 0010 0D46     		mov	r5, r1
 1405 0012 49B1     		cbz	r1, .L178
 919:.\Generated_Source\PSoC5/LED_Driver_Gear.c ****     {
 1406              		.loc 1 919 0
 1407 0014 0129     		cmp	r1, #1
 1408 0016 03D8     		bhi	.L150
 1409              	.LVL172:
 922:.\Generated_Source\PSoC5/LED_Driver_Gear.c ****     }
 1410              		.loc 1 922 0
 1411 0018 4D1E     		subs	r5, r1, #1
 1412 001a EDB2     		uxtb	r5, r5
 1413              	.LVL173:
 921:.\Generated_Source\PSoC5/LED_Driver_Gear.c ****         relPosition = position - LED_Driver_Gear_NUM_COM;
ARM GAS  C:\Users\charl\AppData\Local\Temp\ccxfbC9q.s 			page 75


 1414              		.loc 1 921 0
 1415 001c 0126     		movs	r6, #1
 1416 001e 04E0     		b	.L149
 1417              	.LVL174:
 1418              	.L150:
 927:.\Generated_Source\PSoC5/LED_Driver_Gear.c ****     }
 1419              		.loc 1 927 0
 1420 0020 8D1E     		subs	r5, r1, #2
 1421 0022 EDB2     		uxtb	r5, r5
 1422              	.LVL175:
 926:.\Generated_Source\PSoC5/LED_Driver_Gear.c ****         relPosition = position - LED_Driver_Gear_TWO_NUM_COM;
 1423              		.loc 1 926 0
 1424 0024 0226     		movs	r6, #2
 1425 0026 00E0     		b	.L149
 1426              	.LVL176:
 1427              	.L178:
 916:.\Generated_Source\PSoC5/LED_Driver_Gear.c ****         relPosition = position;
 1428              		.loc 1 916 0
 1429 0028 0026     		movs	r6, #0
 1430              	.L149:
 1431              	.LVL177:
 931:.\Generated_Source\PSoC5/LED_Driver_Gear.c ****     {
 1432              		.loc 1 931 0
 1433 002a 0028     		cmp	r0, #0
 1434 002c 03DB     		blt	.L151
 933:.\Generated_Source\PSoC5/LED_Driver_Gear.c ****         numberSign = LED_Driver_Gear_UNSIGNED;
 1435              		.loc 1 933 0
 1436 002e 0246     		mov	r2, r0
 1437              	.LVL178:
 934:.\Generated_Source\PSoC5/LED_Driver_Gear.c ****     }
 1438              		.loc 1 934 0
 1439 0030 4FF00008 		mov	r8, #0
 1440 0034 02E0     		b	.L152
 1441              	.LVL179:
 1442              	.L151:
 938:.\Generated_Source\PSoC5/LED_Driver_Gear.c ****         numberSign = LED_Driver_Gear_SIGNED;
 1443              		.loc 1 938 0
 1444 0036 4242     		negs	r2, r0
 1445              	.LVL180:
 939:.\Generated_Source\PSoC5/LED_Driver_Gear.c ****     }
 1446              		.loc 1 939 0
 1447 0038 4FF00108 		mov	r8, #1
 1448              	.LVL181:
 1449              	.L152:
 943:.\Generated_Source\PSoC5/LED_Driver_Gear.c ****     {
 1450              		.loc 1 943 0
 1451 003c 2346     		mov	r3, r4
 1452 003e 14E0     		b	.L153
 1453              	.LVL182:
 1454              	.L154:
 945:.\Generated_Source\PSoC5/LED_Driver_Gear.c ****         bufArray[i-1u] = LED_Driver_Gear_EncodeNumber7Seg(selectVal);
 1455              		.loc 1 945 0 discriminator 3
 1456 0040 4B48     		ldr	r0, .L182
 1457 0042 A0FB0210 		umull	r1, r0, r0, r2
 1458 0046 C008     		lsrs	r0, r0, #3
 1459 0048 8146     		mov	r9, r0
 1460 004a 00EB8000 		add	r0, r0, r0, lsl #2
ARM GAS  C:\Users\charl\AppData\Local\Temp\ccxfbC9q.s 			page 76


 1461 004e 4000     		lsls	r0, r0, #1
 1462 0050 101A     		subs	r0, r2, r0
 1463              	.LVL183:
 946:.\Generated_Source\PSoC5/LED_Driver_Gear.c ****         numberVal = numberVal / 10u;
 1464              		.loc 1 946 0 discriminator 3
 1465 0052 03F1FF3A 		add	r10, r3, #-1
 1466 0056 C0B2     		uxtb	r0, r0
 1467 0058 FFF7FEFF 		bl	LED_Driver_Gear_EncodeNumber7Seg
 1468              	.LVL184:
 1469 005c 02AB     		add	r3, sp, #8
 1470 005e 5344     		add	r3, r3, r10
 1471 0060 03F8080C 		strb	r0, [r3, #-8]
 947:.\Generated_Source\PSoC5/LED_Driver_Gear.c ****     }
 1472              		.loc 1 947 0 discriminator 3
 1473 0064 4A46     		mov	r2, r9
 1474              	.LVL185:
 943:.\Generated_Source\PSoC5/LED_Driver_Gear.c ****     {
 1475              		.loc 1 943 0 discriminator 3
 1476 0066 5FFA8AF3 		uxtb	r3, r10
 1477              	.LVL186:
 1478              	.L153:
 943:.\Generated_Source\PSoC5/LED_Driver_Gear.c ****     {
 1479              		.loc 1 943 0 is_stmt 0 discriminator 1
 1480 006a 002B     		cmp	r3, #0
 1481 006c E8D1     		bne	.L154
 951:.\Generated_Source\PSoC5/LED_Driver_Gear.c ****     {
 1482              		.loc 1 951 0 is_stmt 1
 1483 006e 022F     		cmp	r7, #2
 1484 0070 32D1     		bne	.L179
 953:.\Generated_Source\PSoC5/LED_Driver_Gear.c ****         {
 1485              		.loc 1 953 0
 1486 0072 B8F1000F 		cmp	r8, #0
 1487 0076 33D0     		beq	.L156
 956:.\Generated_Source\PSoC5/LED_Driver_Gear.c ****         }
 1488              		.loc 1 956 0
 1489 0078 2D20     		movs	r0, #45
 1490 007a FFF7FEFF 		bl	LED_Driver_Gear_EncodeChar7Seg
 1491              	.LVL187:
 1492 007e 8DF80000 		strb	r0, [sp]
 1493 0082 2DE0     		b	.L156
 1494              	.LVL188:
 1495              	.L160:
 963:.\Generated_Source\PSoC5/LED_Driver_Gear.c ****             {
 1496              		.loc 1 963 0
 1497 0084 9946     		mov	r9, r3
 1498 0086 02A9     		add	r1, sp, #8
 1499 0088 1944     		add	r1, r1, r3
 1500 008a 11F8081C 		ldrb	r1, [r1, #-8]	@ zero_extendqisi2
 1501 008e 3F29     		cmp	r1, #63
 1502 0090 15D0     		beq	.L157
 965:.\Generated_Source\PSoC5/LED_Driver_Gear.c ****                 {
 1503              		.loc 1 965 0
 1504 0092 B8F1000F 		cmp	r8, #0
 1505 0096 23D0     		beq	.L156
 967:.\Generated_Source\PSoC5/LED_Driver_Gear.c ****                     {
 1506              		.loc 1 967 0
 1507 0098 3BB9     		cbnz	r3, .L158
ARM GAS  C:\Users\charl\AppData\Local\Temp\ccxfbC9q.s 			page 77


 970:.\Generated_Source\PSoC5/LED_Driver_Gear.c ****                     }
 1508              		.loc 1 970 0
 1509 009a 2D20     		movs	r0, #45
 1510 009c FFF7FEFF 		bl	LED_Driver_Gear_EncodeChar7Seg
 1511              	.LVL189:
 1512 00a0 02AB     		add	r3, sp, #8
 1513 00a2 9944     		add	r9, r9, r3
 1514 00a4 09F8080C 		strb	r0, [r9, #-8]
 1515 00a8 1AE0     		b	.L156
 1516              	.LVL190:
 1517              	.L158:
 975:.\Generated_Source\PSoC5/LED_Driver_Gear.c ****                     }
 1518              		.loc 1 975 0
 1519 00aa 03F1FF38 		add	r8, r3, #-1
 1520              	.LVL191:
 1521 00ae 2D20     		movs	r0, #45
 1522 00b0 FFF7FEFF 		bl	LED_Driver_Gear_EncodeChar7Seg
 1523              	.LVL192:
 1524 00b4 02AB     		add	r3, sp, #8
 1525 00b6 4344     		add	r3, r3, r8
 1526 00b8 03F8080C 		strb	r0, [r3, #-8]
 1527 00bc 10E0     		b	.L156
 1528              	.LVL193:
 1529              	.L157:
 983:.\Generated_Source\PSoC5/LED_Driver_Gear.c ****                 {
 1530              		.loc 1 983 0
 1531 00be 611E     		subs	r1, r4, #1
 1532 00c0 8A42     		cmp	r2, r1
 1533 00c2 06D0     		beq	.L159
 986:.\Generated_Source\PSoC5/LED_Driver_Gear.c ****                     zeroCount++;
 1534              		.loc 1 986 0
 1535 00c4 02A9     		add	r1, sp, #8
 1536 00c6 8944     		add	r9, r9, r1
 1537 00c8 0021     		movs	r1, #0
 1538 00ca 09F8081C 		strb	r1, [r9, #-8]
 987:.\Generated_Source\PSoC5/LED_Driver_Gear.c ****                 }
 1539              		.loc 1 987 0
 1540 00ce 0132     		adds	r2, r2, #1
 1541              	.LVL194:
 1542 00d0 D2B2     		uxtb	r2, r2
 1543              	.LVL195:
 1544              	.L159:
 961:.\Generated_Source\PSoC5/LED_Driver_Gear.c ****         {
 1545              		.loc 1 961 0 discriminator 2
 1546 00d2 0133     		adds	r3, r3, #1
 1547              	.LVL196:
 1548 00d4 DBB2     		uxtb	r3, r3
 1549              	.LVL197:
 1550 00d6 01E0     		b	.L155
 1551              	.LVL198:
 1552              	.L179:
 1553 00d8 0022     		movs	r2, #0
 1554              	.LVL199:
 1555 00da 1346     		mov	r3, r2
 1556              	.LVL200:
 1557              	.L155:
 961:.\Generated_Source\PSoC5/LED_Driver_Gear.c ****         {
ARM GAS  C:\Users\charl\AppData\Local\Temp\ccxfbC9q.s 			page 78


 1558              		.loc 1 961 0 is_stmt 0 discriminator 1
 1559 00dc A342     		cmp	r3, r4
 1560 00de D1D3     		bcc	.L160
 1561              	.LVL201:
 1562              	.L156:
 994:.\Generated_Source\PSoC5/LED_Driver_Gear.c ****     {
 1563              		.loc 1 994 0 is_stmt 1
 1564 00e0 012F     		cmp	r7, #1
 1565 00e2 40D1     		bne	.L162
 1566 00e4 13E0     		b	.L180
 1567              	.LVL202:
 1568              	.L167:
 998:.\Generated_Source\PSoC5/LED_Driver_Gear.c ****             {
 1569              		.loc 1 998 0
 1570 00e6 02AA     		add	r2, sp, #8
 1571 00e8 1A44     		add	r2, r2, r3
 1572 00ea 12F8082C 		ldrb	r2, [r2, #-8]	@ zero_extendqisi2
 1573 00ee 5AB1     		cbz	r2, .L163
1000:.\Generated_Source\PSoC5/LED_Driver_Gear.c ****                 {
 1574              		.loc 1 1000 0
 1575 00f0 45B9     		cbnz	r5, .L164
1003:.\Generated_Source\PSoC5/LED_Driver_Gear.c ****                     {
 1576              		.loc 1 1003 0
 1577 00f2 16B1     		cbz	r6, .L166
 1578 00f4 022E     		cmp	r6, #2
 1579 00f6 03D8     		bhi	.L165
 1580 00f8 04E0     		b	.L164
 1581              	.L166:
1006:.\Generated_Source\PSoC5/LED_Driver_Gear.c ****                             break;
 1582              		.loc 1 1006 0
 1583 00fa 1E49     		ldr	r1, .L182+4
 1584 00fc 4A55     		strb	r2, [r1, r5]
1007:.\Generated_Source\PSoC5/LED_Driver_Gear.c ****                         case LED_Driver_Gear_SEG_REG_MID :
 1585              		.loc 1 1007 0
 1586 00fe 01E0     		b	.L164
 1587              	.L165:
1019:.\Generated_Source\PSoC5/LED_Driver_Gear.c ****                             break;
 1588              		.loc 1 1019 0
 1589 0100 1C49     		ldr	r1, .L182+4
 1590 0102 4A55     		strb	r2, [r1, r5]
 1591              	.L164:
1023:.\Generated_Source\PSoC5/LED_Driver_Gear.c ****             }
 1592              		.loc 1 1023 0
 1593 0104 0135     		adds	r5, r5, #1
 1594              	.LVL203:
 1595 0106 EDB2     		uxtb	r5, r5
 1596              	.LVL204:
 1597              	.L163:
 996:.\Generated_Source\PSoC5/LED_Driver_Gear.c ****         {
 1598              		.loc 1 996 0 discriminator 2
 1599 0108 0133     		adds	r3, r3, #1
 1600              	.LVL205:
 1601 010a DBB2     		uxtb	r3, r3
 1602              	.LVL206:
 1603 010c 00E0     		b	.L161
 1604              	.LVL207:
 1605              	.L180:
ARM GAS  C:\Users\charl\AppData\Local\Temp\ccxfbC9q.s 			page 79


 1606 010e 0023     		movs	r3, #0
 1607              	.L161:
 1608              	.LVL208:
 996:.\Generated_Source\PSoC5/LED_Driver_Gear.c ****         {
 1609              		.loc 1 996 0 is_stmt 0 discriminator 1
 1610 0110 A342     		cmp	r3, r4
 1611 0112 E8D3     		bcc	.L167
 1612 0114 0CE0     		b	.L168
 1613              	.LVL209:
 1614              	.L172:
1029:.\Generated_Source\PSoC5/LED_Driver_Gear.c ****             {
 1615              		.loc 1 1029 0 is_stmt 1
 1616 0116 16B1     		cbz	r6, .L170
 1617 0118 022E     		cmp	r6, #2
 1618 011a 04D8     		bhi	.L169
 1619 011c 06E0     		b	.L171
 1620              	.L170:
1032:.\Generated_Source\PSoC5/LED_Driver_Gear.c ****                     break;
 1621              		.loc 1 1032 0
 1622 011e 0022     		movs	r2, #0
 1623 0120 144B     		ldr	r3, .L182+4
 1624 0122 5A55     		strb	r2, [r3, r5]
1033:.\Generated_Source\PSoC5/LED_Driver_Gear.c ****                 case LED_Driver_Gear_SEG_REG_MID :
 1625              		.loc 1 1033 0
 1626 0124 02E0     		b	.L171
 1627              	.L169:
1045:.\Generated_Source\PSoC5/LED_Driver_Gear.c ****                     break;
 1628              		.loc 1 1045 0
 1629 0126 0022     		movs	r2, #0
 1630 0128 124B     		ldr	r3, .L182+4
 1631 012a 5A55     		strb	r2, [r3, r5]
 1632              	.L171:
1048:.\Generated_Source\PSoC5/LED_Driver_Gear.c ****         }
 1633              		.loc 1 1048 0
 1634 012c 0135     		adds	r5, r5, #1
 1635              	.LVL210:
 1636 012e EDB2     		uxtb	r5, r5
 1637              	.LVL211:
 1638              	.L168:
1027:.\Generated_Source\PSoC5/LED_Driver_Gear.c ****         {
 1639              		.loc 1 1027 0
 1640 0130 A542     		cmp	r5, r4
 1641 0132 F0D3     		bcc	.L172
 1642 0134 19E0     		b	.L148
 1643              	.LVL212:
 1644              	.L177:
1056:.\Generated_Source\PSoC5/LED_Driver_Gear.c ****             {
 1645              		.loc 1 1056 0
 1646 0136 6319     		adds	r3, r4, r5
 1647 0138 012B     		cmp	r3, #1
 1648 013a 12D1     		bne	.L174
1059:.\Generated_Source\PSoC5/LED_Driver_Gear.c ****                 {
 1649              		.loc 1 1059 0
 1650 013c 16B1     		cbz	r6, .L176
 1651 013e 022E     		cmp	r6, #2
 1652 0140 08D8     		bhi	.L175
 1653 0142 0EE0     		b	.L174
ARM GAS  C:\Users\charl\AppData\Local\Temp\ccxfbC9q.s 			page 80


 1654              	.L176:
1062:.\Generated_Source\PSoC5/LED_Driver_Gear.c ****                         break;
 1655              		.loc 1 1062 0
 1656 0144 013B     		subs	r3, r3, #1
 1657 0146 02AA     		add	r2, sp, #8
 1658 0148 2244     		add	r2, r2, r4
 1659 014a 12F8091C 		ldrb	r1, [r2, #-9]	@ zero_extendqisi2
 1660 014e 094A     		ldr	r2, .L182+4
 1661 0150 D154     		strb	r1, [r2, r3]
1063:.\Generated_Source\PSoC5/LED_Driver_Gear.c ****                     case LED_Driver_Gear_SEG_REG_MID :
 1662              		.loc 1 1063 0
 1663 0152 06E0     		b	.L174
 1664              	.L175:
1075:.\Generated_Source\PSoC5/LED_Driver_Gear.c ****                         break;
 1665              		.loc 1 1075 0
 1666 0154 013B     		subs	r3, r3, #1
 1667 0156 02AA     		add	r2, sp, #8
 1668 0158 2244     		add	r2, r2, r4
 1669 015a 12F8091C 		ldrb	r1, [r2, #-9]	@ zero_extendqisi2
 1670 015e 054A     		ldr	r2, .L182+4
 1671 0160 D154     		strb	r1, [r2, r3]
 1672              	.L174:
1054:.\Generated_Source\PSoC5/LED_Driver_Gear.c ****         {
 1673              		.loc 1 1054 0 discriminator 2
 1674 0162 013C     		subs	r4, r4, #1
 1675              	.LVL213:
 1676 0164 E4B2     		uxtb	r4, r4
 1677              	.LVL214:
 1678              	.L162:
1054:.\Generated_Source\PSoC5/LED_Driver_Gear.c ****         {
 1679              		.loc 1 1054 0 is_stmt 0 discriminator 1
 1680 0166 002C     		cmp	r4, #0
 1681 0168 E5D1     		bne	.L177
 1682              	.LVL215:
 1683              	.L148:
1081:.\Generated_Source\PSoC5/LED_Driver_Gear.c **** 
 1684              		.loc 1 1081 0 is_stmt 1
 1685 016a 02B0     		add	sp, sp, #8
 1686              		.cfi_def_cfa_offset 32
 1687              		@ sp needed
 1688 016c BDE8F087 		pop	{r4, r5, r6, r7, r8, r9, r10, pc}
 1689              	.LVL216:
 1690              	.L183:
 1691              		.align	2
 1692              	.L182:
 1693 0170 CDCCCCCC 		.word	-858993459
 1694 0174 00000000 		.word	LED_Driver_Gear_segLBuffer
 1695              		.cfi_endproc
 1696              	.LFE14:
 1697              		.size	LED_Driver_Gear_Write7SegNumberDec, .-LED_Driver_Gear_Write7SegNumberDec
 1698              		.section	.text.LED_Driver_Gear_WriteString7Seg,"ax",%progbits
 1699              		.align	2
 1700              		.global	LED_Driver_Gear_WriteString7Seg
 1701              		.thumb
 1702              		.thumb_func
 1703              		.type	LED_Driver_Gear_WriteString7Seg, %function
 1704              	LED_Driver_Gear_WriteString7Seg:
ARM GAS  C:\Users\charl\AppData\Local\Temp\ccxfbC9q.s 			page 81


 1705              	.LFB16:
1294:.\Generated_Source\PSoC5/LED_Driver_Gear.c ****     uint8 relPosition;
 1706              		.loc 1 1294 0
 1707              		.cfi_startproc
 1708              		@ args = 0, pretend = 0, frame = 0
 1709              		@ frame_needed = 0, uses_anonymous_args = 0
 1710              	.LVL217:
1299:.\Generated_Source\PSoC5/LED_Driver_Gear.c ****     {
 1711              		.loc 1 1299 0
 1712 0000 B9B9     		cbnz	r1, .L190
1294:.\Generated_Source\PSoC5/LED_Driver_Gear.c ****     uint8 relPosition;
 1713              		.loc 1 1294 0
 1714 0002 F8B5     		push	{r3, r4, r5, r6, r7, lr}
 1715              		.cfi_def_cfa_offset 24
 1716              		.cfi_offset 3, -24
 1717              		.cfi_offset 4, -20
 1718              		.cfi_offset 5, -16
 1719              		.cfi_offset 6, -12
 1720              		.cfi_offset 7, -8
 1721              		.cfi_offset 14, -4
 1722 0004 0746     		mov	r7, r0
 1723 0006 0C46     		mov	r4, r1
1301:.\Generated_Source\PSoC5/LED_Driver_Gear.c ****         for(relPosition = position; relPosition < LED_Driver_Gear_NUM_COM; relPosition++)
 1724              		.loc 1 1301 0
 1725 0008 FFF7FEFF 		bl	strlen
 1726              	.LVL218:
 1727 000c 2044     		add	r0, r0, r4
 1728 000e 00F0FF06 		and	r6, r0, #255
 1729              	.LVL219:
1297:.\Generated_Source\PSoC5/LED_Driver_Gear.c ****     
 1730              		.loc 1 1297 0
 1731 0012 0025     		movs	r5, #0
1302:.\Generated_Source\PSoC5/LED_Driver_Gear.c ****         {
 1732              		.loc 1 1302 0
 1733 0014 0AE0     		b	.L186
 1734              	.LVL220:
 1735              	.L188:
1304:.\Generated_Source\PSoC5/LED_Driver_Gear.c ****             {
 1736              		.loc 1 1304 0
 1737 0016 B442     		cmp	r4, r6
 1738 0018 06D2     		bcs	.L187
1306:.\Generated_Source\PSoC5/LED_Driver_Gear.c ****                 i++;
 1739              		.loc 1 1306 0
 1740 001a 785D     		ldrb	r0, [r7, r5]	@ zero_extendqisi2
 1741 001c FFF7FEFF 		bl	LED_Driver_Gear_EncodeChar7Seg
 1742              	.LVL221:
 1743 0020 044B     		ldr	r3, .L191
 1744 0022 1855     		strb	r0, [r3, r4]
1307:.\Generated_Source\PSoC5/LED_Driver_Gear.c ****             }
 1745              		.loc 1 1307 0
 1746 0024 0135     		adds	r5, r5, #1
 1747              	.LVL222:
 1748 0026 EDB2     		uxtb	r5, r5
 1749              	.LVL223:
 1750              	.L187:
1302:.\Generated_Source\PSoC5/LED_Driver_Gear.c ****         {
 1751              		.loc 1 1302 0 discriminator 2
ARM GAS  C:\Users\charl\AppData\Local\Temp\ccxfbC9q.s 			page 82


 1752 0028 0134     		adds	r4, r4, #1
 1753              	.LVL224:
 1754 002a E4B2     		uxtb	r4, r4
 1755              	.LVL225:
 1756              	.L186:
1302:.\Generated_Source\PSoC5/LED_Driver_Gear.c ****         {
 1757              		.loc 1 1302 0 is_stmt 0 discriminator 1
 1758 002c 002C     		cmp	r4, #0
 1759 002e F2D0     		beq	.L188
 1760 0030 F8BD     		pop	{r3, r4, r5, r6, r7, pc}
 1761              	.LVL226:
 1762              	.L190:
 1763              		.cfi_def_cfa_offset 0
 1764              		.cfi_restore 3
 1765              		.cfi_restore 4
 1766              		.cfi_restore 5
 1767              		.cfi_restore 6
 1768              		.cfi_restore 7
 1769              		.cfi_restore 14
 1770 0032 7047     		bx	lr
 1771              	.L192:
 1772              		.align	2
 1773              	.L191:
 1774 0034 00000000 		.word	LED_Driver_Gear_segLBuffer
 1775              		.cfi_endproc
 1776              	.LFE16:
 1777              		.size	LED_Driver_Gear_WriteString7Seg, .-LED_Driver_Gear_WriteString7Seg
 1778              		.section	.text.LED_Driver_Gear_PutChar7Seg,"ax",%progbits
 1779              		.align	2
 1780              		.global	LED_Driver_Gear_PutChar7Seg
 1781              		.thumb
 1782              		.thumb_func
 1783              		.type	LED_Driver_Gear_PutChar7Seg, %function
 1784              	LED_Driver_Gear_PutChar7Seg:
 1785              	.LFB17:
1368:.\Generated_Source\PSoC5/LED_Driver_Gear.c ****     uint8 relPosition;
 1786              		.loc 1 1368 0 is_stmt 1
 1787              		.cfi_startproc
 1788              		@ args = 0, pretend = 0, frame = 0
 1789              		@ frame_needed = 0, uses_anonymous_args = 0
 1790              	.LVL227:
1371:.\Generated_Source\PSoC5/LED_Driver_Gear.c ****     {
 1791              		.loc 1 1371 0
 1792 0000 31B9     		cbnz	r1, .L196
1368:.\Generated_Source\PSoC5/LED_Driver_Gear.c ****     uint8 relPosition;
 1793              		.loc 1 1368 0
 1794 0002 10B5     		push	{r4, lr}
 1795              		.cfi_def_cfa_offset 8
 1796              		.cfi_offset 4, -8
 1797              		.cfi_offset 14, -4
 1798 0004 0C46     		mov	r4, r1
 1799              	.LVL228:
1374:.\Generated_Source\PSoC5/LED_Driver_Gear.c ****     }    
 1800              		.loc 1 1374 0
 1801 0006 FFF7FEFF 		bl	LED_Driver_Gear_EncodeChar7Seg
 1802              	.LVL229:
 1803 000a 024B     		ldr	r3, .L197
ARM GAS  C:\Users\charl\AppData\Local\Temp\ccxfbC9q.s 			page 83


 1804 000c 1855     		strb	r0, [r3, r4]
 1805 000e 10BD     		pop	{r4, pc}
 1806              	.LVL230:
 1807              	.L196:
 1808              		.cfi_def_cfa_offset 0
 1809              		.cfi_restore 4
 1810              		.cfi_restore 14
 1811 0010 7047     		bx	lr
 1812              	.L198:
 1813 0012 00BF     		.align	2
 1814              	.L197:
 1815 0014 00000000 		.word	LED_Driver_Gear_segLBuffer
 1816              		.cfi_endproc
 1817              	.LFE17:
 1818              		.size	LED_Driver_Gear_PutChar7Seg, .-LED_Driver_Gear_PutChar7Seg
 1819              		.section	.text.LED_Driver_Gear_EncodeNumber14Seg,"ax",%progbits
 1820              		.align	2
 1821              		.global	LED_Driver_Gear_EncodeNumber14Seg
 1822              		.thumb
 1823              		.thumb_func
 1824              		.type	LED_Driver_Gear_EncodeNumber14Seg, %function
 1825              	LED_Driver_Gear_EncodeNumber14Seg:
 1826              	.LFB36:
2707:.\Generated_Source\PSoC5/LED_Driver_Gear.c **** 
2708:.\Generated_Source\PSoC5/LED_Driver_Gear.c **** 
2709:.\Generated_Source\PSoC5/LED_Driver_Gear.c **** /*******************************************************************************
2710:.\Generated_Source\PSoC5/LED_Driver_Gear.c **** * Function Name: LED_Driver_Gear_EncodeNumber14Seg
2711:.\Generated_Source\PSoC5/LED_Driver_Gear.c **** ********************************************************************************
2712:.\Generated_Source\PSoC5/LED_Driver_Gear.c **** *
2713:.\Generated_Source\PSoC5/LED_Driver_Gear.c **** * Summary:
2714:.\Generated_Source\PSoC5/LED_Driver_Gear.c **** *  Converts the lower 4 bits of the input into 14-segment data that will 
2715:.\Generated_Source\PSoC5/LED_Driver_Gear.c **** *  display the number in hex on a display. 14-segment display RAM is split into 
2716:.\Generated_Source\PSoC5/LED_Driver_Gear.c **** *  two sections (one for the lower 8 segments, one for the top 6), so the 
2717:.\Generated_Source\PSoC5/LED_Driver_Gear.c **** *  returned data must be separated into high and low bytes before being written
2718:.\Generated_Source\PSoC5/LED_Driver_Gear.c **** *  directly into the display RAM to display the desired number. It is not 
2719:.\Generated_Source\PSoC5/LED_Driver_Gear.c **** *  necessary to use this function since higher level API are provided to both 
2720:.\Generated_Source\PSoC5/LED_Driver_Gear.c **** *  decode the value and write it to the display RAM.
2721:.\Generated_Source\PSoC5/LED_Driver_Gear.c **** *
2722:.\Generated_Source\PSoC5/LED_Driver_Gear.c **** * Parameters:
2723:.\Generated_Source\PSoC5/LED_Driver_Gear.c **** *  uint8 number A number between 0x0 and 0xF to be converted into segment data.
2724:.\Generated_Source\PSoC5/LED_Driver_Gear.c **** *
2725:.\Generated_Source\PSoC5/LED_Driver_Gear.c **** * Return:
2726:.\Generated_Source\PSoC5/LED_Driver_Gear.c **** *  The value to be written into the display RAM for displaying the specific
2727:.\Generated_Source\PSoC5/LED_Driver_Gear.c **** *  number.
2728:.\Generated_Source\PSoC5/LED_Driver_Gear.c **** *
2729:.\Generated_Source\PSoC5/LED_Driver_Gear.c **** * Side effects:
2730:.\Generated_Source\PSoC5/LED_Driver_Gear.c **** *  None
2731:.\Generated_Source\PSoC5/LED_Driver_Gear.c **** *
2732:.\Generated_Source\PSoC5/LED_Driver_Gear.c **** *******************************************************************************/
2733:.\Generated_Source\PSoC5/LED_Driver_Gear.c **** uint16 LED_Driver_Gear_EncodeNumber14Seg(uint8 number) 
2734:.\Generated_Source\PSoC5/LED_Driver_Gear.c **** {
 1827              		.loc 1 2734 0
 1828              		.cfi_startproc
 1829              		@ args = 0, pretend = 0, frame = 0
 1830              		@ frame_needed = 0, uses_anonymous_args = 0
 1831              		@ link register save eliminated.
 1832              	.LVL231:
ARM GAS  C:\Users\charl\AppData\Local\Temp\ccxfbC9q.s 			page 84


2735:.\Generated_Source\PSoC5/LED_Driver_Gear.c ****     #if(LED_Driver_Gear_SEG_DRIVE == LED_Driver_Gear_HIGH)
2736:.\Generated_Source\PSoC5/LED_Driver_Gear.c ****         /* 14-segment numerical LUT for low byte */
2737:.\Generated_Source\PSoC5/LED_Driver_Gear.c ****         static const uint8 CYCODE LED_Driver_Gear_14SegDigitsLow[16] =
2738:.\Generated_Source\PSoC5/LED_Driver_Gear.c ****               /*--------------------------------------------------------*/
2739:.\Generated_Source\PSoC5/LED_Driver_Gear.c ****               /*  '0'    '1'    '2'    '3'    '4'    '5'    '6'    '7'  */
2740:.\Generated_Source\PSoC5/LED_Driver_Gear.c ****               /*--------------------------------------------------------*/
2741:.\Generated_Source\PSoC5/LED_Driver_Gear.c ****                 {0x3fu, 0x06u, 0xdbu, 0xcfu, 0xe6u, 0xedu, 0xfdu, 0x07u,
2742:.\Generated_Source\PSoC5/LED_Driver_Gear.c ****               /*--------------------------------------------------------*/
2743:.\Generated_Source\PSoC5/LED_Driver_Gear.c ****               /*  '8'    '9'    'A'    'B'    'C'    'D'    'E'    'F'  */
2744:.\Generated_Source\PSoC5/LED_Driver_Gear.c ****               /*--------------------------------------------------------*/
2745:.\Generated_Source\PSoC5/LED_Driver_Gear.c ****                  0xffu, 0xefu, 0xf7u, 0x8fu, 0x39u, 0x0fu, 0xf9u, 0xf1u};
2746:.\Generated_Source\PSoC5/LED_Driver_Gear.c **** 
2747:.\Generated_Source\PSoC5/LED_Driver_Gear.c ****         /* 14-segment numerical LUT for high byte */
2748:.\Generated_Source\PSoC5/LED_Driver_Gear.c ****         static const uint8 CYCODE LED_Driver_Gear_14SegDigitsHigh[16] =
2749:.\Generated_Source\PSoC5/LED_Driver_Gear.c ****               /*--------------------------------------------------------*/
2750:.\Generated_Source\PSoC5/LED_Driver_Gear.c ****               /*  '0'    '1'    '2'    '3'    '4'    '5'    '6'    '7'  */
2751:.\Generated_Source\PSoC5/LED_Driver_Gear.c ****               /*--------------------------------------------------------*/
2752:.\Generated_Source\PSoC5/LED_Driver_Gear.c ****                 {0x24u, 0x00u, 0x00u, 0x00u, 0x00u, 0x00u, 0x00u, 0x00u,
2753:.\Generated_Source\PSoC5/LED_Driver_Gear.c ****               /*--------------------------------------------------------*/
2754:.\Generated_Source\PSoC5/LED_Driver_Gear.c ****               /*  '8'    '9'    'A'    'B'    'C'    'D'    'E'    'F'  */
2755:.\Generated_Source\PSoC5/LED_Driver_Gear.c ****               /*--------------------------------------------------------*/
2756:.\Generated_Source\PSoC5/LED_Driver_Gear.c ****                  0x00u, 0x00u, 0x00u, 0x12u, 0x00u, 0x12u, 0x00u, 0x00u};
2757:.\Generated_Source\PSoC5/LED_Driver_Gear.c ****     #else
2758:.\Generated_Source\PSoC5/LED_Driver_Gear.c ****         /* 14-segment numerical LUT for low byte */
2759:.\Generated_Source\PSoC5/LED_Driver_Gear.c ****         static const uint8 CYCODE LED_Driver_Gear_14SegDigitsLow[16] =
2760:.\Generated_Source\PSoC5/LED_Driver_Gear.c ****               /*--------------------------------------------------------*/
2761:.\Generated_Source\PSoC5/LED_Driver_Gear.c ****               /*  '0'    '1'    '2'    '3'    '4'    '5'    '6'    '7'  */
2762:.\Generated_Source\PSoC5/LED_Driver_Gear.c ****               /*--------------------------------------------------------*/
2763:.\Generated_Source\PSoC5/LED_Driver_Gear.c ****                 {0xc0u, 0xf9u, 0x24u, 0x30u, 0x19u, 0x12u, 0x02u, 0xf8u,
2764:.\Generated_Source\PSoC5/LED_Driver_Gear.c ****               /*--------------------------------------------------------*/
2765:.\Generated_Source\PSoC5/LED_Driver_Gear.c ****               /*  '8'    '9'    'A'    'B'    'C'    'D'    'E'    'F'  */
2766:.\Generated_Source\PSoC5/LED_Driver_Gear.c ****               /*--------------------------------------------------------*/
2767:.\Generated_Source\PSoC5/LED_Driver_Gear.c ****                  0x00u, 0x10u, 0x08u, 0x70u, 0xc6u, 0xf0u, 0x06u, 0x0eu};
2768:.\Generated_Source\PSoC5/LED_Driver_Gear.c **** 
2769:.\Generated_Source\PSoC5/LED_Driver_Gear.c ****         /* 14-segment numerical LUT for high byte */
2770:.\Generated_Source\PSoC5/LED_Driver_Gear.c ****         static const uint8 CYCODE LED_Driver_Gear_14SegDigitsHigh[16] =
2771:.\Generated_Source\PSoC5/LED_Driver_Gear.c ****               /*--------------------------------------------------------*/
2772:.\Generated_Source\PSoC5/LED_Driver_Gear.c ****               /*  '0'    '1'    '2'    '3'    '4'    '5'    '6'    '7'  */
2773:.\Generated_Source\PSoC5/LED_Driver_Gear.c ****               /*--------------------------------------------------------*/
2774:.\Generated_Source\PSoC5/LED_Driver_Gear.c ****                 {0xdbu, 0xffu, 0xffu, 0xffu, 0xffu, 0xffu, 0xffu, 0xffu,
2775:.\Generated_Source\PSoC5/LED_Driver_Gear.c ****               /*--------------------------------------------------------*/
2776:.\Generated_Source\PSoC5/LED_Driver_Gear.c ****               /*  '8'    '9'    'A'    'B'    'C'    'D'    'E'    'F'  */
2777:.\Generated_Source\PSoC5/LED_Driver_Gear.c ****               /*--------------------------------------------------------*/
2778:.\Generated_Source\PSoC5/LED_Driver_Gear.c ****                  0xffu, 0xffu, 0xffu, 0xedu, 0xffu, 0xedu, 0xffu, 0xffu};
2779:.\Generated_Source\PSoC5/LED_Driver_Gear.c ****     #endif /*  LED_Driver_Gear_SEG_DRIVE */
2780:.\Generated_Source\PSoC5/LED_Driver_Gear.c ****     
2781:.\Generated_Source\PSoC5/LED_Driver_Gear.c ****     uint8 valNum;
2782:.\Generated_Source\PSoC5/LED_Driver_Gear.c ****     uint16 valLow;
2783:.\Generated_Source\PSoC5/LED_Driver_Gear.c ****     uint16 valHigh;
2784:.\Generated_Source\PSoC5/LED_Driver_Gear.c ****     uint16 valHex;
2785:.\Generated_Source\PSoC5/LED_Driver_Gear.c ****     
2786:.\Generated_Source\PSoC5/LED_Driver_Gear.c ****     valNum = (uint8)(number & LED_Driver_Gear_NIBBLE_MASK);
 1833              		.loc 1 2786 0
 1834 0000 00F00F00 		and	r0, r0, #15
 1835              	.LVL232:
2787:.\Generated_Source\PSoC5/LED_Driver_Gear.c ****     
2788:.\Generated_Source\PSoC5/LED_Driver_Gear.c ****     /* Get the 14-seg hex value from high and low byte LUTs */
ARM GAS  C:\Users\charl\AppData\Local\Temp\ccxfbC9q.s 			page 85


2789:.\Generated_Source\PSoC5/LED_Driver_Gear.c ****     valHigh = (uint16)((uint16)LED_Driver_Gear_14SegDigitsHigh[valNum] << LED_Driver_Gear_SHIFT_BYT
 1836              		.loc 1 2789 0
 1837 0004 044B     		ldr	r3, .L200
 1838 0006 0344     		add	r3, r3, r0
 1839 0008 93F87000 		ldrb	r0, [r3, #112]	@ zero_extendqisi2
 1840              	.LVL233:
2790:.\Generated_Source\PSoC5/LED_Driver_Gear.c ****     valLow = (uint16)LED_Driver_Gear_14SegDigitsLow[valNum];
 1841              		.loc 1 2790 0
 1842 000c 93F88030 		ldrb	r3, [r3, #128]	@ zero_extendqisi2
 1843              	.LVL234:
2791:.\Generated_Source\PSoC5/LED_Driver_Gear.c ****     
2792:.\Generated_Source\PSoC5/LED_Driver_Gear.c ****     valHex = valHigh | valLow;
2793:.\Generated_Source\PSoC5/LED_Driver_Gear.c ****     
2794:.\Generated_Source\PSoC5/LED_Driver_Gear.c ****     return(valHex);
2795:.\Generated_Source\PSoC5/LED_Driver_Gear.c **** }
 1844              		.loc 1 2795 0
 1845 0010 43EA0020 		orr	r0, r3, r0, lsl #8
 1846              	.LVL235:
 1847 0014 7047     		bx	lr
 1848              	.L201:
 1849 0016 00BF     		.align	2
 1850              	.L200:
 1851 0018 00000000 		.word	.LANCHOR2
 1852              		.cfi_endproc
 1853              	.LFE36:
 1854              		.size	LED_Driver_Gear_EncodeNumber14Seg, .-LED_Driver_Gear_EncodeNumber14Seg
 1855              		.section	.text.LED_Driver_Gear_Write14SegNumberHex,"ax",%progbits
 1856              		.align	2
 1857              		.global	LED_Driver_Gear_Write14SegNumberHex
 1858              		.thumb
 1859              		.thumb_func
 1860              		.type	LED_Driver_Gear_Write14SegNumberHex, %function
 1861              	LED_Driver_Gear_Write14SegNumberHex:
 1862              	.LFB21:
1691:.\Generated_Source\PSoC5/LED_Driver_Gear.c ****     uint8 i;
 1863              		.loc 1 1691 0
 1864              		.cfi_startproc
 1865              		@ args = 0, pretend = 0, frame = 16
 1866              		@ frame_needed = 0, uses_anonymous_args = 0
 1867              	.LVL236:
 1868 0000 2DE9F041 		push	{r4, r5, r6, r7, r8, lr}
 1869              		.cfi_def_cfa_offset 24
 1870              		.cfi_offset 4, -24
 1871              		.cfi_offset 5, -20
 1872              		.cfi_offset 6, -16
 1873              		.cfi_offset 7, -12
 1874              		.cfi_offset 8, -8
 1875              		.cfi_offset 14, -4
 1876 0004 84B0     		sub	sp, sp, #16
 1877              		.cfi_def_cfa_offset 40
 1878 0006 0746     		mov	r7, r0
 1879 0008 0E46     		mov	r6, r1
 1880 000a 1446     		mov	r4, r2
 1881 000c 9846     		mov	r8, r3
1695:.\Generated_Source\PSoC5/LED_Driver_Gear.c ****     uint32 numberVal;
 1882              		.loc 1 1695 0
 1883 000e 0023     		movs	r3, #0
ARM GAS  C:\Users\charl\AppData\Local\Temp\ccxfbC9q.s 			page 86


 1884              	.LVL237:
 1885 0010 0093     		str	r3, [sp]
 1886 0012 0193     		str	r3, [sp, #4]
 1887 0014 0293     		str	r3, [sp, #8]
 1888 0016 0393     		str	r3, [sp, #12]
 1889              	.LVL238:
1701:.\Generated_Source\PSoC5/LED_Driver_Gear.c ****     {
 1890              		.loc 1 1701 0
 1891 0018 1346     		mov	r3, r2
 1892 001a 0BE0     		b	.L203
 1893              	.LVL239:
 1894              	.L204:
1704:.\Generated_Source\PSoC5/LED_Driver_Gear.c ****         numberVal = (uint32)((uint32)numberVal >> LED_Driver_Gear_SHIFT_NIBBLE);
 1895              		.loc 1 1704 0 discriminator 3
 1896 001c 5D1E     		subs	r5, r3, #1
 1897 001e 07F00F00 		and	r0, r7, #15
 1898 0022 FFF7FEFF 		bl	LED_Driver_Gear_EncodeNumber14Seg
 1899              	.LVL240:
 1900 0026 04AB     		add	r3, sp, #16
 1901 0028 03EB4503 		add	r3, r3, r5, lsl #1
 1902 002c 23F8100C 		strh	r0, [r3, #-16]	@ movhi
1705:.\Generated_Source\PSoC5/LED_Driver_Gear.c ****     }
 1903              		.loc 1 1705 0 discriminator 3
 1904 0030 3F09     		lsrs	r7, r7, #4
 1905              	.LVL241:
1701:.\Generated_Source\PSoC5/LED_Driver_Gear.c ****     {
 1906              		.loc 1 1701 0 discriminator 3
 1907 0032 EBB2     		uxtb	r3, r5
 1908              	.LVL242:
 1909              	.L203:
1701:.\Generated_Source\PSoC5/LED_Driver_Gear.c ****     {
 1910              		.loc 1 1701 0 is_stmt 0 discriminator 1
 1911 0034 002B     		cmp	r3, #0
 1912 0036 F1D1     		bne	.L204
 1913 0038 10E0     		b	.L205
 1914              	.L207:
1711:.\Generated_Source\PSoC5/LED_Driver_Gear.c ****         {
 1915              		.loc 1 1711 0 is_stmt 1
 1916 003a 04AA     		add	r2, sp, #16
 1917 003c 02EB4302 		add	r2, r2, r3, lsl #1
 1918 0040 32F8101C 		ldrh	r1, [r2, #-16]
 1919 0044 42F23F42 		movw	r2, #9279
 1920 0048 9142     		cmp	r1, r2
 1921 004a 09D1     		bne	.L206
1719:.\Generated_Source\PSoC5/LED_Driver_Gear.c ****         }    
 1922              		.loc 1 1719 0 discriminator 2
 1923 004c 04AA     		add	r2, sp, #16
 1924 004e 02EB4302 		add	r2, r2, r3, lsl #1
 1925 0052 0021     		movs	r1, #0
 1926 0054 22F8101C 		strh	r1, [r2, #-16]	@ movhi
1709:.\Generated_Source\PSoC5/LED_Driver_Gear.c ****     {
 1927              		.loc 1 1709 0 discriminator 2
 1928 0058 0133     		adds	r3, r3, #1
 1929              	.LVL243:
 1930 005a DBB2     		uxtb	r3, r3
 1931              	.LVL244:
 1932              	.L205:
ARM GAS  C:\Users\charl\AppData\Local\Temp\ccxfbC9q.s 			page 87


1709:.\Generated_Source\PSoC5/LED_Driver_Gear.c ****     {
 1933              		.loc 1 1709 0 is_stmt 0 discriminator 1
 1934 005c A342     		cmp	r3, r4
 1935 005e ECD3     		bcc	.L207
 1936              	.L206:
 1937              	.LVL245:
1726:.\Generated_Source\PSoC5/LED_Driver_Gear.c ****     {
 1938              		.loc 1 1726 0 is_stmt 1
 1939 0060 B8F1010F 		cmp	r8, #1
 1940 0064 27D1     		bne	.L209
 1941 0066 0DE0     		b	.L218
 1942              	.L212:
1730:.\Generated_Source\PSoC5/LED_Driver_Gear.c ****             {
 1943              		.loc 1 1730 0
 1944 0068 04AA     		add	r2, sp, #16
 1945 006a 02EB4302 		add	r2, r2, r3, lsl #1
 1946 006e 32F8102C 		ldrh	r2, [r2, #-16]
 1947 0072 22B1     		cbz	r2, .L210
1732:.\Generated_Source\PSoC5/LED_Driver_Gear.c ****                 {
 1948              		.loc 1 1732 0
 1949 0074 0EB9     		cbnz	r6, .L211
1735:.\Generated_Source\PSoC5/LED_Driver_Gear.c ****                 #if (LED_Driver_Gear_NUM_SEG > 8u)
 1950              		.loc 1 1735 0
 1951 0076 1249     		ldr	r1, .L220
 1952 0078 8A55     		strb	r2, [r1, r6]
 1953              	.L211:
1740:.\Generated_Source\PSoC5/LED_Driver_Gear.c ****             }
 1954              		.loc 1 1740 0
 1955 007a 0136     		adds	r6, r6, #1
 1956              	.LVL246:
 1957 007c F6B2     		uxtb	r6, r6
 1958              	.LVL247:
 1959              	.L210:
1728:.\Generated_Source\PSoC5/LED_Driver_Gear.c ****         {
 1960              		.loc 1 1728 0 discriminator 2
 1961 007e 0133     		adds	r3, r3, #1
 1962              	.LVL248:
 1963 0080 DBB2     		uxtb	r3, r3
 1964              	.LVL249:
 1965 0082 00E0     		b	.L208
 1966              	.L218:
 1967 0084 0023     		movs	r3, #0
 1968              	.LVL250:
 1969              	.L208:
1728:.\Generated_Source\PSoC5/LED_Driver_Gear.c ****         {
 1970              		.loc 1 1728 0 is_stmt 0 discriminator 1
 1971 0086 A342     		cmp	r3, r4
 1972 0088 EED3     		bcc	.L212
 1973 008a 04E0     		b	.L213
 1974              	.LVL251:
 1975              	.L214:
1747:.\Generated_Source\PSoC5/LED_Driver_Gear.c ****             #if (LED_Driver_Gear_NUM_SEG > 8u)
 1976              		.loc 1 1747 0 is_stmt 1
 1977 008c 0022     		movs	r2, #0
 1978 008e 0C4B     		ldr	r3, .L220
 1979 0090 9A55     		strb	r2, [r3, r6]
1752:.\Generated_Source\PSoC5/LED_Driver_Gear.c ****         }
ARM GAS  C:\Users\charl\AppData\Local\Temp\ccxfbC9q.s 			page 88


 1980              		.loc 1 1752 0
 1981 0092 0136     		adds	r6, r6, #1
 1982              	.LVL252:
 1983 0094 F6B2     		uxtb	r6, r6
 1984              	.LVL253:
 1985              	.L213:
1744:.\Generated_Source\PSoC5/LED_Driver_Gear.c ****         {
 1986              		.loc 1 1744 0
 1987 0096 A642     		cmp	r6, r4
 1988 0098 F8D3     		bcc	.L214
 1989 009a 0EE0     		b	.L202
 1990              	.LVL254:
 1991              	.L217:
1759:.\Generated_Source\PSoC5/LED_Driver_Gear.c ****             {
 1992              		.loc 1 1759 0
 1993 009c A319     		adds	r3, r4, r6
 1994 009e 012B     		cmp	r3, #1
 1995 00a0 07D1     		bne	.L216
1761:.\Generated_Source\PSoC5/LED_Driver_Gear.c ****             #if (LED_Driver_Gear_NUM_SEG > 8u)
 1996              		.loc 1 1761 0
 1997 00a2 013B     		subs	r3, r3, #1
 1998 00a4 04AA     		add	r2, sp, #16
 1999 00a6 02EB4402 		add	r2, r2, r4, lsl #1
 2000 00aa 12F8121C 		ldrb	r1, [r2, #-18]	@ zero_extendqisi2
 2001 00ae 044A     		ldr	r2, .L220
 2002 00b0 D154     		strb	r1, [r2, r3]
 2003              	.L216:
1757:.\Generated_Source\PSoC5/LED_Driver_Gear.c ****         {
 2004              		.loc 1 1757 0 discriminator 2
 2005 00b2 013C     		subs	r4, r4, #1
 2006              	.LVL255:
 2007 00b4 E4B2     		uxtb	r4, r4
 2008              	.LVL256:
 2009              	.L209:
1757:.\Generated_Source\PSoC5/LED_Driver_Gear.c ****         {
 2010              		.loc 1 1757 0 is_stmt 0 discriminator 1
 2011 00b6 002C     		cmp	r4, #0
 2012 00b8 F0D1     		bne	.L217
 2013              	.LVL257:
 2014              	.L202:
1768:.\Generated_Source\PSoC5/LED_Driver_Gear.c **** 
 2015              		.loc 1 1768 0 is_stmt 1
 2016 00ba 04B0     		add	sp, sp, #16
 2017              		.cfi_def_cfa_offset 24
 2018              		@ sp needed
 2019 00bc BDE8F081 		pop	{r4, r5, r6, r7, r8, pc}
 2020              	.LVL258:
 2021              	.L221:
 2022              		.align	2
 2023              	.L220:
 2024 00c0 00000000 		.word	LED_Driver_Gear_segLBuffer
 2025              		.cfi_endproc
 2026              	.LFE21:
 2027              		.size	LED_Driver_Gear_Write14SegNumberHex, .-LED_Driver_Gear_Write14SegNumberHex
 2028              		.section	.text.LED_Driver_Gear_Write14SegDigitDec,"ax",%progbits
 2029              		.align	2
 2030              		.global	LED_Driver_Gear_Write14SegDigitDec
ARM GAS  C:\Users\charl\AppData\Local\Temp\ccxfbC9q.s 			page 89


 2031              		.thumb
 2032              		.thumb_func
 2033              		.type	LED_Driver_Gear_Write14SegDigitDec, %function
 2034              	LED_Driver_Gear_Write14SegDigitDec:
 2035              	.LFB24:
1874:.\Generated_Source\PSoC5/LED_Driver_Gear.c ****     uint16 charDisplay;
 2036              		.loc 1 1874 0
 2037              		.cfi_startproc
 2038              		@ args = 0, pretend = 0, frame = 0
 2039              		@ frame_needed = 0, uses_anonymous_args = 0
 2040              	.LVL259:
1877:.\Generated_Source\PSoC5/LED_Driver_Gear.c ****     {
 2041              		.loc 1 1877 0
 2042 0000 0928     		cmp	r0, #9
 2043 0002 07D8     		bhi	.L225
1877:.\Generated_Source\PSoC5/LED_Driver_Gear.c ****     {
 2044              		.loc 1 1877 0 is_stmt 0 discriminator 1
 2045 0004 31B9     		cbnz	r1, .L225
1874:.\Generated_Source\PSoC5/LED_Driver_Gear.c ****     uint16 charDisplay;
 2046              		.loc 1 1874 0 is_stmt 1
 2047 0006 10B5     		push	{r4, lr}
 2048              		.cfi_def_cfa_offset 8
 2049              		.cfi_offset 4, -8
 2050              		.cfi_offset 14, -4
 2051 0008 0C46     		mov	r4, r1
1879:.\Generated_Source\PSoC5/LED_Driver_Gear.c ****         LED_Driver_Gear_segLBuffer[position] = LO8(charDisplay);
 2052              		.loc 1 1879 0
 2053 000a FFF7FEFF 		bl	LED_Driver_Gear_EncodeNumber14Seg
 2054              	.LVL260:
1880:.\Generated_Source\PSoC5/LED_Driver_Gear.c ****     #if (LED_Driver_Gear_NUM_SEG > 8u)
 2055              		.loc 1 1880 0
 2056 000e 024B     		ldr	r3, .L226
 2057 0010 1855     		strb	r0, [r3, r4]
 2058 0012 10BD     		pop	{r4, pc}
 2059              	.LVL261:
 2060              	.L225:
 2061              		.cfi_def_cfa_offset 0
 2062              		.cfi_restore 4
 2063              		.cfi_restore 14
 2064 0014 7047     		bx	lr
 2065              	.L227:
 2066 0016 00BF     		.align	2
 2067              	.L226:
 2068 0018 00000000 		.word	LED_Driver_Gear_segLBuffer
 2069              		.cfi_endproc
 2070              	.LFE24:
 2071              		.size	LED_Driver_Gear_Write14SegDigitDec, .-LED_Driver_Gear_Write14SegDigitDec
 2072              		.section	.text.LED_Driver_Gear_Write14SegDigitHex,"ax",%progbits
 2073              		.align	2
 2074              		.global	LED_Driver_Gear_Write14SegDigitHex
 2075              		.thumb
 2076              		.thumb_func
 2077              		.type	LED_Driver_Gear_Write14SegDigitHex, %function
 2078              	LED_Driver_Gear_Write14SegDigitHex:
 2079              	.LFB25:
1909:.\Generated_Source\PSoC5/LED_Driver_Gear.c ****     uint16 charDisplay;
 2080              		.loc 1 1909 0
ARM GAS  C:\Users\charl\AppData\Local\Temp\ccxfbC9q.s 			page 90


 2081              		.cfi_startproc
 2082              		@ args = 0, pretend = 0, frame = 0
 2083              		@ frame_needed = 0, uses_anonymous_args = 0
 2084              	.LVL262:
1912:.\Generated_Source\PSoC5/LED_Driver_Gear.c ****     {
 2085              		.loc 1 1912 0
 2086 0000 31B9     		cbnz	r1, .L231
1909:.\Generated_Source\PSoC5/LED_Driver_Gear.c ****     uint16 charDisplay;
 2087              		.loc 1 1909 0
 2088 0002 10B5     		push	{r4, lr}
 2089              		.cfi_def_cfa_offset 8
 2090              		.cfi_offset 4, -8
 2091              		.cfi_offset 14, -4
 2092 0004 0C46     		mov	r4, r1
1914:.\Generated_Source\PSoC5/LED_Driver_Gear.c ****         LED_Driver_Gear_segLBuffer[position] = LO8(charDisplay);
 2093              		.loc 1 1914 0
 2094 0006 FFF7FEFF 		bl	LED_Driver_Gear_EncodeNumber14Seg
 2095              	.LVL263:
1915:.\Generated_Source\PSoC5/LED_Driver_Gear.c ****     #if (LED_Driver_Gear_NUM_SEG > 8u)
 2096              		.loc 1 1915 0
 2097 000a 024B     		ldr	r3, .L232
 2098 000c 1855     		strb	r0, [r3, r4]
 2099 000e 10BD     		pop	{r4, pc}
 2100              	.LVL264:
 2101              	.L231:
 2102              		.cfi_def_cfa_offset 0
 2103              		.cfi_restore 4
 2104              		.cfi_restore 14
 2105 0010 7047     		bx	lr
 2106              	.L233:
 2107 0012 00BF     		.align	2
 2108              	.L232:
 2109 0014 00000000 		.word	LED_Driver_Gear_segLBuffer
 2110              		.cfi_endproc
 2111              	.LFE25:
 2112              		.size	LED_Driver_Gear_Write14SegDigitHex, .-LED_Driver_Gear_Write14SegDigitHex
 2113              		.section	.text.LED_Driver_Gear_EncodeChar14Seg,"ax",%progbits
 2114              		.align	2
 2115              		.global	LED_Driver_Gear_EncodeChar14Seg
 2116              		.thumb
 2117              		.thumb_func
 2118              		.type	LED_Driver_Gear_EncodeChar14Seg, %function
 2119              	LED_Driver_Gear_EncodeChar14Seg:
 2120              	.LFB37:
2796:.\Generated_Source\PSoC5/LED_Driver_Gear.c **** 
2797:.\Generated_Source\PSoC5/LED_Driver_Gear.c **** 
2798:.\Generated_Source\PSoC5/LED_Driver_Gear.c **** /*******************************************************************************
2799:.\Generated_Source\PSoC5/LED_Driver_Gear.c **** * Function Name: LED_Driver_Gear_EncodeChar14Seg
2800:.\Generated_Source\PSoC5/LED_Driver_Gear.c **** ********************************************************************************
2801:.\Generated_Source\PSoC5/LED_Driver_Gear.c **** *
2802:.\Generated_Source\PSoC5/LED_Driver_Gear.c **** * Summary:
2803:.\Generated_Source\PSoC5/LED_Driver_Gear.c **** *  Converts the ASCII encoded alphabet character input into the 14-segment
2804:.\Generated_Source\PSoC5/LED_Driver_Gear.c **** *  data that will display the alphabet character on a display. 14-segment 
2805:.\Generated_Source\PSoC5/LED_Driver_Gear.c **** *  display RAM is split into two sections (one for the lower 8 segments, one
2806:.\Generated_Source\PSoC5/LED_Driver_Gear.c **** *  for the top 6), so the returned data must be separated into high and low 
2807:.\Generated_Source\PSoC5/LED_Driver_Gear.c **** *  bytes before being written directly into the display RAM to display the 
2808:.\Generated_Source\PSoC5/LED_Driver_Gear.c **** *  desired character. It is not necessary to use this function since higher 
ARM GAS  C:\Users\charl\AppData\Local\Temp\ccxfbC9q.s 			page 91


2809:.\Generated_Source\PSoC5/LED_Driver_Gear.c **** *  level API are provided to both decode the value and write it to the display
2810:.\Generated_Source\PSoC5/LED_Driver_Gear.c **** *  RAM.
2811:.\Generated_Source\PSoC5/LED_Driver_Gear.c **** *
2812:.\Generated_Source\PSoC5/LED_Driver_Gear.c **** * Parameters:
2813:.\Generated_Source\PSoC5/LED_Driver_Gear.c **** *  char8 input: An ASCII alphabet character to be converted into segment data.
2814:.\Generated_Source\PSoC5/LED_Driver_Gear.c **** *
2815:.\Generated_Source\PSoC5/LED_Driver_Gear.c **** * Return:
2816:.\Generated_Source\PSoC5/LED_Driver_Gear.c **** *  The value to be written into the display RAM for displaying the specified
2817:.\Generated_Source\PSoC5/LED_Driver_Gear.c **** *  character.
2818:.\Generated_Source\PSoC5/LED_Driver_Gear.c **** *
2819:.\Generated_Source\PSoC5/LED_Driver_Gear.c **** * Side effects:
2820:.\Generated_Source\PSoC5/LED_Driver_Gear.c **** *  None
2821:.\Generated_Source\PSoC5/LED_Driver_Gear.c **** *
2822:.\Generated_Source\PSoC5/LED_Driver_Gear.c **** *******************************************************************************/
2823:.\Generated_Source\PSoC5/LED_Driver_Gear.c **** uint16 LED_Driver_Gear_EncodeChar14Seg(char8 input) 
2824:.\Generated_Source\PSoC5/LED_Driver_Gear.c **** {
 2121              		.loc 1 2824 0
 2122              		.cfi_startproc
 2123              		@ args = 0, pretend = 0, frame = 0
 2124              		@ frame_needed = 0, uses_anonymous_args = 0
 2125              		@ link register save eliminated.
 2126              	.LVL265:
2825:.\Generated_Source\PSoC5/LED_Driver_Gear.c ****     #if(LED_Driver_Gear_SEG_DRIVE == LED_Driver_Gear_HIGH)
2826:.\Generated_Source\PSoC5/LED_Driver_Gear.c ****         /* 14-segment ASCII LUT for low byte */
2827:.\Generated_Source\PSoC5/LED_Driver_Gear.c ****         static const uint8 CYCODE LED_Driver_Gear_14SegASCIILow[6][16] =
2828:.\Generated_Source\PSoC5/LED_Driver_Gear.c ****               {
2829:.\Generated_Source\PSoC5/LED_Driver_Gear.c ****               /*--------------------------------------------------------*/
2830:.\Generated_Source\PSoC5/LED_Driver_Gear.c ****               /* 'Space' '!'    '"'    '#'    '$'    '%'    '&'    '''  */
2831:.\Generated_Source\PSoC5/LED_Driver_Gear.c ****               /*--------------------------------------------------------*/
2832:.\Generated_Source\PSoC5/LED_Driver_Gear.c ****                 {0x00u, 0x30u, 0x20u, 0x00u, 0x00u, 0x00u, 0x00u, 0x20u,
2833:.\Generated_Source\PSoC5/LED_Driver_Gear.c ****               /*--------------------------------------------------------*/
2834:.\Generated_Source\PSoC5/LED_Driver_Gear.c ****               /*  '('    ')'    '*'    '+'    ','    '-'    '.'    '/'  */
2835:.\Generated_Source\PSoC5/LED_Driver_Gear.c ****               /*--------------------------------------------------------*/
2836:.\Generated_Source\PSoC5/LED_Driver_Gear.c ****                  0x00u, 0x00u, 0xc0u, 0x00u, 0x00u, 0xc0u, 0x00u, 0x00u},
2837:.\Generated_Source\PSoC5/LED_Driver_Gear.c ****               /*--------------------------------------------------------*/   
2838:.\Generated_Source\PSoC5/LED_Driver_Gear.c ****               /*  '0'    '1'    '2'    '3'    '4'    '5'    '6'    '7'  */
2839:.\Generated_Source\PSoC5/LED_Driver_Gear.c ****               /*--------------------------------------------------------*/
2840:.\Generated_Source\PSoC5/LED_Driver_Gear.c ****                 {0x3fu, 0x06u, 0xdbu, 0xcfu, 0xe6u, 0xedu, 0xfdu, 0x07u,
2841:.\Generated_Source\PSoC5/LED_Driver_Gear.c ****               /*--------------------------------------------------------*/
2842:.\Generated_Source\PSoC5/LED_Driver_Gear.c ****               /*  '8'    '9'    ':'    ';'    '<'    '='    '>'    '?'  */
2843:.\Generated_Source\PSoC5/LED_Driver_Gear.c ****               /*--------------------------------------------------------*/
2844:.\Generated_Source\PSoC5/LED_Driver_Gear.c ****                  0xffu, 0xefu, 0x00u, 0x00u, 0x00u, 0xc8u, 0x00u, 0x83u},
2845:.\Generated_Source\PSoC5/LED_Driver_Gear.c ****               /*--------------------------------------------------------*/
2846:.\Generated_Source\PSoC5/LED_Driver_Gear.c ****               /*  '@'    'A'    'B'    'C'    'D'    'E'    'F'    'G'  */
2847:.\Generated_Source\PSoC5/LED_Driver_Gear.c ****               /*--------------------------------------------------------*/
2848:.\Generated_Source\PSoC5/LED_Driver_Gear.c ****                 {0x00u, 0xf7u, 0x8fu, 0x39u, 0x0fu, 0xf9u, 0xf1u, 0xbdu,
2849:.\Generated_Source\PSoC5/LED_Driver_Gear.c ****               /*--------------------------------------------------------*/
2850:.\Generated_Source\PSoC5/LED_Driver_Gear.c ****               /*  'H'    'I'    'J'    'K'    'L'    'M'    'N'    'O'  */
2851:.\Generated_Source\PSoC5/LED_Driver_Gear.c ****               /*--------------------------------------------------------*/
2852:.\Generated_Source\PSoC5/LED_Driver_Gear.c ****                  0xf6u, 0x09u, 0x1Eu, 0x70u, 0x38u, 0x36u, 0x36u, 0x3fu},
2853:.\Generated_Source\PSoC5/LED_Driver_Gear.c ****               /*--------------------------------------------------------*/
2854:.\Generated_Source\PSoC5/LED_Driver_Gear.c ****               /*  'P'    'Q'    'R'    'S'    'T'    'U'    'V'    'W'  */
2855:.\Generated_Source\PSoC5/LED_Driver_Gear.c ****               /*--------------------------------------------------------*/
2856:.\Generated_Source\PSoC5/LED_Driver_Gear.c ****                 {0xf3u, 0x3fu, 0xf3u, 0xedu, 0x01u, 0x3eu, 0x30u, 0x36u,
2857:.\Generated_Source\PSoC5/LED_Driver_Gear.c ****               /*--------------------------------------------------------*/
2858:.\Generated_Source\PSoC5/LED_Driver_Gear.c ****               /*  'X'    'Y'    'Z'    '['    '\'    ']'    '^'    '_'  */
2859:.\Generated_Source\PSoC5/LED_Driver_Gear.c ****               /*--------------------------------------------------------*/
ARM GAS  C:\Users\charl\AppData\Local\Temp\ccxfbC9q.s 			page 92


2860:.\Generated_Source\PSoC5/LED_Driver_Gear.c ****                  0x00u, 0x00u, 0x09u, 0x00u, 0x00u, 0x00u, 0x00u, 0x08u},
2861:.\Generated_Source\PSoC5/LED_Driver_Gear.c ****               /*--------------------------------------------------------*/
2862:.\Generated_Source\PSoC5/LED_Driver_Gear.c ****               /*  '`'    'a'    'b'    'c'    'd'    'e'    'f'    'g'  */
2863:.\Generated_Source\PSoC5/LED_Driver_Gear.c ****               /*--------------------------------------------------------*/
2864:.\Generated_Source\PSoC5/LED_Driver_Gear.c ****                 {0x00u, 0xf7u, 0xfcu, 0xd8u, 0xdeu, 0xf9u, 0xf1u, 0xefu,
2865:.\Generated_Source\PSoC5/LED_Driver_Gear.c ****               /*--------------------------------------------------------*/
2866:.\Generated_Source\PSoC5/LED_Driver_Gear.c ****               /*  'h'    'i'    'j'    'k'    'l'    'm'    'n'    'o'  */
2867:.\Generated_Source\PSoC5/LED_Driver_Gear.c ****               /*--------------------------------------------------------*/
2868:.\Generated_Source\PSoC5/LED_Driver_Gear.c ****                  0xf4u, 0x00u, 0x1Eu, 0x70u, 0x00u, 0xd4u, 0xd4u, 0xdcu},
2869:.\Generated_Source\PSoC5/LED_Driver_Gear.c ****               /*--------------------------------------------------------*/
2870:.\Generated_Source\PSoC5/LED_Driver_Gear.c ****               /*  'p'    'q'    'r'    's'    't'    'u'    'v'    'w'  */
2871:.\Generated_Source\PSoC5/LED_Driver_Gear.c ****               /*--------------------------------------------------------*/
2872:.\Generated_Source\PSoC5/LED_Driver_Gear.c ****                 {0xf3u, 0x3fu, 0xd0u, 0xedu, 0xc0u, 0x1cu, 0x10u, 0x1cu,
2873:.\Generated_Source\PSoC5/LED_Driver_Gear.c ****               /*--------------------------------------------------------*/
2874:.\Generated_Source\PSoC5/LED_Driver_Gear.c ****               /*  'x'    'y'    'z'    '{'    '|'    '}'    '~'   'DEL' */
2875:.\Generated_Source\PSoC5/LED_Driver_Gear.c ****               /*--------------------------------------------------------*/
2876:.\Generated_Source\PSoC5/LED_Driver_Gear.c ****                  0x00u, 0x00u, 0x09u, 0x00u, 0x00u, 0x00u, 0x00u, 0x00u}
2877:.\Generated_Source\PSoC5/LED_Driver_Gear.c ****               };
2878:.\Generated_Source\PSoC5/LED_Driver_Gear.c **** 
2879:.\Generated_Source\PSoC5/LED_Driver_Gear.c ****         /* 14-segment ASCII LUT for high byte */
2880:.\Generated_Source\PSoC5/LED_Driver_Gear.c ****         static const uint8 CYCODE LED_Driver_Gear_14SegASCIIHigh[6][16] =
2881:.\Generated_Source\PSoC5/LED_Driver_Gear.c ****               {
2882:.\Generated_Source\PSoC5/LED_Driver_Gear.c ****               /*--------------------------------------------------------*/
2883:.\Generated_Source\PSoC5/LED_Driver_Gear.c ****               /* 'Space' '!'    '"'    '#'    '$'    '%'    '&'    '''  */
2884:.\Generated_Source\PSoC5/LED_Driver_Gear.c ****               /*--------------------------------------------------------*/
2885:.\Generated_Source\PSoC5/LED_Driver_Gear.c ****                 {0x00u, 0x00u, 0x02u, 0x00u, 0x00u, 0x00u, 0x00u, 0x00u,
2886:.\Generated_Source\PSoC5/LED_Driver_Gear.c ****               /*--------------------------------------------------------*/
2887:.\Generated_Source\PSoC5/LED_Driver_Gear.c ****               /*  '('    ')'    '*'    '+'    ','    '-'    '.'    '/'  */
2888:.\Generated_Source\PSoC5/LED_Driver_Gear.c ****               /*--------------------------------------------------------*/
2889:.\Generated_Source\PSoC5/LED_Driver_Gear.c ****                  0x0cu, 0x21u, 0x3fu, 0x00u, 0x20u, 0x00u, 0x00u, 0x00u},
2890:.\Generated_Source\PSoC5/LED_Driver_Gear.c ****               /*--------------------------------------------------------*/   
2891:.\Generated_Source\PSoC5/LED_Driver_Gear.c ****               /*  '0'    '1'    '2'    '3'    '4'    '5'    '6'    '7'  */
2892:.\Generated_Source\PSoC5/LED_Driver_Gear.c ****               /*--------------------------------------------------------*/
2893:.\Generated_Source\PSoC5/LED_Driver_Gear.c ****                 {0x24u, 0x00u, 0x00u, 0x00u, 0x00u, 0x00u, 0x00u, 0x00u,
2894:.\Generated_Source\PSoC5/LED_Driver_Gear.c ****               /*--------------------------------------------------------*/
2895:.\Generated_Source\PSoC5/LED_Driver_Gear.c ****               /*  '8'    '9'    ':'    ';'    '<'    '='    '>'    '?'  */
2896:.\Generated_Source\PSoC5/LED_Driver_Gear.c ****               /*--------------------------------------------------------*/
2897:.\Generated_Source\PSoC5/LED_Driver_Gear.c ****                  0x00u, 0x00u, 0x00u, 0x00u, 0x00u, 0x00u, 0x00u, 0x10u},
2898:.\Generated_Source\PSoC5/LED_Driver_Gear.c ****               /*--------------------------------------------------------*/
2899:.\Generated_Source\PSoC5/LED_Driver_Gear.c ****               /*  '@'    'A'    'B'    'C'    'D'    'E'    'F'    'G'  */
2900:.\Generated_Source\PSoC5/LED_Driver_Gear.c ****               /*--------------------------------------------------------*/
2901:.\Generated_Source\PSoC5/LED_Driver_Gear.c ****                 {0x00u, 0x00u, 0x12u, 0x00u, 0x12u, 0x00u, 0x00u, 0x00u,
2902:.\Generated_Source\PSoC5/LED_Driver_Gear.c ****               /*--------------------------------------------------------*/
2903:.\Generated_Source\PSoC5/LED_Driver_Gear.c ****               /*  'H'    'I'    'J'    'K'    'L'    'M'    'N'    'O'  */
2904:.\Generated_Source\PSoC5/LED_Driver_Gear.c ****               /*--------------------------------------------------------*/
2905:.\Generated_Source\PSoC5/LED_Driver_Gear.c ****                  0x00u, 0x12u, 0x00u, 0x0cu, 0x00u, 0x05u, 0x09u, 0x00u},
2906:.\Generated_Source\PSoC5/LED_Driver_Gear.c ****               /*--------------------------------------------------------*/
2907:.\Generated_Source\PSoC5/LED_Driver_Gear.c ****               /*  'P'    'Q'    'R'    'S'    'T'    'U'    'V'    'W'  */
2908:.\Generated_Source\PSoC5/LED_Driver_Gear.c ****               /*--------------------------------------------------------*/
2909:.\Generated_Source\PSoC5/LED_Driver_Gear.c ****                 {0x00u, 0x08u, 0x08u, 0x00u, 0x12u, 0x00u, 0x24u, 0x28u,
2910:.\Generated_Source\PSoC5/LED_Driver_Gear.c ****               /*--------------------------------------------------------*/
2911:.\Generated_Source\PSoC5/LED_Driver_Gear.c ****               /*  'X'    'Y'    'Z'    '['    '\'    ']'    '^'    '_'  */
2912:.\Generated_Source\PSoC5/LED_Driver_Gear.c ****               /*--------------------------------------------------------*/
2913:.\Generated_Source\PSoC5/LED_Driver_Gear.c ****                  0x2du, 0x15u, 0x24u, 0x00u, 0x00u, 0x00u, 0x00u, 0x00u},
2914:.\Generated_Source\PSoC5/LED_Driver_Gear.c ****               /*--------------------------------------------------------*/
2915:.\Generated_Source\PSoC5/LED_Driver_Gear.c ****               /*  '`'    'a'    'b'    'c'    'd'    'e'    'f'    'g'  */
2916:.\Generated_Source\PSoC5/LED_Driver_Gear.c ****               /*--------------------------------------------------------*/
ARM GAS  C:\Users\charl\AppData\Local\Temp\ccxfbC9q.s 			page 93


2917:.\Generated_Source\PSoC5/LED_Driver_Gear.c ****                 {0x00u, 0x00u, 0x00u, 0x00u, 0x00u, 0x00u, 0x00u, 0x00u,
2918:.\Generated_Source\PSoC5/LED_Driver_Gear.c ****               /*--------------------------------------------------------*/
2919:.\Generated_Source\PSoC5/LED_Driver_Gear.c ****               /*  'h'    'i'    'j'    'k'    'l'    'm'    'n'    'o'  */
2920:.\Generated_Source\PSoC5/LED_Driver_Gear.c ****               /*--------------------------------------------------------*/
2921:.\Generated_Source\PSoC5/LED_Driver_Gear.c ****                  0x00u, 0x10u, 0x00u, 0x0cu, 0x12u, 0x10u, 0x00u, 0x00u},
2922:.\Generated_Source\PSoC5/LED_Driver_Gear.c ****               /*--------------------------------------------------------*/
2923:.\Generated_Source\PSoC5/LED_Driver_Gear.c ****               /*  'p'    'q'    'r'    's'    't'    'u'    'v'    'w'  */
2924:.\Generated_Source\PSoC5/LED_Driver_Gear.c ****               /*--------------------------------------------------------*/
2925:.\Generated_Source\PSoC5/LED_Driver_Gear.c ****                 {0x00u, 0x08u, 0x00u, 0x00u, 0x12u, 0x00u, 0x20u, 0x10u,
2926:.\Generated_Source\PSoC5/LED_Driver_Gear.c ****               /*--------------------------------------------------------*/
2927:.\Generated_Source\PSoC5/LED_Driver_Gear.c ****               /*  'x'    'y'    'z'    '{'    '|'    '}'    '~'   'DEL' */
2928:.\Generated_Source\PSoC5/LED_Driver_Gear.c ****               /*--------------------------------------------------------*/
2929:.\Generated_Source\PSoC5/LED_Driver_Gear.c ****                  0x2du, 0x15u, 0x24u, 0x00u, 0x00u, 0x00u, 0x00u, 0x00u}
2930:.\Generated_Source\PSoC5/LED_Driver_Gear.c ****               };
2931:.\Generated_Source\PSoC5/LED_Driver_Gear.c ****     #else
2932:.\Generated_Source\PSoC5/LED_Driver_Gear.c ****         /* 14-segment ASCII LUT for low byte */
2933:.\Generated_Source\PSoC5/LED_Driver_Gear.c ****         static const uint8 CYCODE LED_Driver_Gear_14SegASCIILow[6][16] =
2934:.\Generated_Source\PSoC5/LED_Driver_Gear.c ****               {
2935:.\Generated_Source\PSoC5/LED_Driver_Gear.c ****               /*--------------------------------------------------------*/
2936:.\Generated_Source\PSoC5/LED_Driver_Gear.c ****               /* 'Space' '!'    '"'    '#'    '$'    '%'    '&'    '''  */
2937:.\Generated_Source\PSoC5/LED_Driver_Gear.c ****               /*--------------------------------------------------------*/
2938:.\Generated_Source\PSoC5/LED_Driver_Gear.c ****                 {0xffu, 0xcfu, 0xdfu, 0xffu, 0xffu, 0xffu, 0xffu, 0xdfu,
2939:.\Generated_Source\PSoC5/LED_Driver_Gear.c ****               /*--------------------------------------------------------*/
2940:.\Generated_Source\PSoC5/LED_Driver_Gear.c ****               /*  '('    ')'    '*'    '+'    ','    '-'    '.'    '/'  */
2941:.\Generated_Source\PSoC5/LED_Driver_Gear.c ****               /*--------------------------------------------------------*/
2942:.\Generated_Source\PSoC5/LED_Driver_Gear.c ****                  0xffu, 0xffu, 0x3fu, 0xffu, 0xffu, 0x3fu, 0xffu, 0xffu},
2943:.\Generated_Source\PSoC5/LED_Driver_Gear.c ****               /*--------------------------------------------------------*/   
2944:.\Generated_Source\PSoC5/LED_Driver_Gear.c ****               /*  '0'    '1'    '2'    '3'    '4'    '5'    '6'    '7'  */
2945:.\Generated_Source\PSoC5/LED_Driver_Gear.c ****               /*--------------------------------------------------------*/
2946:.\Generated_Source\PSoC5/LED_Driver_Gear.c ****                 {0xc0u, 0xf9u, 0x24u, 0x30u, 0x19u, 0x12u, 0x02u, 0xf8u,
2947:.\Generated_Source\PSoC5/LED_Driver_Gear.c ****               /*--------------------------------------------------------*/
2948:.\Generated_Source\PSoC5/LED_Driver_Gear.c ****               /*  '8'    '9'    ':'    ';'    '<'    '='    '>'    '?'  */
2949:.\Generated_Source\PSoC5/LED_Driver_Gear.c ****               /*--------------------------------------------------------*/
2950:.\Generated_Source\PSoC5/LED_Driver_Gear.c ****                  0x00u, 0x10u, 0xffu, 0xffu, 0xffu, 0x37u, 0xffu, 0x7cu},
2951:.\Generated_Source\PSoC5/LED_Driver_Gear.c ****               /*--------------------------------------------------------*/
2952:.\Generated_Source\PSoC5/LED_Driver_Gear.c ****               /*  '@'    'A'    'B'    'C'    'D'    'E'    'F'    'G'  */
2953:.\Generated_Source\PSoC5/LED_Driver_Gear.c ****               /*--------------------------------------------------------*/
2954:.\Generated_Source\PSoC5/LED_Driver_Gear.c ****                 {0xffu, 0x08u, 0x70u, 0xc6u, 0xf0u, 0x06u, 0x0eu, 0x42u,
2955:.\Generated_Source\PSoC5/LED_Driver_Gear.c ****               /*--------------------------------------------------------*/
2956:.\Generated_Source\PSoC5/LED_Driver_Gear.c ****               /*  'H'    'I'    'J'    'K'    'L'    'M'    'N'    'O'  */
2957:.\Generated_Source\PSoC5/LED_Driver_Gear.c ****               /*--------------------------------------------------------*/
2958:.\Generated_Source\PSoC5/LED_Driver_Gear.c ****                  0x09u, 0xf6u, 0xe1u, 0x8fu, 0xc7u, 0xc9u, 0xc9u, 0xc0u},
2959:.\Generated_Source\PSoC5/LED_Driver_Gear.c ****               /*--------------------------------------------------------*/
2960:.\Generated_Source\PSoC5/LED_Driver_Gear.c ****               /*  'P'    'Q'    'R'    'S'    'T'    'U'    'V'    'W'  */
2961:.\Generated_Source\PSoC5/LED_Driver_Gear.c ****               /*--------------------------------------------------------*/
2962:.\Generated_Source\PSoC5/LED_Driver_Gear.c ****                 {0x0cu, 0xc0u, 0x0cu, 0x12u, 0xfeu, 0xc1u, 0xcfu, 0xc9u,
2963:.\Generated_Source\PSoC5/LED_Driver_Gear.c ****               /*--------------------------------------------------------*/
2964:.\Generated_Source\PSoC5/LED_Driver_Gear.c ****               /*  'X'    'Y'    'Z'    '['    '\'    ']'    '^'    '_'  */
2965:.\Generated_Source\PSoC5/LED_Driver_Gear.c ****               /*--------------------------------------------------------*/
2966:.\Generated_Source\PSoC5/LED_Driver_Gear.c ****                  0xffu, 0xffu, 0xf6u, 0xffu, 0xffu, 0xffu, 0xffu, 0xf7u},
2967:.\Generated_Source\PSoC5/LED_Driver_Gear.c ****               /*--------------------------------------------------------*/
2968:.\Generated_Source\PSoC5/LED_Driver_Gear.c ****               /*  '`'    'a'    'b'    'c'    'd'    'e'    'f'    'g'  */
2969:.\Generated_Source\PSoC5/LED_Driver_Gear.c ****               /*--------------------------------------------------------*/
2970:.\Generated_Source\PSoC5/LED_Driver_Gear.c ****                 {0xffu, 0x08u, 0x03u, 0x27u, 0x21u, 0x06u, 0x0eu, 0x10u,
2971:.\Generated_Source\PSoC5/LED_Driver_Gear.c ****               /*--------------------------------------------------------*/
2972:.\Generated_Source\PSoC5/LED_Driver_Gear.c ****               /*  'h'    'i'    'j'    'k'    'l'    'm'    'n'    'o'  */
2973:.\Generated_Source\PSoC5/LED_Driver_Gear.c ****               /*--------------------------------------------------------*/
ARM GAS  C:\Users\charl\AppData\Local\Temp\ccxfbC9q.s 			page 94


2974:.\Generated_Source\PSoC5/LED_Driver_Gear.c ****                  0x0bu, 0xffu, 0xe1u, 0x8fu, 0xffu, 0x2bu, 0x2bu, 0x23u},
2975:.\Generated_Source\PSoC5/LED_Driver_Gear.c ****               /*--------------------------------------------------------*/
2976:.\Generated_Source\PSoC5/LED_Driver_Gear.c ****               /*  'p'    'q'    'r'    's'    't'    'u'    'v'    'w'  */
2977:.\Generated_Source\PSoC5/LED_Driver_Gear.c ****               /*--------------------------------------------------------*/
2978:.\Generated_Source\PSoC5/LED_Driver_Gear.c ****                 {0x0cu, 0xc0u, 0x2fu, 0x12u, 0x3fu, 0xe3u, 0xefu, 0xe3u,
2979:.\Generated_Source\PSoC5/LED_Driver_Gear.c ****               /*--------------------------------------------------------*/
2980:.\Generated_Source\PSoC5/LED_Driver_Gear.c ****               /*  'x'    'y'    'z'    '{'    '|'    '}'    '~'   'DEL' */
2981:.\Generated_Source\PSoC5/LED_Driver_Gear.c ****               /*--------------------------------------------------------*/
2982:.\Generated_Source\PSoC5/LED_Driver_Gear.c ****                  0xffu, 0xffu, 0xf6u, 0xffu, 0xffu, 0xffu, 0xffu, 0xffu}
2983:.\Generated_Source\PSoC5/LED_Driver_Gear.c ****               };
2984:.\Generated_Source\PSoC5/LED_Driver_Gear.c **** 
2985:.\Generated_Source\PSoC5/LED_Driver_Gear.c ****         /* 14-segment ASCII LUT for high byte */
2986:.\Generated_Source\PSoC5/LED_Driver_Gear.c ****         static const uint8 CYCODE LED_Driver_Gear_14SegASCIIHigh[6][16] =
2987:.\Generated_Source\PSoC5/LED_Driver_Gear.c ****               {
2988:.\Generated_Source\PSoC5/LED_Driver_Gear.c ****               /*--------------------------------------------------------*/
2989:.\Generated_Source\PSoC5/LED_Driver_Gear.c ****               /* 'Space' '!'    '"'    '#'    '$'    '%'    '&'    '''  */
2990:.\Generated_Source\PSoC5/LED_Driver_Gear.c ****               /*--------------------------------------------------------*/
2991:.\Generated_Source\PSoC5/LED_Driver_Gear.c ****                 {0xffu, 0xffu, 0xfdu, 0xffu, 0xffu, 0xffu, 0xffu, 0xffu,
2992:.\Generated_Source\PSoC5/LED_Driver_Gear.c ****               /*--------------------------------------------------------*/
2993:.\Generated_Source\PSoC5/LED_Driver_Gear.c ****               /*  '('    ')'    '*'    '+'    ','    '-'    '.'    '/'  */
2994:.\Generated_Source\PSoC5/LED_Driver_Gear.c ****               /*--------------------------------------------------------*/
2995:.\Generated_Source\PSoC5/LED_Driver_Gear.c ****                  0xf3u, 0xdeu, 0xc0u, 0xffu, 0xdfu, 0xffu, 0xffu, 0xffu},
2996:.\Generated_Source\PSoC5/LED_Driver_Gear.c ****               /*--------------------------------------------------------*/   
2997:.\Generated_Source\PSoC5/LED_Driver_Gear.c ****               /*  '0'    '1'    '2'    '3'    '4'    '5'    '6'    '7'  */
2998:.\Generated_Source\PSoC5/LED_Driver_Gear.c ****               /*--------------------------------------------------------*/
2999:.\Generated_Source\PSoC5/LED_Driver_Gear.c ****                 {0xdbu, 0xffu, 0xffu, 0xffu, 0xffu, 0xffu, 0xffu, 0xffu,
3000:.\Generated_Source\PSoC5/LED_Driver_Gear.c ****               /*--------------------------------------------------------*/
3001:.\Generated_Source\PSoC5/LED_Driver_Gear.c ****               /*  '8'    '9'    ':'    ';'    '<'    '='    '>'    '?'  */
3002:.\Generated_Source\PSoC5/LED_Driver_Gear.c ****               /*--------------------------------------------------------*/
3003:.\Generated_Source\PSoC5/LED_Driver_Gear.c ****                  0xffu, 0xffu, 0xffu, 0xffu, 0xffu, 0xffu, 0xffu, 0xefu},
3004:.\Generated_Source\PSoC5/LED_Driver_Gear.c ****               /*--------------------------------------------------------*/
3005:.\Generated_Source\PSoC5/LED_Driver_Gear.c ****               /*  '@'    'A'    'B'    'C'    'D'    'E'    'F'    'G'  */
3006:.\Generated_Source\PSoC5/LED_Driver_Gear.c ****               /*--------------------------------------------------------*/
3007:.\Generated_Source\PSoC5/LED_Driver_Gear.c ****                 {0xffu, 0xffu, 0xedu, 0xffu, 0xedu, 0xffu, 0xffu, 0xffu,
3008:.\Generated_Source\PSoC5/LED_Driver_Gear.c ****               /*--------------------------------------------------------*/
3009:.\Generated_Source\PSoC5/LED_Driver_Gear.c ****               /*  'H'    'I'    'J'    'K'    'L'    'M'    'N'    'O'  */
3010:.\Generated_Source\PSoC5/LED_Driver_Gear.c ****               /*--------------------------------------------------------*/
3011:.\Generated_Source\PSoC5/LED_Driver_Gear.c ****                  0xffu, 0xedu, 0xffu, 0xf3u, 0xffu, 0xfau, 0xf6u, 0xffu},
3012:.\Generated_Source\PSoC5/LED_Driver_Gear.c ****               /*--------------------------------------------------------*/
3013:.\Generated_Source\PSoC5/LED_Driver_Gear.c ****               /*  'P'    'Q'    'R'    'S'    'T'    'U'    'V'    'W'  */
3014:.\Generated_Source\PSoC5/LED_Driver_Gear.c ****               /*--------------------------------------------------------*/
3015:.\Generated_Source\PSoC5/LED_Driver_Gear.c ****                 {0xffu, 0xf7u, 0xf7u, 0xffu, 0xedu, 0xffu, 0xdbu, 0xd7u,
3016:.\Generated_Source\PSoC5/LED_Driver_Gear.c ****               /*--------------------------------------------------------*/
3017:.\Generated_Source\PSoC5/LED_Driver_Gear.c ****               /*  'X'    'Y'    'Z'    '['    '\'    ']'    '^'    '_'  */
3018:.\Generated_Source\PSoC5/LED_Driver_Gear.c ****               /*--------------------------------------------------------*/
3019:.\Generated_Source\PSoC5/LED_Driver_Gear.c ****                  0xd2u, 0xeau, 0xdbu, 0xffu, 0xffu, 0xffu, 0xffu, 0xffu},
3020:.\Generated_Source\PSoC5/LED_Driver_Gear.c ****               /*--------------------------------------------------------*/
3021:.\Generated_Source\PSoC5/LED_Driver_Gear.c ****               /*  '`'    'a'    'b'    'c'    'd'    'e'    'f'    'g'  */
3022:.\Generated_Source\PSoC5/LED_Driver_Gear.c ****               /*--------------------------------------------------------*/
3023:.\Generated_Source\PSoC5/LED_Driver_Gear.c ****                 {0xffu, 0xffu, 0xffu, 0xffu, 0xffu, 0xffu, 0xffu, 0xffu,
3024:.\Generated_Source\PSoC5/LED_Driver_Gear.c ****               /*--------------------------------------------------------*/
3025:.\Generated_Source\PSoC5/LED_Driver_Gear.c ****               /*  'h'    'i'    'j'    'k'    'l'    'm'    'n'    'o'  */
3026:.\Generated_Source\PSoC5/LED_Driver_Gear.c ****               /*--------------------------------------------------------*/
3027:.\Generated_Source\PSoC5/LED_Driver_Gear.c ****                  0xffu, 0xefu, 0xffu, 0xf3u, 0xedu, 0xefu, 0xffu, 0xffu},
3028:.\Generated_Source\PSoC5/LED_Driver_Gear.c ****               /*--------------------------------------------------------*/
3029:.\Generated_Source\PSoC5/LED_Driver_Gear.c ****               /*  'p'    'q'    'r'    's'    't'    'u'    'v'    'w'  */
3030:.\Generated_Source\PSoC5/LED_Driver_Gear.c ****               /*--------------------------------------------------------*/
ARM GAS  C:\Users\charl\AppData\Local\Temp\ccxfbC9q.s 			page 95


3031:.\Generated_Source\PSoC5/LED_Driver_Gear.c ****                 {0xffu, 0xf7u, 0xffu, 0xffu, 0xedu, 0xffu, 0xdfu, 0xefu,
3032:.\Generated_Source\PSoC5/LED_Driver_Gear.c ****               /*--------------------------------------------------------*/
3033:.\Generated_Source\PSoC5/LED_Driver_Gear.c ****               /*  'x'    'y'    'z'    '{'    '|'    '}'    '~'   'DEL' */
3034:.\Generated_Source\PSoC5/LED_Driver_Gear.c ****               /*--------------------------------------------------------*/
3035:.\Generated_Source\PSoC5/LED_Driver_Gear.c ****                  0xd2u, 0xeau, 0xdbu, 0xffu, 0xffu, 0xffu, 0xffu, 0xffu}
3036:.\Generated_Source\PSoC5/LED_Driver_Gear.c ****               };
3037:.\Generated_Source\PSoC5/LED_Driver_Gear.c ****     #endif /*  LED_Driver_Gear_SEG_DRIVE */
3038:.\Generated_Source\PSoC5/LED_Driver_Gear.c ****     
3039:.\Generated_Source\PSoC5/LED_Driver_Gear.c ****     uint8 valLow;
3040:.\Generated_Source\PSoC5/LED_Driver_Gear.c ****     uint8 valHigh;
3041:.\Generated_Source\PSoC5/LED_Driver_Gear.c ****     uint16 valHexLow;
3042:.\Generated_Source\PSoC5/LED_Driver_Gear.c ****     uint16 valHexHigh;
3043:.\Generated_Source\PSoC5/LED_Driver_Gear.c ****     uint16 valHex;
3044:.\Generated_Source\PSoC5/LED_Driver_Gear.c ****     
3045:.\Generated_Source\PSoC5/LED_Driver_Gear.c ****     valLow = (uint8)((uint8)input & LED_Driver_Gear_NIBBLE_MASK);
 2127              		.loc 1 3045 0
 2128 0000 00F00F02 		and	r2, r0, #15
 2129              	.LVL266:
3046:.\Generated_Source\PSoC5/LED_Driver_Gear.c ****     
3047:.\Generated_Source\PSoC5/LED_Driver_Gear.c ****     /* valHigh used to access the row of LUT */
3048:.\Generated_Source\PSoC5/LED_Driver_Gear.c ****     valHigh = (uint8)((uint8)input >> LED_Driver_Gear_SHIFT_NIBBLE);
 2130              		.loc 1 3048 0
 2131 0004 0009     		lsrs	r0, r0, #4
 2132              	.LVL267:
3049:.\Generated_Source\PSoC5/LED_Driver_Gear.c ****     
3050:.\Generated_Source\PSoC5/LED_Driver_Gear.c ****     /* Check if the high nibble is within valid ASCII range */
3051:.\Generated_Source\PSoC5/LED_Driver_Gear.c ****     if ((valHigh > LED_Driver_Gear_SEG_ASCII_LIM_LO) && (valHigh < LED_Driver_Gear_SEG_ASCII_LIM_HI
 2133              		.loc 1 3051 0
 2134 0006 0238     		subs	r0, r0, #2
 2135              	.LVL268:
 2136 0008 C0B2     		uxtb	r0, r0
 2137              	.LVL269:
 2138 000a 0528     		cmp	r0, #5
 2139 000c 0AD8     		bhi	.L236
 2140              	.LVL270:
3052:.\Generated_Source\PSoC5/LED_Driver_Gear.c ****     {
3053:.\Generated_Source\PSoC5/LED_Driver_Gear.c ****         valHigh = valHigh - LED_Driver_Gear_SEG_ASCII_OFFSET;
3054:.\Generated_Source\PSoC5/LED_Driver_Gear.c ****         
3055:.\Generated_Source\PSoC5/LED_Driver_Gear.c ****         /* Get the 14-seg hex value from high and low byte LUTs */
3056:.\Generated_Source\PSoC5/LED_Driver_Gear.c ****         valHexHigh = (uint16)((uint16)LED_Driver_Gear_14SegASCIIHigh[valHigh][valLow] << LED_Driver
 2141              		.loc 1 3056 0
 2142 000e 064B     		ldr	r3, .L237
 2143 0010 03EB0010 		add	r0, r3, r0, lsl #4
 2144              	.LVL271:
 2145 0014 8318     		adds	r3, r0, r2
 2146 0016 93F89000 		ldrb	r0, [r3, #144]	@ zero_extendqisi2
 2147              	.LVL272:
3057:.\Generated_Source\PSoC5/LED_Driver_Gear.c ****         valHexLow = (uint16)LED_Driver_Gear_14SegASCIILow[valHigh][valLow];
 2148              		.loc 1 3057 0
 2149 001a 93F8F030 		ldrb	r3, [r3, #240]	@ zero_extendqisi2
 2150              	.LVL273:
3058:.\Generated_Source\PSoC5/LED_Driver_Gear.c ****         
3059:.\Generated_Source\PSoC5/LED_Driver_Gear.c ****         valHex = valHexHigh | valHexLow;
 2151              		.loc 1 3059 0
 2152 001e 43EA0020 		orr	r0, r3, r0, lsl #8
 2153              	.LVL274:
 2154 0022 7047     		bx	lr
ARM GAS  C:\Users\charl\AppData\Local\Temp\ccxfbC9q.s 			page 96


 2155              	.LVL275:
 2156              	.L236:
3060:.\Generated_Source\PSoC5/LED_Driver_Gear.c ****     }
3061:.\Generated_Source\PSoC5/LED_Driver_Gear.c ****     else
3062:.\Generated_Source\PSoC5/LED_Driver_Gear.c ****     {
3063:.\Generated_Source\PSoC5/LED_Driver_Gear.c ****         valHex = LED_Driver_Gear_CLEAR_16;
 2157              		.loc 1 3063 0
 2158 0024 0020     		movs	r0, #0
 2159              	.LVL276:
3064:.\Generated_Source\PSoC5/LED_Driver_Gear.c ****     }
3065:.\Generated_Source\PSoC5/LED_Driver_Gear.c ****         
3066:.\Generated_Source\PSoC5/LED_Driver_Gear.c ****     return(valHex);
3067:.\Generated_Source\PSoC5/LED_Driver_Gear.c **** }
 2160              		.loc 1 3067 0
 2161 0026 7047     		bx	lr
 2162              	.L238:
 2163              		.align	2
 2164              	.L237:
 2165 0028 00000000 		.word	.LANCHOR2
 2166              		.cfi_endproc
 2167              	.LFE37:
 2168              		.size	LED_Driver_Gear_EncodeChar14Seg, .-LED_Driver_Gear_EncodeChar14Seg
 2169              		.section	.text.LED_Driver_Gear_Write14SegNumberDec,"ax",%progbits
 2170              		.align	2
 2171              		.global	LED_Driver_Gear_Write14SegNumberDec
 2172              		.thumb
 2173              		.thumb_func
 2174              		.type	LED_Driver_Gear_Write14SegNumberDec, %function
 2175              	LED_Driver_Gear_Write14SegNumberDec:
 2176              	.LFB20:
1534:.\Generated_Source\PSoC5/LED_Driver_Gear.c ****     uint8 i;
 2177              		.loc 1 1534 0
 2178              		.cfi_startproc
 2179              		@ args = 0, pretend = 0, frame = 16
 2180              		@ frame_needed = 0, uses_anonymous_args = 0
 2181              	.LVL277:
 2182 0000 2DE9F043 		push	{r4, r5, r6, r7, r8, r9, lr}
 2183              		.cfi_def_cfa_offset 28
 2184              		.cfi_offset 4, -28
 2185              		.cfi_offset 5, -24
 2186              		.cfi_offset 6, -20
 2187              		.cfi_offset 7, -16
 2188              		.cfi_offset 8, -12
 2189              		.cfi_offset 9, -8
 2190              		.cfi_offset 14, -4
 2191 0004 85B0     		sub	sp, sp, #20
 2192              		.cfi_def_cfa_offset 48
 2193 0006 0D46     		mov	r5, r1
 2194 0008 1446     		mov	r4, r2
 2195 000a 1E46     		mov	r6, r3
 2196              	.LVL278:
1540:.\Generated_Source\PSoC5/LED_Driver_Gear.c ****     uint32 numberVal;
 2197              		.loc 1 1540 0
 2198 000c 0023     		movs	r3, #0
 2199              	.LVL279:
 2200 000e 0093     		str	r3, [sp]
 2201 0010 0193     		str	r3, [sp, #4]
ARM GAS  C:\Users\charl\AppData\Local\Temp\ccxfbC9q.s 			page 97


 2202 0012 0293     		str	r3, [sp, #8]
 2203 0014 0393     		str	r3, [sp, #12]
1544:.\Generated_Source\PSoC5/LED_Driver_Gear.c ****     {
 2204              		.loc 1 1544 0
 2205 0016 0028     		cmp	r0, #0
 2206 0018 02DB     		blt	.L240
1546:.\Generated_Source\PSoC5/LED_Driver_Gear.c ****         numberSign = LED_Driver_Gear_UNSIGNED;
 2207              		.loc 1 1546 0
 2208 001a 0246     		mov	r2, r0
 2209              	.LVL280:
1547:.\Generated_Source\PSoC5/LED_Driver_Gear.c ****     }
 2210              		.loc 1 1547 0
 2211 001c 1F46     		mov	r7, r3
 2212 001e 01E0     		b	.L241
 2213              	.LVL281:
 2214              	.L240:
1551:.\Generated_Source\PSoC5/LED_Driver_Gear.c ****         numberSign = LED_Driver_Gear_SIGNED;
 2215              		.loc 1 1551 0
 2216 0020 4242     		negs	r2, r0
 2217              	.LVL282:
1552:.\Generated_Source\PSoC5/LED_Driver_Gear.c ****     }
 2218              		.loc 1 1552 0
 2219 0022 0127     		movs	r7, #1
 2220              	.LVL283:
 2221              	.L241:
1556:.\Generated_Source\PSoC5/LED_Driver_Gear.c ****     {
 2222              		.loc 1 1556 0
 2223 0024 2346     		mov	r3, r4
 2224 0026 15E0     		b	.L242
 2225              	.LVL284:
 2226              	.L243:
1558:.\Generated_Source\PSoC5/LED_Driver_Gear.c ****         bufArray[i-1u] = LED_Driver_Gear_EncodeNumber14Seg(selectVal);
 2227              		.loc 1 1558 0 discriminator 3
 2228 0028 4048     		ldr	r0, .L263
 2229 002a A0FB0210 		umull	r1, r0, r0, r2
 2230 002e C008     		lsrs	r0, r0, #3
 2231 0030 8046     		mov	r8, r0
 2232 0032 00EB8000 		add	r0, r0, r0, lsl #2
 2233 0036 4000     		lsls	r0, r0, #1
 2234 0038 101A     		subs	r0, r2, r0
 2235              	.LVL285:
1559:.\Generated_Source\PSoC5/LED_Driver_Gear.c ****         numberVal = numberVal / 10u;
 2236              		.loc 1 1559 0 discriminator 3
 2237 003a 03F1FF39 		add	r9, r3, #-1
 2238 003e C0B2     		uxtb	r0, r0
 2239 0040 FFF7FEFF 		bl	LED_Driver_Gear_EncodeNumber14Seg
 2240              	.LVL286:
 2241 0044 04AB     		add	r3, sp, #16
 2242 0046 03EB4903 		add	r3, r3, r9, lsl #1
 2243 004a 23F8100C 		strh	r0, [r3, #-16]	@ movhi
1560:.\Generated_Source\PSoC5/LED_Driver_Gear.c ****     }
 2244              		.loc 1 1560 0 discriminator 3
 2245 004e 4246     		mov	r2, r8
 2246              	.LVL287:
1556:.\Generated_Source\PSoC5/LED_Driver_Gear.c ****     {
 2247              		.loc 1 1556 0 discriminator 3
 2248 0050 5FFA89F3 		uxtb	r3, r9
ARM GAS  C:\Users\charl\AppData\Local\Temp\ccxfbC9q.s 			page 98


 2249              	.LVL288:
 2250              	.L242:
1556:.\Generated_Source\PSoC5/LED_Driver_Gear.c ****     {
 2251              		.loc 1 1556 0 is_stmt 0 discriminator 1
 2252 0054 002B     		cmp	r3, #0
 2253 0056 E7D1     		bne	.L243
1564:.\Generated_Source\PSoC5/LED_Driver_Gear.c ****     {
 2254              		.loc 1 1564 0 is_stmt 1
 2255 0058 022E     		cmp	r6, #2
 2256 005a 33D1     		bne	.L260
1566:.\Generated_Source\PSoC5/LED_Driver_Gear.c ****         {
 2257              		.loc 1 1566 0
 2258 005c B7B3     		cbz	r7, .L245
1569:.\Generated_Source\PSoC5/LED_Driver_Gear.c ****         }
 2259              		.loc 1 1569 0
 2260 005e 2D20     		movs	r0, #45
 2261 0060 FFF7FEFF 		bl	LED_Driver_Gear_EncodeChar14Seg
 2262              	.LVL289:
 2263 0064 ADF80000 		strh	r0, [sp]	@ movhi
 2264 0068 30E0     		b	.L245
 2265              	.LVL290:
 2266              	.L249:
1576:.\Generated_Source\PSoC5/LED_Driver_Gear.c ****             {
 2267              		.loc 1 1576 0
 2268 006a 9846     		mov	r8, r3
 2269 006c 04A9     		add	r1, sp, #16
 2270 006e 01EB4301 		add	r1, r1, r3, lsl #1
 2271 0072 31F8100C 		ldrh	r0, [r1, #-16]
 2272 0076 42F23F41 		movw	r1, #9279
 2273 007a 8842     		cmp	r0, r1
 2274 007c 14D0     		beq	.L246
1578:.\Generated_Source\PSoC5/LED_Driver_Gear.c ****                 {
 2275              		.loc 1 1578 0
 2276 007e 2FB3     		cbz	r7, .L245
1580:.\Generated_Source\PSoC5/LED_Driver_Gear.c ****                     {
 2277              		.loc 1 1580 0
 2278 0080 43B9     		cbnz	r3, .L247
1583:.\Generated_Source\PSoC5/LED_Driver_Gear.c ****                     }
 2279              		.loc 1 1583 0
 2280 0082 2D20     		movs	r0, #45
 2281 0084 FFF7FEFF 		bl	LED_Driver_Gear_EncodeChar14Seg
 2282              	.LVL291:
 2283 0088 04AB     		add	r3, sp, #16
 2284 008a 03EB4808 		add	r8, r3, r8, lsl #1
 2285 008e 28F8100C 		strh	r0, [r8, #-16]	@ movhi
 2286 0092 1BE0     		b	.L245
 2287              	.LVL292:
 2288              	.L247:
1588:.\Generated_Source\PSoC5/LED_Driver_Gear.c ****                     }
 2289              		.loc 1 1588 0
 2290 0094 5F1E     		subs	r7, r3, #1
 2291              	.LVL293:
 2292 0096 2D20     		movs	r0, #45
 2293 0098 FFF7FEFF 		bl	LED_Driver_Gear_EncodeChar14Seg
 2294              	.LVL294:
 2295 009c 04AB     		add	r3, sp, #16
 2296 009e 03EB4703 		add	r3, r3, r7, lsl #1
ARM GAS  C:\Users\charl\AppData\Local\Temp\ccxfbC9q.s 			page 99


 2297 00a2 23F8100C 		strh	r0, [r3, #-16]	@ movhi
 2298 00a6 11E0     		b	.L245
 2299              	.LVL295:
 2300              	.L246:
1596:.\Generated_Source\PSoC5/LED_Driver_Gear.c ****                 {
 2301              		.loc 1 1596 0
 2302 00a8 611E     		subs	r1, r4, #1
 2303 00aa 8A42     		cmp	r2, r1
 2304 00ac 07D0     		beq	.L248
1599:.\Generated_Source\PSoC5/LED_Driver_Gear.c ****                     zeroCount++;
 2305              		.loc 1 1599 0
 2306 00ae 04A9     		add	r1, sp, #16
 2307 00b0 01EB4308 		add	r8, r1, r3, lsl #1
 2308 00b4 0021     		movs	r1, #0
 2309 00b6 28F8101C 		strh	r1, [r8, #-16]	@ movhi
1600:.\Generated_Source\PSoC5/LED_Driver_Gear.c ****                 }
 2310              		.loc 1 1600 0
 2311 00ba 0132     		adds	r2, r2, #1
 2312              	.LVL296:
 2313 00bc D2B2     		uxtb	r2, r2
 2314              	.LVL297:
 2315              	.L248:
1574:.\Generated_Source\PSoC5/LED_Driver_Gear.c ****         {
 2316              		.loc 1 1574 0 discriminator 2
 2317 00be 0133     		adds	r3, r3, #1
 2318              	.LVL298:
 2319 00c0 DBB2     		uxtb	r3, r3
 2320              	.LVL299:
 2321 00c2 01E0     		b	.L244
 2322              	.LVL300:
 2323              	.L260:
 2324 00c4 0022     		movs	r2, #0
 2325              	.LVL301:
 2326 00c6 1346     		mov	r3, r2
 2327              	.LVL302:
 2328              	.L244:
1574:.\Generated_Source\PSoC5/LED_Driver_Gear.c ****         {
 2329              		.loc 1 1574 0 is_stmt 0 discriminator 1
 2330 00c8 A342     		cmp	r3, r4
 2331 00ca CED3     		bcc	.L249
 2332              	.LVL303:
 2333              	.L245:
1609:.\Generated_Source\PSoC5/LED_Driver_Gear.c ****     {
 2334              		.loc 1 1609 0 is_stmt 1
 2335 00cc 012E     		cmp	r6, #1
 2336 00ce 27D1     		bne	.L251
 2337 00d0 0DE0     		b	.L261
 2338              	.LVL304:
 2339              	.L254:
1613:.\Generated_Source\PSoC5/LED_Driver_Gear.c ****             {
 2340              		.loc 1 1613 0
 2341 00d2 04AA     		add	r2, sp, #16
 2342 00d4 02EB4302 		add	r2, r2, r3, lsl #1
 2343 00d8 32F8102C 		ldrh	r2, [r2, #-16]
 2344 00dc 22B1     		cbz	r2, .L252
1615:.\Generated_Source\PSoC5/LED_Driver_Gear.c ****                 {
 2345              		.loc 1 1615 0
ARM GAS  C:\Users\charl\AppData\Local\Temp\ccxfbC9q.s 			page 100


 2346 00de 0DB9     		cbnz	r5, .L253
1618:.\Generated_Source\PSoC5/LED_Driver_Gear.c ****                 #if (LED_Driver_Gear_NUM_SEG > 8u)
 2347              		.loc 1 1618 0
 2348 00e0 1349     		ldr	r1, .L263+4
 2349 00e2 4A55     		strb	r2, [r1, r5]
 2350              	.L253:
1623:.\Generated_Source\PSoC5/LED_Driver_Gear.c ****             }
 2351              		.loc 1 1623 0
 2352 00e4 0135     		adds	r5, r5, #1
 2353              	.LVL305:
 2354 00e6 EDB2     		uxtb	r5, r5
 2355              	.LVL306:
 2356              	.L252:
1611:.\Generated_Source\PSoC5/LED_Driver_Gear.c ****         {
 2357              		.loc 1 1611 0 discriminator 2
 2358 00e8 0133     		adds	r3, r3, #1
 2359              	.LVL307:
 2360 00ea DBB2     		uxtb	r3, r3
 2361              	.LVL308:
 2362 00ec 00E0     		b	.L250
 2363              	.LVL309:
 2364              	.L261:
 2365 00ee 0023     		movs	r3, #0
 2366              	.L250:
 2367              	.LVL310:
1611:.\Generated_Source\PSoC5/LED_Driver_Gear.c ****         {
 2368              		.loc 1 1611 0 is_stmt 0 discriminator 1
 2369 00f0 A342     		cmp	r3, r4
 2370 00f2 EED3     		bcc	.L254
 2371 00f4 04E0     		b	.L255
 2372              	.LVL311:
 2373              	.L256:
1630:.\Generated_Source\PSoC5/LED_Driver_Gear.c ****             #if (LED_Driver_Gear_NUM_SEG > 8u)
 2374              		.loc 1 1630 0 is_stmt 1
 2375 00f6 0022     		movs	r2, #0
 2376 00f8 0D4B     		ldr	r3, .L263+4
 2377 00fa 5A55     		strb	r2, [r3, r5]
1635:.\Generated_Source\PSoC5/LED_Driver_Gear.c ****         }
 2378              		.loc 1 1635 0
 2379 00fc 0135     		adds	r5, r5, #1
 2380              	.LVL312:
 2381 00fe EDB2     		uxtb	r5, r5
 2382              	.LVL313:
 2383              	.L255:
1627:.\Generated_Source\PSoC5/LED_Driver_Gear.c ****         {
 2384              		.loc 1 1627 0
 2385 0100 A542     		cmp	r5, r4
 2386 0102 F8D3     		bcc	.L256
 2387 0104 0EE0     		b	.L239
 2388              	.LVL314:
 2389              	.L259:
1642:.\Generated_Source\PSoC5/LED_Driver_Gear.c ****             {
 2390              		.loc 1 1642 0
 2391 0106 6319     		adds	r3, r4, r5
 2392 0108 012B     		cmp	r3, #1
 2393 010a 07D1     		bne	.L258
1644:.\Generated_Source\PSoC5/LED_Driver_Gear.c ****             #if (LED_Driver_Gear_NUM_SEG > 8u)
ARM GAS  C:\Users\charl\AppData\Local\Temp\ccxfbC9q.s 			page 101


 2394              		.loc 1 1644 0
 2395 010c 013B     		subs	r3, r3, #1
 2396 010e 04AA     		add	r2, sp, #16
 2397 0110 02EB4402 		add	r2, r2, r4, lsl #1
 2398 0114 12F8121C 		ldrb	r1, [r2, #-18]	@ zero_extendqisi2
 2399 0118 054A     		ldr	r2, .L263+4
 2400 011a D154     		strb	r1, [r2, r3]
 2401              	.L258:
1640:.\Generated_Source\PSoC5/LED_Driver_Gear.c ****         {
 2402              		.loc 1 1640 0 discriminator 2
 2403 011c 013C     		subs	r4, r4, #1
 2404              	.LVL315:
 2405 011e E4B2     		uxtb	r4, r4
 2406              	.LVL316:
 2407              	.L251:
1640:.\Generated_Source\PSoC5/LED_Driver_Gear.c ****         {
 2408              		.loc 1 1640 0 is_stmt 0 discriminator 1
 2409 0120 002C     		cmp	r4, #0
 2410 0122 F0D1     		bne	.L259
 2411              	.LVL317:
 2412              	.L239:
1651:.\Generated_Source\PSoC5/LED_Driver_Gear.c **** 
 2413              		.loc 1 1651 0 is_stmt 1
 2414 0124 05B0     		add	sp, sp, #20
 2415              		.cfi_def_cfa_offset 28
 2416              		@ sp needed
 2417 0126 BDE8F083 		pop	{r4, r5, r6, r7, r8, r9, pc}
 2418              	.LVL318:
 2419              	.L264:
 2420 012a 00BF     		.align	2
 2421              	.L263:
 2422 012c CDCCCCCC 		.word	-858993459
 2423 0130 00000000 		.word	LED_Driver_Gear_segLBuffer
 2424              		.cfi_endproc
 2425              	.LFE20:
 2426              		.size	LED_Driver_Gear_Write14SegNumberDec, .-LED_Driver_Gear_Write14SegNumberDec
 2427              		.section	.text.LED_Driver_Gear_WriteString14Seg,"ax",%progbits
 2428              		.align	2
 2429              		.global	LED_Driver_Gear_WriteString14Seg
 2430              		.thumb
 2431              		.thumb_func
 2432              		.type	LED_Driver_Gear_WriteString14Seg, %function
 2433              	LED_Driver_Gear_WriteString14Seg:
 2434              	.LFB22:
1794:.\Generated_Source\PSoC5/LED_Driver_Gear.c ****     uint8 currPosition;
 2435              		.loc 1 1794 0
 2436              		.cfi_startproc
 2437              		@ args = 0, pretend = 0, frame = 0
 2438              		@ frame_needed = 0, uses_anonymous_args = 0
 2439              	.LVL319:
 2440 0000 F8B5     		push	{r3, r4, r5, r6, r7, lr}
 2441              		.cfi_def_cfa_offset 24
 2442              		.cfi_offset 3, -24
 2443              		.cfi_offset 4, -20
 2444              		.cfi_offset 5, -16
 2445              		.cfi_offset 6, -12
 2446              		.cfi_offset 7, -8
ARM GAS  C:\Users\charl\AppData\Local\Temp\ccxfbC9q.s 			page 102


 2447              		.cfi_offset 14, -4
 2448 0002 0746     		mov	r7, r0
 2449 0004 0C46     		mov	r4, r1
 2450              	.LVL320:
1800:.\Generated_Source\PSoC5/LED_Driver_Gear.c ****     
 2451              		.loc 1 1800 0
 2452 0006 FFF7FEFF 		bl	strlen
 2453              	.LVL321:
 2454 000a 2044     		add	r0, r0, r4
 2455 000c 00F0FF06 		and	r6, r0, #255
 2456              	.LVL322:
1797:.\Generated_Source\PSoC5/LED_Driver_Gear.c ****     uint16 charDisplay;
 2457              		.loc 1 1797 0
 2458 0010 0025     		movs	r5, #0
1802:.\Generated_Source\PSoC5/LED_Driver_Gear.c ****     {
 2459              		.loc 1 1802 0
 2460 0012 0AE0     		b	.L266
 2461              	.LVL323:
 2462              	.L268:
1804:.\Generated_Source\PSoC5/LED_Driver_Gear.c ****         {
 2463              		.loc 1 1804 0
 2464 0014 B442     		cmp	r4, r6
 2465 0016 06D2     		bcs	.L267
1806:.\Generated_Source\PSoC5/LED_Driver_Gear.c ****             LED_Driver_Gear_segLBuffer[currPosition] = LO8(charDisplay);
 2466              		.loc 1 1806 0
 2467 0018 785D     		ldrb	r0, [r7, r5]	@ zero_extendqisi2
 2468 001a FFF7FEFF 		bl	LED_Driver_Gear_EncodeChar14Seg
 2469              	.LVL324:
1807:.\Generated_Source\PSoC5/LED_Driver_Gear.c ****             #if (LED_Driver_Gear_NUM_SEG > 8u)
 2470              		.loc 1 1807 0
 2471 001e 044B     		ldr	r3, .L270
 2472 0020 1855     		strb	r0, [r3, r4]
1811:.\Generated_Source\PSoC5/LED_Driver_Gear.c ****         }
 2473              		.loc 1 1811 0
 2474 0022 0135     		adds	r5, r5, #1
 2475              	.LVL325:
 2476 0024 EDB2     		uxtb	r5, r5
 2477              	.LVL326:
 2478              	.L267:
1802:.\Generated_Source\PSoC5/LED_Driver_Gear.c ****     {
 2479              		.loc 1 1802 0 discriminator 2
 2480 0026 0134     		adds	r4, r4, #1
 2481              	.LVL327:
 2482 0028 E4B2     		uxtb	r4, r4
 2483              	.LVL328:
 2484              	.L266:
1802:.\Generated_Source\PSoC5/LED_Driver_Gear.c ****     {
 2485              		.loc 1 1802 0 is_stmt 0 discriminator 1
 2486 002a 002C     		cmp	r4, #0
 2487 002c F2D0     		beq	.L268
1814:.\Generated_Source\PSoC5/LED_Driver_Gear.c **** 
 2488              		.loc 1 1814 0 is_stmt 1
 2489 002e F8BD     		pop	{r3, r4, r5, r6, r7, pc}
 2490              	.LVL329:
 2491              	.L271:
 2492              		.align	2
 2493              	.L270:
ARM GAS  C:\Users\charl\AppData\Local\Temp\ccxfbC9q.s 			page 103


 2494 0030 00000000 		.word	LED_Driver_Gear_segLBuffer
 2495              		.cfi_endproc
 2496              	.LFE22:
 2497              		.size	LED_Driver_Gear_WriteString14Seg, .-LED_Driver_Gear_WriteString14Seg
 2498              		.section	.text.LED_Driver_Gear_PutChar14Seg,"ax",%progbits
 2499              		.align	2
 2500              		.global	LED_Driver_Gear_PutChar14Seg
 2501              		.thumb
 2502              		.thumb_func
 2503              		.type	LED_Driver_Gear_PutChar14Seg, %function
 2504              	LED_Driver_Gear_PutChar14Seg:
 2505              	.LFB23:
1839:.\Generated_Source\PSoC5/LED_Driver_Gear.c ****     uint16 charDisplay;
 2506              		.loc 1 1839 0
 2507              		.cfi_startproc
 2508              		@ args = 0, pretend = 0, frame = 0
 2509              		@ frame_needed = 0, uses_anonymous_args = 0
 2510              	.LVL330:
1842:.\Generated_Source\PSoC5/LED_Driver_Gear.c ****     {
 2511              		.loc 1 1842 0
 2512 0000 31B9     		cbnz	r1, .L275
1839:.\Generated_Source\PSoC5/LED_Driver_Gear.c ****     uint16 charDisplay;
 2513              		.loc 1 1839 0
 2514 0002 10B5     		push	{r4, lr}
 2515              		.cfi_def_cfa_offset 8
 2516              		.cfi_offset 4, -8
 2517              		.cfi_offset 14, -4
 2518 0004 0C46     		mov	r4, r1
1844:.\Generated_Source\PSoC5/LED_Driver_Gear.c ****         LED_Driver_Gear_segLBuffer[position] = LO8(charDisplay);
 2519              		.loc 1 1844 0
 2520 0006 FFF7FEFF 		bl	LED_Driver_Gear_EncodeChar14Seg
 2521              	.LVL331:
1845:.\Generated_Source\PSoC5/LED_Driver_Gear.c ****     #if (LED_Driver_Gear_NUM_SEG > 8u)
 2522              		.loc 1 1845 0
 2523 000a 024B     		ldr	r3, .L276
 2524 000c 1855     		strb	r0, [r3, r4]
 2525 000e 10BD     		pop	{r4, pc}
 2526              	.LVL332:
 2527              	.L275:
 2528              		.cfi_def_cfa_offset 0
 2529              		.cfi_restore 4
 2530              		.cfi_restore 14
 2531 0010 7047     		bx	lr
 2532              	.L277:
 2533 0012 00BF     		.align	2
 2534              	.L276:
 2535 0014 00000000 		.word	LED_Driver_Gear_segLBuffer
 2536              		.cfi_endproc
 2537              	.LFE23:
 2538              		.size	LED_Driver_Gear_PutChar14Seg, .-LED_Driver_Gear_PutChar14Seg
 2539              		.section	.text.LED_Driver_Gear_EncodeNumber16Seg,"ax",%progbits
 2540              		.align	2
 2541              		.global	LED_Driver_Gear_EncodeNumber16Seg
 2542              		.thumb
 2543              		.thumb_func
 2544              		.type	LED_Driver_Gear_EncodeNumber16Seg, %function
 2545              	LED_Driver_Gear_EncodeNumber16Seg:
ARM GAS  C:\Users\charl\AppData\Local\Temp\ccxfbC9q.s 			page 104


 2546              	.LFB38:
3068:.\Generated_Source\PSoC5/LED_Driver_Gear.c **** 
3069:.\Generated_Source\PSoC5/LED_Driver_Gear.c **** 
3070:.\Generated_Source\PSoC5/LED_Driver_Gear.c **** /*******************************************************************************
3071:.\Generated_Source\PSoC5/LED_Driver_Gear.c **** * Function Name: LED_Driver_Gear_EncodeNumber16Seg
3072:.\Generated_Source\PSoC5/LED_Driver_Gear.c **** ********************************************************************************
3073:.\Generated_Source\PSoC5/LED_Driver_Gear.c **** *
3074:.\Generated_Source\PSoC5/LED_Driver_Gear.c **** * Summary:
3075:.\Generated_Source\PSoC5/LED_Driver_Gear.c **** *  Converts the lower 4 bits of the input into 16-segment data that will 
3076:.\Generated_Source\PSoC5/LED_Driver_Gear.c **** *  display the number in hex on a display. 16-segment display RAM is split into
3077:.\Generated_Source\PSoC5/LED_Driver_Gear.c **** *  two sections for each of the eight segments, so the returned data must be 
3078:.\Generated_Source\PSoC5/LED_Driver_Gear.c **** *  separated into high and low bytes before being written directly into the
3079:.\Generated_Source\PSoC5/LED_Driver_Gear.c **** *  display RAM to display the desired number. It is not necessary to use this
3080:.\Generated_Source\PSoC5/LED_Driver_Gear.c **** *  function since higher level API are provided to both decode the value and 
3081:.\Generated_Source\PSoC5/LED_Driver_Gear.c **** *  write it to the display RAM.
3082:.\Generated_Source\PSoC5/LED_Driver_Gear.c **** *
3083:.\Generated_Source\PSoC5/LED_Driver_Gear.c **** * Parameters:
3084:.\Generated_Source\PSoC5/LED_Driver_Gear.c **** *  uint8 number: A number between 0x0 and 0xF to be converted into segment data.
3085:.\Generated_Source\PSoC5/LED_Driver_Gear.c **** *
3086:.\Generated_Source\PSoC5/LED_Driver_Gear.c **** * Return:
3087:.\Generated_Source\PSoC5/LED_Driver_Gear.c **** *  The value to be written into the display RAM for displaying the specified
3088:.\Generated_Source\PSoC5/LED_Driver_Gear.c **** *  character.
3089:.\Generated_Source\PSoC5/LED_Driver_Gear.c **** *
3090:.\Generated_Source\PSoC5/LED_Driver_Gear.c **** * Side effects:
3091:.\Generated_Source\PSoC5/LED_Driver_Gear.c **** *  None
3092:.\Generated_Source\PSoC5/LED_Driver_Gear.c **** *
3093:.\Generated_Source\PSoC5/LED_Driver_Gear.c **** *******************************************************************************/
3094:.\Generated_Source\PSoC5/LED_Driver_Gear.c **** uint16 LED_Driver_Gear_EncodeNumber16Seg(uint8 number) 
3095:.\Generated_Source\PSoC5/LED_Driver_Gear.c **** {
 2547              		.loc 1 3095 0
 2548              		.cfi_startproc
 2549              		@ args = 0, pretend = 0, frame = 0
 2550              		@ frame_needed = 0, uses_anonymous_args = 0
 2551              		@ link register save eliminated.
 2552              	.LVL333:
3096:.\Generated_Source\PSoC5/LED_Driver_Gear.c ****     #if(LED_Driver_Gear_SEG_DRIVE == LED_Driver_Gear_HIGH)
3097:.\Generated_Source\PSoC5/LED_Driver_Gear.c ****         /* 16-segment numerical LUT for low byte */
3098:.\Generated_Source\PSoC5/LED_Driver_Gear.c ****         static const uint8 CYCODE LED_Driver_Gear_16SegDigitsLow[16] =
3099:.\Generated_Source\PSoC5/LED_Driver_Gear.c ****               /*--------------------------------------------------------*/
3100:.\Generated_Source\PSoC5/LED_Driver_Gear.c ****               /*  '0'    '1'    '2'    '3'    '4'    '5'    '6'    '7'  */
3101:.\Generated_Source\PSoC5/LED_Driver_Gear.c ****               /*--------------------------------------------------------*/
3102:.\Generated_Source\PSoC5/LED_Driver_Gear.c ****                 {0xffu, 0x0cu, 0x77u, 0x3fu, 0x8cu, 0xbbu, 0xfbu, 0x0fu,
3103:.\Generated_Source\PSoC5/LED_Driver_Gear.c ****               /*--------------------------------------------------------*/
3104:.\Generated_Source\PSoC5/LED_Driver_Gear.c ****               /*  '8'    '9'    'A'    'B'    'C'    'D'    'E'    'F'  */
3105:.\Generated_Source\PSoC5/LED_Driver_Gear.c ****               /*--------------------------------------------------------*/
3106:.\Generated_Source\PSoC5/LED_Driver_Gear.c ****                  0xffu, 0x8fu, 0xcfu, 0x3fu, 0xf3u, 0x3fu, 0xf3u, 0xc3u};
3107:.\Generated_Source\PSoC5/LED_Driver_Gear.c **** 
3108:.\Generated_Source\PSoC5/LED_Driver_Gear.c ****         /* 16-segment numerical LUT for high byte */
3109:.\Generated_Source\PSoC5/LED_Driver_Gear.c ****         static const uint8 CYCODE LED_Driver_Gear_16SegDigitsHigh[16] =
3110:.\Generated_Source\PSoC5/LED_Driver_Gear.c ****               /*--------------------------------------------------------*/
3111:.\Generated_Source\PSoC5/LED_Driver_Gear.c ****               /*  '0'    '1'    '2'    '3'    '4'    '5'    '6'    '7'  */
3112:.\Generated_Source\PSoC5/LED_Driver_Gear.c ****               /*--------------------------------------------------------*/
3113:.\Generated_Source\PSoC5/LED_Driver_Gear.c ****                 {0x90u, 0x00u, 0x03u, 0x03u, 0x03u, 0x03u, 0x03u, 0x00u,
3114:.\Generated_Source\PSoC5/LED_Driver_Gear.c ****               /*--------------------------------------------------------*/
3115:.\Generated_Source\PSoC5/LED_Driver_Gear.c ****               /*  '8'    '9'    'A'    'B'    'C'    'D'    'E'    'F'  */
3116:.\Generated_Source\PSoC5/LED_Driver_Gear.c ****               /*--------------------------------------------------------*/
3117:.\Generated_Source\PSoC5/LED_Driver_Gear.c ****                  0x03u, 0x03u, 0x03u, 0x4au, 0x00u, 0x48u, 0x03u, 0x03u};
ARM GAS  C:\Users\charl\AppData\Local\Temp\ccxfbC9q.s 			page 105


3118:.\Generated_Source\PSoC5/LED_Driver_Gear.c ****     #else
3119:.\Generated_Source\PSoC5/LED_Driver_Gear.c ****         /* 16-segment numerical LUT for low byte */
3120:.\Generated_Source\PSoC5/LED_Driver_Gear.c ****         static const uint8 CYCODE LED_Driver_Gear_16SegDigitsLow[16] =
3121:.\Generated_Source\PSoC5/LED_Driver_Gear.c ****               /*--------------------------------------------------------*/
3122:.\Generated_Source\PSoC5/LED_Driver_Gear.c ****               /*  '0'    '1'    '2'    '3'    '4'    '5'    '6'    '7'  */
3123:.\Generated_Source\PSoC5/LED_Driver_Gear.c ****               /*--------------------------------------------------------*/
3124:.\Generated_Source\PSoC5/LED_Driver_Gear.c ****                 {0x00u, 0xf3u, 0x88u, 0xc0u, 0x73u, 0x44u, 0x04u, 0xf0u,
3125:.\Generated_Source\PSoC5/LED_Driver_Gear.c ****               /*--------------------------------------------------------*/
3126:.\Generated_Source\PSoC5/LED_Driver_Gear.c ****               /*  '8'    '9'    'A'    'B'    'C'    'D'    'E'    'F'  */
3127:.\Generated_Source\PSoC5/LED_Driver_Gear.c ****               /*--------------------------------------------------------*/
3128:.\Generated_Source\PSoC5/LED_Driver_Gear.c ****                  0x00u, 0x70u, 0x30u, 0xc0u, 0x0cu, 0xc0u, 0x0cu, 0x3cu};
3129:.\Generated_Source\PSoC5/LED_Driver_Gear.c **** 
3130:.\Generated_Source\PSoC5/LED_Driver_Gear.c ****         /* 16-segment numerical LUT for high byte */
3131:.\Generated_Source\PSoC5/LED_Driver_Gear.c ****         static const uint8 CYCODE LED_Driver_Gear_16SegDigitsHigh[16] =
3132:.\Generated_Source\PSoC5/LED_Driver_Gear.c ****               /*--------------------------------------------------------*/
3133:.\Generated_Source\PSoC5/LED_Driver_Gear.c ****               /*  '0'    '1'    '2'    '3'    '4'    '5'    '6'    '7'  */
3134:.\Generated_Source\PSoC5/LED_Driver_Gear.c ****               /*--------------------------------------------------------*/
3135:.\Generated_Source\PSoC5/LED_Driver_Gear.c ****                 {0x6fu, 0xffu, 0xfcu, 0xfcu, 0xfcu, 0xfcu, 0xfcu, 0xffu,
3136:.\Generated_Source\PSoC5/LED_Driver_Gear.c ****               /*--------------------------------------------------------*/
3137:.\Generated_Source\PSoC5/LED_Driver_Gear.c ****               /*  '8'    '9'    'A'    'B'    'C'    'D'    'E'    'F'  */
3138:.\Generated_Source\PSoC5/LED_Driver_Gear.c ****               /*--------------------------------------------------------*/
3139:.\Generated_Source\PSoC5/LED_Driver_Gear.c ****                  0xfcu, 0xfcu, 0xfcu, 0xb5u, 0xffu, 0xb7u, 0xfcu, 0xfcu};
3140:.\Generated_Source\PSoC5/LED_Driver_Gear.c ****     #endif /*  LED_Driver_Gear_SEG_DRIVE */
3141:.\Generated_Source\PSoC5/LED_Driver_Gear.c ****     
3142:.\Generated_Source\PSoC5/LED_Driver_Gear.c ****     uint8 valNum;
3143:.\Generated_Source\PSoC5/LED_Driver_Gear.c ****     uint16 valLow;
3144:.\Generated_Source\PSoC5/LED_Driver_Gear.c ****     uint16 valHigh;
3145:.\Generated_Source\PSoC5/LED_Driver_Gear.c ****     uint16 valHex;
3146:.\Generated_Source\PSoC5/LED_Driver_Gear.c ****     
3147:.\Generated_Source\PSoC5/LED_Driver_Gear.c ****     valNum = (uint8)(number & LED_Driver_Gear_NIBBLE_MASK);
 2553              		.loc 1 3147 0
 2554 0000 00F00F00 		and	r0, r0, #15
 2555              	.LVL334:
3148:.\Generated_Source\PSoC5/LED_Driver_Gear.c ****     
3149:.\Generated_Source\PSoC5/LED_Driver_Gear.c ****     /* Get the 16-seg hex value from high and low byte LUTs */
3150:.\Generated_Source\PSoC5/LED_Driver_Gear.c ****     valHigh = (uint16)((uint16)LED_Driver_Gear_16SegDigitsHigh[valNum] << LED_Driver_Gear_SHIFT_BYT
 2556              		.loc 1 3150 0
 2557 0004 044B     		ldr	r3, .L279
 2558 0006 0344     		add	r3, r3, r0
 2559 0008 93F85001 		ldrb	r0, [r3, #336]	@ zero_extendqisi2
 2560              	.LVL335:
3151:.\Generated_Source\PSoC5/LED_Driver_Gear.c ****     valLow = (uint16)LED_Driver_Gear_16SegDigitsLow[valNum];
 2561              		.loc 1 3151 0
 2562 000c 93F86031 		ldrb	r3, [r3, #352]	@ zero_extendqisi2
 2563              	.LVL336:
3152:.\Generated_Source\PSoC5/LED_Driver_Gear.c ****     
3153:.\Generated_Source\PSoC5/LED_Driver_Gear.c ****     valHex = valHigh | valLow;
3154:.\Generated_Source\PSoC5/LED_Driver_Gear.c ****     
3155:.\Generated_Source\PSoC5/LED_Driver_Gear.c ****     return(valHex);
3156:.\Generated_Source\PSoC5/LED_Driver_Gear.c **** }
 2564              		.loc 1 3156 0
 2565 0010 43EA0020 		orr	r0, r3, r0, lsl #8
 2566              	.LVL337:
 2567 0014 7047     		bx	lr
 2568              	.L280:
 2569 0016 00BF     		.align	2
 2570              	.L279:
ARM GAS  C:\Users\charl\AppData\Local\Temp\ccxfbC9q.s 			page 106


 2571 0018 00000000 		.word	.LANCHOR2
 2572              		.cfi_endproc
 2573              	.LFE38:
 2574              		.size	LED_Driver_Gear_EncodeNumber16Seg, .-LED_Driver_Gear_EncodeNumber16Seg
 2575              		.section	.text.LED_Driver_Gear_Write16SegNumberHex,"ax",%progbits
 2576              		.align	2
 2577              		.global	LED_Driver_Gear_Write16SegNumberHex
 2578              		.thumb
 2579              		.thumb_func
 2580              		.type	LED_Driver_Gear_Write16SegNumberHex, %function
 2581              	LED_Driver_Gear_Write16SegNumberHex:
 2582              	.LFB27:
2113:.\Generated_Source\PSoC5/LED_Driver_Gear.c ****     uint8 i;
 2583              		.loc 1 2113 0
 2584              		.cfi_startproc
 2585              		@ args = 0, pretend = 0, frame = 16
 2586              		@ frame_needed = 0, uses_anonymous_args = 0
 2587              	.LVL338:
 2588 0000 2DE9F041 		push	{r4, r5, r6, r7, r8, lr}
 2589              		.cfi_def_cfa_offset 24
 2590              		.cfi_offset 4, -24
 2591              		.cfi_offset 5, -20
 2592              		.cfi_offset 6, -16
 2593              		.cfi_offset 7, -12
 2594              		.cfi_offset 8, -8
 2595              		.cfi_offset 14, -4
 2596 0004 84B0     		sub	sp, sp, #16
 2597              		.cfi_def_cfa_offset 40
 2598 0006 0746     		mov	r7, r0
 2599 0008 0E46     		mov	r6, r1
 2600 000a 1446     		mov	r4, r2
 2601 000c 9846     		mov	r8, r3
2117:.\Generated_Source\PSoC5/LED_Driver_Gear.c ****     uint32 numberVal;
 2602              		.loc 1 2117 0
 2603 000e 0023     		movs	r3, #0
 2604              	.LVL339:
 2605 0010 0093     		str	r3, [sp]
 2606 0012 0193     		str	r3, [sp, #4]
 2607 0014 0293     		str	r3, [sp, #8]
 2608 0016 0393     		str	r3, [sp, #12]
 2609              	.LVL340:
2123:.\Generated_Source\PSoC5/LED_Driver_Gear.c ****     {
 2610              		.loc 1 2123 0
 2611 0018 1346     		mov	r3, r2
 2612 001a 0BE0     		b	.L282
 2613              	.LVL341:
 2614              	.L283:
2126:.\Generated_Source\PSoC5/LED_Driver_Gear.c ****         numberVal = (uint32)((uint32)numberVal >> LED_Driver_Gear_SHIFT_NIBBLE);
 2615              		.loc 1 2126 0 discriminator 3
 2616 001c 5D1E     		subs	r5, r3, #1
 2617 001e 07F00F00 		and	r0, r7, #15
 2618 0022 FFF7FEFF 		bl	LED_Driver_Gear_EncodeNumber16Seg
 2619              	.LVL342:
 2620 0026 04AB     		add	r3, sp, #16
 2621 0028 03EB4503 		add	r3, r3, r5, lsl #1
 2622 002c 23F8100C 		strh	r0, [r3, #-16]	@ movhi
2127:.\Generated_Source\PSoC5/LED_Driver_Gear.c ****     }
ARM GAS  C:\Users\charl\AppData\Local\Temp\ccxfbC9q.s 			page 107


 2623              		.loc 1 2127 0 discriminator 3
 2624 0030 3F09     		lsrs	r7, r7, #4
 2625              	.LVL343:
2123:.\Generated_Source\PSoC5/LED_Driver_Gear.c ****     {
 2626              		.loc 1 2123 0 discriminator 3
 2627 0032 EBB2     		uxtb	r3, r5
 2628              	.LVL344:
 2629              	.L282:
2123:.\Generated_Source\PSoC5/LED_Driver_Gear.c ****     {
 2630              		.loc 1 2123 0 is_stmt 0 discriminator 1
 2631 0034 002B     		cmp	r3, #0
 2632 0036 F1D1     		bne	.L283
 2633 0038 10E0     		b	.L284
 2634              	.L286:
2133:.\Generated_Source\PSoC5/LED_Driver_Gear.c ****         {
 2635              		.loc 1 2133 0 is_stmt 1
 2636 003a 04AA     		add	r2, sp, #16
 2637 003c 02EB4302 		add	r2, r2, r3, lsl #1
 2638 0040 32F8101C 		ldrh	r1, [r2, #-16]
 2639 0044 49F2FF02 		movw	r2, #37119
 2640 0048 9142     		cmp	r1, r2
 2641 004a 09D1     		bne	.L285
2141:.\Generated_Source\PSoC5/LED_Driver_Gear.c ****         }    
 2642              		.loc 1 2141 0 discriminator 2
 2643 004c 04AA     		add	r2, sp, #16
 2644 004e 02EB4302 		add	r2, r2, r3, lsl #1
 2645 0052 0021     		movs	r1, #0
 2646 0054 22F8101C 		strh	r1, [r2, #-16]	@ movhi
2131:.\Generated_Source\PSoC5/LED_Driver_Gear.c ****     {
 2647              		.loc 1 2131 0 discriminator 2
 2648 0058 0133     		adds	r3, r3, #1
 2649              	.LVL345:
 2650 005a DBB2     		uxtb	r3, r3
 2651              	.LVL346:
 2652              	.L284:
2131:.\Generated_Source\PSoC5/LED_Driver_Gear.c ****     {
 2653              		.loc 1 2131 0 is_stmt 0 discriminator 1
 2654 005c A342     		cmp	r3, r4
 2655 005e ECD3     		bcc	.L286
 2656              	.L285:
 2657              	.LVL347:
2148:.\Generated_Source\PSoC5/LED_Driver_Gear.c ****     {
 2658              		.loc 1 2148 0 is_stmt 1
 2659 0060 B8F1010F 		cmp	r8, #1
 2660 0064 27D1     		bne	.L288
 2661 0066 0DE0     		b	.L297
 2662              	.L291:
2152:.\Generated_Source\PSoC5/LED_Driver_Gear.c ****             {
 2663              		.loc 1 2152 0
 2664 0068 04AA     		add	r2, sp, #16
 2665 006a 02EB4302 		add	r2, r2, r3, lsl #1
 2666 006e 32F8102C 		ldrh	r2, [r2, #-16]
 2667 0072 22B1     		cbz	r2, .L289
2154:.\Generated_Source\PSoC5/LED_Driver_Gear.c ****                 {
 2668              		.loc 1 2154 0
 2669 0074 0EB9     		cbnz	r6, .L290
2157:.\Generated_Source\PSoC5/LED_Driver_Gear.c ****                 #if (LED_Driver_Gear_NUM_SEG > 8u)
ARM GAS  C:\Users\charl\AppData\Local\Temp\ccxfbC9q.s 			page 108


 2670              		.loc 1 2157 0
 2671 0076 1249     		ldr	r1, .L299
 2672 0078 8A55     		strb	r2, [r1, r6]
 2673              	.L290:
2162:.\Generated_Source\PSoC5/LED_Driver_Gear.c ****             }
 2674              		.loc 1 2162 0
 2675 007a 0136     		adds	r6, r6, #1
 2676              	.LVL348:
 2677 007c F6B2     		uxtb	r6, r6
 2678              	.LVL349:
 2679              	.L289:
2150:.\Generated_Source\PSoC5/LED_Driver_Gear.c ****         {
 2680              		.loc 1 2150 0 discriminator 2
 2681 007e 0133     		adds	r3, r3, #1
 2682              	.LVL350:
 2683 0080 DBB2     		uxtb	r3, r3
 2684              	.LVL351:
 2685 0082 00E0     		b	.L287
 2686              	.L297:
 2687 0084 0023     		movs	r3, #0
 2688              	.LVL352:
 2689              	.L287:
2150:.\Generated_Source\PSoC5/LED_Driver_Gear.c ****         {
 2690              		.loc 1 2150 0 is_stmt 0 discriminator 1
 2691 0086 A342     		cmp	r3, r4
 2692 0088 EED3     		bcc	.L291
 2693 008a 04E0     		b	.L292
 2694              	.LVL353:
 2695              	.L293:
2169:.\Generated_Source\PSoC5/LED_Driver_Gear.c ****             #if (LED_Driver_Gear_NUM_SEG > 8u)
 2696              		.loc 1 2169 0 is_stmt 1
 2697 008c 0022     		movs	r2, #0
 2698 008e 0C4B     		ldr	r3, .L299
 2699 0090 9A55     		strb	r2, [r3, r6]
2174:.\Generated_Source\PSoC5/LED_Driver_Gear.c ****         }
 2700              		.loc 1 2174 0
 2701 0092 0136     		adds	r6, r6, #1
 2702              	.LVL354:
 2703 0094 F6B2     		uxtb	r6, r6
 2704              	.LVL355:
 2705              	.L292:
2166:.\Generated_Source\PSoC5/LED_Driver_Gear.c ****         {
 2706              		.loc 1 2166 0
 2707 0096 A642     		cmp	r6, r4
 2708 0098 F8D3     		bcc	.L293
 2709 009a 0EE0     		b	.L281
 2710              	.LVL356:
 2711              	.L296:
2181:.\Generated_Source\PSoC5/LED_Driver_Gear.c ****             {
 2712              		.loc 1 2181 0
 2713 009c A319     		adds	r3, r4, r6
 2714 009e 012B     		cmp	r3, #1
 2715 00a0 07D1     		bne	.L295
2183:.\Generated_Source\PSoC5/LED_Driver_Gear.c ****             #if (LED_Driver_Gear_NUM_SEG > 8u)
 2716              		.loc 1 2183 0
 2717 00a2 013B     		subs	r3, r3, #1
 2718 00a4 04AA     		add	r2, sp, #16
ARM GAS  C:\Users\charl\AppData\Local\Temp\ccxfbC9q.s 			page 109


 2719 00a6 02EB4402 		add	r2, r2, r4, lsl #1
 2720 00aa 12F8121C 		ldrb	r1, [r2, #-18]	@ zero_extendqisi2
 2721 00ae 044A     		ldr	r2, .L299
 2722 00b0 D154     		strb	r1, [r2, r3]
 2723              	.L295:
2179:.\Generated_Source\PSoC5/LED_Driver_Gear.c ****         {
 2724              		.loc 1 2179 0 discriminator 2
 2725 00b2 013C     		subs	r4, r4, #1
 2726              	.LVL357:
 2727 00b4 E4B2     		uxtb	r4, r4
 2728              	.LVL358:
 2729              	.L288:
2179:.\Generated_Source\PSoC5/LED_Driver_Gear.c ****         {
 2730              		.loc 1 2179 0 is_stmt 0 discriminator 1
 2731 00b6 002C     		cmp	r4, #0
 2732 00b8 F0D1     		bne	.L296
 2733              	.LVL359:
 2734              	.L281:
2190:.\Generated_Source\PSoC5/LED_Driver_Gear.c **** 
 2735              		.loc 1 2190 0 is_stmt 1
 2736 00ba 04B0     		add	sp, sp, #16
 2737              		.cfi_def_cfa_offset 24
 2738              		@ sp needed
 2739 00bc BDE8F081 		pop	{r4, r5, r6, r7, r8, pc}
 2740              	.LVL360:
 2741              	.L300:
 2742              		.align	2
 2743              	.L299:
 2744 00c0 00000000 		.word	LED_Driver_Gear_segLBuffer
 2745              		.cfi_endproc
 2746              	.LFE27:
 2747              		.size	LED_Driver_Gear_Write16SegNumberHex, .-LED_Driver_Gear_Write16SegNumberHex
 2748              		.section	.text.LED_Driver_Gear_Write16SegDigitDec,"ax",%progbits
 2749              		.align	2
 2750              		.global	LED_Driver_Gear_Write16SegDigitDec
 2751              		.thumb
 2752              		.thumb_func
 2753              		.type	LED_Driver_Gear_Write16SegDigitDec, %function
 2754              	LED_Driver_Gear_Write16SegDigitDec:
 2755              	.LFB30:
2293:.\Generated_Source\PSoC5/LED_Driver_Gear.c ****     uint16 charDisplay;
 2756              		.loc 1 2293 0
 2757              		.cfi_startproc
 2758              		@ args = 0, pretend = 0, frame = 0
 2759              		@ frame_needed = 0, uses_anonymous_args = 0
 2760              	.LVL361:
2296:.\Generated_Source\PSoC5/LED_Driver_Gear.c ****     {
 2761              		.loc 1 2296 0
 2762 0000 0928     		cmp	r0, #9
 2763 0002 07D8     		bhi	.L304
2296:.\Generated_Source\PSoC5/LED_Driver_Gear.c ****     {
 2764              		.loc 1 2296 0 is_stmt 0 discriminator 1
 2765 0004 31B9     		cbnz	r1, .L304
2293:.\Generated_Source\PSoC5/LED_Driver_Gear.c ****     uint16 charDisplay;
 2766              		.loc 1 2293 0 is_stmt 1
 2767 0006 10B5     		push	{r4, lr}
 2768              		.cfi_def_cfa_offset 8
ARM GAS  C:\Users\charl\AppData\Local\Temp\ccxfbC9q.s 			page 110


 2769              		.cfi_offset 4, -8
 2770              		.cfi_offset 14, -4
 2771 0008 0C46     		mov	r4, r1
2298:.\Generated_Source\PSoC5/LED_Driver_Gear.c ****         LED_Driver_Gear_segLBuffer[position] = LO8(charDisplay);
 2772              		.loc 1 2298 0
 2773 000a FFF7FEFF 		bl	LED_Driver_Gear_EncodeNumber16Seg
 2774              	.LVL362:
2299:.\Generated_Source\PSoC5/LED_Driver_Gear.c ****         #if (LED_Driver_Gear_NUM_SEG > 8u)
 2775              		.loc 1 2299 0
 2776 000e 024B     		ldr	r3, .L305
 2777 0010 1855     		strb	r0, [r3, r4]
 2778 0012 10BD     		pop	{r4, pc}
 2779              	.LVL363:
 2780              	.L304:
 2781              		.cfi_def_cfa_offset 0
 2782              		.cfi_restore 4
 2783              		.cfi_restore 14
 2784 0014 7047     		bx	lr
 2785              	.L306:
 2786 0016 00BF     		.align	2
 2787              	.L305:
 2788 0018 00000000 		.word	LED_Driver_Gear_segLBuffer
 2789              		.cfi_endproc
 2790              	.LFE30:
 2791              		.size	LED_Driver_Gear_Write16SegDigitDec, .-LED_Driver_Gear_Write16SegDigitDec
 2792              		.section	.text.LED_Driver_Gear_Write16SegDigitHex,"ax",%progbits
 2793              		.align	2
 2794              		.global	LED_Driver_Gear_Write16SegDigitHex
 2795              		.thumb
 2796              		.thumb_func
 2797              		.type	LED_Driver_Gear_Write16SegDigitHex, %function
 2798              	LED_Driver_Gear_Write16SegDigitHex:
 2799              	.LFB31:
2327:.\Generated_Source\PSoC5/LED_Driver_Gear.c ****     uint16 charDisplay;
 2800              		.loc 1 2327 0
 2801              		.cfi_startproc
 2802              		@ args = 0, pretend = 0, frame = 0
 2803              		@ frame_needed = 0, uses_anonymous_args = 0
 2804              	.LVL364:
2330:.\Generated_Source\PSoC5/LED_Driver_Gear.c ****     {
 2805              		.loc 1 2330 0
 2806 0000 31B9     		cbnz	r1, .L310
2327:.\Generated_Source\PSoC5/LED_Driver_Gear.c ****     uint16 charDisplay;
 2807              		.loc 1 2327 0
 2808 0002 10B5     		push	{r4, lr}
 2809              		.cfi_def_cfa_offset 8
 2810              		.cfi_offset 4, -8
 2811              		.cfi_offset 14, -4
 2812 0004 0C46     		mov	r4, r1
2332:.\Generated_Source\PSoC5/LED_Driver_Gear.c ****         LED_Driver_Gear_segLBuffer[position] = LO8(charDisplay);
 2813              		.loc 1 2332 0
 2814 0006 FFF7FEFF 		bl	LED_Driver_Gear_EncodeNumber16Seg
 2815              	.LVL365:
2333:.\Generated_Source\PSoC5/LED_Driver_Gear.c ****         #if (LED_Driver_Gear_NUM_SEG > 8u)
 2816              		.loc 1 2333 0
 2817 000a 024B     		ldr	r3, .L311
 2818 000c 1855     		strb	r0, [r3, r4]
ARM GAS  C:\Users\charl\AppData\Local\Temp\ccxfbC9q.s 			page 111


 2819 000e 10BD     		pop	{r4, pc}
 2820              	.LVL366:
 2821              	.L310:
 2822              		.cfi_def_cfa_offset 0
 2823              		.cfi_restore 4
 2824              		.cfi_restore 14
 2825 0010 7047     		bx	lr
 2826              	.L312:
 2827 0012 00BF     		.align	2
 2828              	.L311:
 2829 0014 00000000 		.word	LED_Driver_Gear_segLBuffer
 2830              		.cfi_endproc
 2831              	.LFE31:
 2832              		.size	LED_Driver_Gear_Write16SegDigitHex, .-LED_Driver_Gear_Write16SegDigitHex
 2833              		.section	.text.LED_Driver_Gear_EncodeChar16Seg,"ax",%progbits
 2834              		.align	2
 2835              		.global	LED_Driver_Gear_EncodeChar16Seg
 2836              		.thumb
 2837              		.thumb_func
 2838              		.type	LED_Driver_Gear_EncodeChar16Seg, %function
 2839              	LED_Driver_Gear_EncodeChar16Seg:
 2840              	.LFB39:
3157:.\Generated_Source\PSoC5/LED_Driver_Gear.c **** 
3158:.\Generated_Source\PSoC5/LED_Driver_Gear.c **** 
3159:.\Generated_Source\PSoC5/LED_Driver_Gear.c **** /*******************************************************************************
3160:.\Generated_Source\PSoC5/LED_Driver_Gear.c **** * Function Name: LED_Driver_Gear_EncodeChar16Seg
3161:.\Generated_Source\PSoC5/LED_Driver_Gear.c **** ********************************************************************************
3162:.\Generated_Source\PSoC5/LED_Driver_Gear.c **** *
3163:.\Generated_Source\PSoC5/LED_Driver_Gear.c **** * Summary:
3164:.\Generated_Source\PSoC5/LED_Driver_Gear.c **** *  Converts the ASCII encoded alphabet character input into the 16-segment
3165:.\Generated_Source\PSoC5/LED_Driver_Gear.c **** *  data that will display the alphabet character on a display. 16-segment 
3166:.\Generated_Source\PSoC5/LED_Driver_Gear.c **** *  display RAM is split into two sections for each of the eight segments, so 
3167:.\Generated_Source\PSoC5/LED_Driver_Gear.c **** *  the returned data must be separated into high and low bytes before being 
3168:.\Generated_Source\PSoC5/LED_Driver_Gear.c **** *  written directly into the display RAM to display the desired character. It
3169:.\Generated_Source\PSoC5/LED_Driver_Gear.c **** *  is not necessary to use this function since higher level API are provided 
3170:.\Generated_Source\PSoC5/LED_Driver_Gear.c **** *  to both decode the value and write it to the display RAM.
3171:.\Generated_Source\PSoC5/LED_Driver_Gear.c **** *
3172:.\Generated_Source\PSoC5/LED_Driver_Gear.c **** * Parameters:
3173:.\Generated_Source\PSoC5/LED_Driver_Gear.c **** *  char8 input: An ASCII alphabet character to be converted into segment data.
3174:.\Generated_Source\PSoC5/LED_Driver_Gear.c **** *
3175:.\Generated_Source\PSoC5/LED_Driver_Gear.c **** * Return:
3176:.\Generated_Source\PSoC5/LED_Driver_Gear.c **** *  The value to be written into the display RAM for displaying the specified
3177:.\Generated_Source\PSoC5/LED_Driver_Gear.c **** *  character.
3178:.\Generated_Source\PSoC5/LED_Driver_Gear.c **** *
3179:.\Generated_Source\PSoC5/LED_Driver_Gear.c **** * Side effects:
3180:.\Generated_Source\PSoC5/LED_Driver_Gear.c **** *  None
3181:.\Generated_Source\PSoC5/LED_Driver_Gear.c **** *
3182:.\Generated_Source\PSoC5/LED_Driver_Gear.c **** *******************************************************************************/
3183:.\Generated_Source\PSoC5/LED_Driver_Gear.c **** uint16 LED_Driver_Gear_EncodeChar16Seg(char8 input) 
3184:.\Generated_Source\PSoC5/LED_Driver_Gear.c **** {
 2841              		.loc 1 3184 0
 2842              		.cfi_startproc
 2843              		@ args = 0, pretend = 0, frame = 0
 2844              		@ frame_needed = 0, uses_anonymous_args = 0
 2845              		@ link register save eliminated.
 2846              	.LVL367:
3185:.\Generated_Source\PSoC5/LED_Driver_Gear.c ****     #if(LED_Driver_Gear_SEG_DRIVE == LED_Driver_Gear_HIGH)
ARM GAS  C:\Users\charl\AppData\Local\Temp\ccxfbC9q.s 			page 112


3186:.\Generated_Source\PSoC5/LED_Driver_Gear.c ****         /* 16-segment ASCII LUT for low byte */
3187:.\Generated_Source\PSoC5/LED_Driver_Gear.c ****         static const uint8 CYCODE LED_Driver_Gear_16SegASCIILow[6][16] =
3188:.\Generated_Source\PSoC5/LED_Driver_Gear.c ****               {
3189:.\Generated_Source\PSoC5/LED_Driver_Gear.c ****               /*--------------------------------------------------------*/
3190:.\Generated_Source\PSoC5/LED_Driver_Gear.c ****               /* 'Space' '!'    '"'    '#'    '$'    '%'    '&'    '''  */
3191:.\Generated_Source\PSoC5/LED_Driver_Gear.c ****               /*--------------------------------------------------------*/
3192:.\Generated_Source\PSoC5/LED_Driver_Gear.c ****                 {0x00u, 0xc0u, 0x80u, 0x00u, 0x00u, 0x00u, 0x00u, 0x80u,
3193:.\Generated_Source\PSoC5/LED_Driver_Gear.c ****               /*--------------------------------------------------------*/
3194:.\Generated_Source\PSoC5/LED_Driver_Gear.c ****               /*  '('    ')'    '*'    '+'    ','    '-'    '.'    '/'  */
3195:.\Generated_Source\PSoC5/LED_Driver_Gear.c ****               /*--------------------------------------------------------*/
3196:.\Generated_Source\PSoC5/LED_Driver_Gear.c ****                  0x00u, 0x00u, 0x00u, 0x00u, 0x00u, 0x00u, 0x00u, 0x00u},
3197:.\Generated_Source\PSoC5/LED_Driver_Gear.c ****               /*--------------------------------------------------------*/   
3198:.\Generated_Source\PSoC5/LED_Driver_Gear.c ****               /*  '0'    '1'    '2'    '3'    '4'    '5'    '6'    '7'  */
3199:.\Generated_Source\PSoC5/LED_Driver_Gear.c ****               /*--------------------------------------------------------*/
3200:.\Generated_Source\PSoC5/LED_Driver_Gear.c ****                 {0xffu, 0x0cu, 0x77u, 0x3fu, 0x8cu, 0xbbu, 0xfbu, 0x0fu,
3201:.\Generated_Source\PSoC5/LED_Driver_Gear.c ****               /*--------------------------------------------------------*/
3202:.\Generated_Source\PSoC5/LED_Driver_Gear.c ****               /*  '8'    '9'    ':'    ';'    '<'    '='    '>'    '?'  */
3203:.\Generated_Source\PSoC5/LED_Driver_Gear.c ****               /*--------------------------------------------------------*/
3204:.\Generated_Source\PSoC5/LED_Driver_Gear.c ****                  0xffu, 0x8fu, 0x00u, 0x00u, 0x00u, 0x30u, 0x00u, 0x07u},
3205:.\Generated_Source\PSoC5/LED_Driver_Gear.c ****               /*--------------------------------------------------------*/
3206:.\Generated_Source\PSoC5/LED_Driver_Gear.c ****               /*  '@'    'A'    'B'    'C'    'D'    'E'    'F'    'G'  */
3207:.\Generated_Source\PSoC5/LED_Driver_Gear.c ****               /*--------------------------------------------------------*/
3208:.\Generated_Source\PSoC5/LED_Driver_Gear.c ****                 {0x00u, 0xcfu, 0x3fu, 0xf3u, 0x3fu, 0xf3u, 0xc3u, 0xfbu,
3209:.\Generated_Source\PSoC5/LED_Driver_Gear.c ****               /*--------------------------------------------------------*/
3210:.\Generated_Source\PSoC5/LED_Driver_Gear.c ****               /*  'H'    'I'    'J'    'K'    'L'    'M'    'N'    'O'  */
3211:.\Generated_Source\PSoC5/LED_Driver_Gear.c ****               /*--------------------------------------------------------*/
3212:.\Generated_Source\PSoC5/LED_Driver_Gear.c ****                  0xccu, 0x33u, 0x7cu, 0xc0u, 0xf0u, 0xccu, 0xccu, 0xffu},
3213:.\Generated_Source\PSoC5/LED_Driver_Gear.c ****               /*--------------------------------------------------------*/
3214:.\Generated_Source\PSoC5/LED_Driver_Gear.c ****               /*  'P'    'Q'    'R'    'S'    'T'    'U'    'V'    'W'  */
3215:.\Generated_Source\PSoC5/LED_Driver_Gear.c ****               /*--------------------------------------------------------*/
3216:.\Generated_Source\PSoC5/LED_Driver_Gear.c ****                 {0xc7u, 0xffu, 0xc7u, 0xbbu, 0x03u, 0xfcu, 0xc0u, 0xccu,
3217:.\Generated_Source\PSoC5/LED_Driver_Gear.c ****               /*--------------------------------------------------------*/
3218:.\Generated_Source\PSoC5/LED_Driver_Gear.c ****               /*  'X'    'Y'    'Z'    '['    '\'    ']'    '^'    '_'  */
3219:.\Generated_Source\PSoC5/LED_Driver_Gear.c ****               /*--------------------------------------------------------*/
3220:.\Generated_Source\PSoC5/LED_Driver_Gear.c ****                  0x00u, 0x00u, 0x33u, 0x00u, 0x00u, 0x00u, 0x00u, 0x30u},
3221:.\Generated_Source\PSoC5/LED_Driver_Gear.c ****               /*--------------------------------------------------------*/
3222:.\Generated_Source\PSoC5/LED_Driver_Gear.c ****               /*  '`'    'a'    'b'    'c'    'd'    'e'    'f'    'g'  */
3223:.\Generated_Source\PSoC5/LED_Driver_Gear.c ****               /*--------------------------------------------------------*/
3224:.\Generated_Source\PSoC5/LED_Driver_Gear.c ****                 {0x00u, 0x70u, 0xe0u, 0x60u, 0x60u, 0x60u, 0x02u, 0xa1u,
3225:.\Generated_Source\PSoC5/LED_Driver_Gear.c ****               /*--------------------------------------------------------*/
3226:.\Generated_Source\PSoC5/LED_Driver_Gear.c ****               /*  'h'    'i'    'j'    'k'    'l'    'm'    'n'    'o'  */
3227:.\Generated_Source\PSoC5/LED_Driver_Gear.c ****               /*--------------------------------------------------------*/
3228:.\Generated_Source\PSoC5/LED_Driver_Gear.c ****                  0xc0u, 0x00u, 0x20u, 0x00u, 0x00u, 0x48u, 0x08u, 0x60u},
3229:.\Generated_Source\PSoC5/LED_Driver_Gear.c ****               /*--------------------------------------------------------*/
3230:.\Generated_Source\PSoC5/LED_Driver_Gear.c ****               /*  'p'    'q'    'r'    's'    't'    'u'    'v'    'w'  */
3231:.\Generated_Source\PSoC5/LED_Driver_Gear.c ****               /*--------------------------------------------------------*/
3232:.\Generated_Source\PSoC5/LED_Driver_Gear.c ****                 {0xc1u, 0x91u, 0x00u, 0x10u, 0x00u, 0x70u, 0x40u, 0x78u,
3233:.\Generated_Source\PSoC5/LED_Driver_Gear.c ****               /*--------------------------------------------------------*/
3234:.\Generated_Source\PSoC5/LED_Driver_Gear.c ****               /*  'x'    'y'    'z'    '{'    '|'    '}'    '~'   'DEL' */
3235:.\Generated_Source\PSoC5/LED_Driver_Gear.c ****               /*--------------------------------------------------------*/
3236:.\Generated_Source\PSoC5/LED_Driver_Gear.c ****                  0x00u, 0xa0u, 0x20u, 0x00u, 0x00u, 0x00u, 0x00u, 0x00u}
3237:.\Generated_Source\PSoC5/LED_Driver_Gear.c ****               };
3238:.\Generated_Source\PSoC5/LED_Driver_Gear.c **** 
3239:.\Generated_Source\PSoC5/LED_Driver_Gear.c ****         /* 16-segment ASCII LUT for high byte */
3240:.\Generated_Source\PSoC5/LED_Driver_Gear.c ****         static const uint8 CYCODE LED_Driver_Gear_16SegASCIIHigh[6][16] =
3241:.\Generated_Source\PSoC5/LED_Driver_Gear.c ****               {
3242:.\Generated_Source\PSoC5/LED_Driver_Gear.c ****               /*--------------------------------------------------------*/
ARM GAS  C:\Users\charl\AppData\Local\Temp\ccxfbC9q.s 			page 113


3243:.\Generated_Source\PSoC5/LED_Driver_Gear.c ****               /* 'Space' '!'    '"'    '#'    '$'    '%'    '&'    '''  */
3244:.\Generated_Source\PSoC5/LED_Driver_Gear.c ****               /*--------------------------------------------------------*/
3245:.\Generated_Source\PSoC5/LED_Driver_Gear.c ****                 {0x00u, 0x00u, 0x08u, 0x00u, 0x00u, 0x00u, 0x00u, 0x00u,
3246:.\Generated_Source\PSoC5/LED_Driver_Gear.c ****               /*--------------------------------------------------------*/
3247:.\Generated_Source\PSoC5/LED_Driver_Gear.c ****               /*  '('    ')'    '*'    '+'    ','    '-'    '.'    '/'  */
3248:.\Generated_Source\PSoC5/LED_Driver_Gear.c ****               /*--------------------------------------------------------*/
3249:.\Generated_Source\PSoC5/LED_Driver_Gear.c ****                  0x30u, 0x84u, 0xffu, 0x00u, 0x80u, 0x03u, 0x00u, 0x00u},
3250:.\Generated_Source\PSoC5/LED_Driver_Gear.c ****               /*--------------------------------------------------------*/   
3251:.\Generated_Source\PSoC5/LED_Driver_Gear.c ****               /*  '0'    '1'    '2'    '3'    '4'    '5'    '6'    '7'  */
3252:.\Generated_Source\PSoC5/LED_Driver_Gear.c ****               /*--------------------------------------------------------*/
3253:.\Generated_Source\PSoC5/LED_Driver_Gear.c ****                 {0x90u, 0x00u, 0x03u, 0x03u, 0x03u, 0x03u, 0x03u, 0x00u,
3254:.\Generated_Source\PSoC5/LED_Driver_Gear.c ****               /*--------------------------------------------------------*/
3255:.\Generated_Source\PSoC5/LED_Driver_Gear.c ****               /*  '8'    '9'    ':'    ';'    '<'    '='    '>'    '?'  */
3256:.\Generated_Source\PSoC5/LED_Driver_Gear.c ****               /*--------------------------------------------------------*/
3257:.\Generated_Source\PSoC5/LED_Driver_Gear.c ****                  0x03u, 0x03u, 0x00u, 0x00u, 0x00u, 0x03u, 0x00u, 0x42u},
3258:.\Generated_Source\PSoC5/LED_Driver_Gear.c ****               /*--------------------------------------------------------*/
3259:.\Generated_Source\PSoC5/LED_Driver_Gear.c ****               /*  '@'    'A'    'B'    'C'    'D'    'E'    'F'    'G'  */
3260:.\Generated_Source\PSoC5/LED_Driver_Gear.c ****               /*--------------------------------------------------------*/
3261:.\Generated_Source\PSoC5/LED_Driver_Gear.c ****                 {0x00u, 0x03u, 0x4au, 0x00u, 0x48u, 0x03u, 0x03u, 0x02u,
3262:.\Generated_Source\PSoC5/LED_Driver_Gear.c ****               /*--------------------------------------------------------*/
3263:.\Generated_Source\PSoC5/LED_Driver_Gear.c ****               /*  'H'    'I'    'J'    'K'    'L'    'M'    'N'    'O'  */
3264:.\Generated_Source\PSoC5/LED_Driver_Gear.c ****               /*--------------------------------------------------------*/
3265:.\Generated_Source\PSoC5/LED_Driver_Gear.c ****                  0x03u, 0x48u, 0x00u, 0x31u, 0x00u, 0x14u, 0x24u, 0x00u},
3266:.\Generated_Source\PSoC5/LED_Driver_Gear.c ****               /*--------------------------------------------------------*/
3267:.\Generated_Source\PSoC5/LED_Driver_Gear.c ****               /*  'P'    'Q'    'R'    'S'    'T'    'U'    'V'    'W'  */
3268:.\Generated_Source\PSoC5/LED_Driver_Gear.c ****               /*--------------------------------------------------------*/
3269:.\Generated_Source\PSoC5/LED_Driver_Gear.c ****                 {0x03u, 0x20u, 0x23u, 0x03u, 0x48u, 0x00u, 0x90u, 0xa0u,
3270:.\Generated_Source\PSoC5/LED_Driver_Gear.c ****               /*--------------------------------------------------------*/
3271:.\Generated_Source\PSoC5/LED_Driver_Gear.c ****               /*  'X'    'Y'    'Z'    '['    '\'    ']'    '^'    '_'  */
3272:.\Generated_Source\PSoC5/LED_Driver_Gear.c ****               /*--------------------------------------------------------*/
3273:.\Generated_Source\PSoC5/LED_Driver_Gear.c ****                  0xb4u, 0x54u, 0x90u, 0x00u, 0x00u, 0x00u, 0x00u, 0x00u},
3274:.\Generated_Source\PSoC5/LED_Driver_Gear.c ****               /*--------------------------------------------------------*/
3275:.\Generated_Source\PSoC5/LED_Driver_Gear.c ****               /*  '`'    'a'    'b'    'c'    'd'    'e'    'f'    'g'  */
3276:.\Generated_Source\PSoC5/LED_Driver_Gear.c ****               /*--------------------------------------------------------*/
3277:.\Generated_Source\PSoC5/LED_Driver_Gear.c ****                 {0x00u, 0x41u, 0x41u, 0x01u, 0x49u, 0x81u, 0x4bu, 0x49u,
3278:.\Generated_Source\PSoC5/LED_Driver_Gear.c ****               /*--------------------------------------------------------*/
3279:.\Generated_Source\PSoC5/LED_Driver_Gear.c ****               /*  'h'    'i'    'j'    'k'    'l'    'm'    'n'    'o'  */
3280:.\Generated_Source\PSoC5/LED_Driver_Gear.c ****               /*--------------------------------------------------------*/
3281:.\Generated_Source\PSoC5/LED_Driver_Gear.c ****                  0x41u, 0x40u, 0x48u, 0x6au, 0x48u, 0x43u, 0x43u, 0x41u},
3282:.\Generated_Source\PSoC5/LED_Driver_Gear.c ****               /*--------------------------------------------------------*/
3283:.\Generated_Source\PSoC5/LED_Driver_Gear.c ****               /*  'p'    'q'    'r'    's'    't'    'u'    'v'    'w'  */
3284:.\Generated_Source\PSoC5/LED_Driver_Gear.c ****               /*--------------------------------------------------------*/
3285:.\Generated_Source\PSoC5/LED_Driver_Gear.c ****                 {0x09u, 0x49u, 0x42u, 0x22u, 0x4bu, 0x40u, 0x80u, 0x40u,
3286:.\Generated_Source\PSoC5/LED_Driver_Gear.c ****               /*--------------------------------------------------------*/
3287:.\Generated_Source\PSoC5/LED_Driver_Gear.c ****               /*  'x'    'y'    'z'    '{'    '|'    '}'    '~'   'DEL' */
3288:.\Generated_Source\PSoC5/LED_Driver_Gear.c ****               /*--------------------------------------------------------*/
3289:.\Generated_Source\PSoC5/LED_Driver_Gear.c ****                  0xb4u, 0x49u, 0x81u, 0x00u, 0x00u, 0x00u, 0x00u, 0x00u}
3290:.\Generated_Source\PSoC5/LED_Driver_Gear.c ****               };
3291:.\Generated_Source\PSoC5/LED_Driver_Gear.c ****     #else
3292:.\Generated_Source\PSoC5/LED_Driver_Gear.c ****         /* 16-segment ASCII LUT for low byte */
3293:.\Generated_Source\PSoC5/LED_Driver_Gear.c ****         static const uint8 CYCODE LED_Driver_Gear_16SegASCIILow[6][16] =
3294:.\Generated_Source\PSoC5/LED_Driver_Gear.c ****               {
3295:.\Generated_Source\PSoC5/LED_Driver_Gear.c ****               /*--------------------------------------------------------*/
3296:.\Generated_Source\PSoC5/LED_Driver_Gear.c ****               /* 'Space' '!'    '"'    '#'    '$'    '%'    '&'    '''  */
3297:.\Generated_Source\PSoC5/LED_Driver_Gear.c ****               /*--------------------------------------------------------*/
3298:.\Generated_Source\PSoC5/LED_Driver_Gear.c ****                 {0xffu, 0x3fu, 0x7fu, 0xffu, 0xffu, 0xffu, 0xffu, 0x7fu,
3299:.\Generated_Source\PSoC5/LED_Driver_Gear.c ****               /*--------------------------------------------------------*/
ARM GAS  C:\Users\charl\AppData\Local\Temp\ccxfbC9q.s 			page 114


3300:.\Generated_Source\PSoC5/LED_Driver_Gear.c ****               /*  '('    ')'    '*'    '+'    ','    '-'    '.'    '/'  */
3301:.\Generated_Source\PSoC5/LED_Driver_Gear.c ****               /*--------------------------------------------------------*/
3302:.\Generated_Source\PSoC5/LED_Driver_Gear.c ****                  0xffu, 0xffu, 0xffu, 0xffu, 0xffu, 0xffu, 0xffu, 0xffu},
3303:.\Generated_Source\PSoC5/LED_Driver_Gear.c ****               /*--------------------------------------------------------*/   
3304:.\Generated_Source\PSoC5/LED_Driver_Gear.c ****               /*  '0'    '1'    '2'    '3'    '4'    '5'    '6'    '7'  */
3305:.\Generated_Source\PSoC5/LED_Driver_Gear.c ****               /*--------------------------------------------------------*/
3306:.\Generated_Source\PSoC5/LED_Driver_Gear.c ****                 {0x00u, 0xf3u, 0x88u, 0xc0u, 0x73u, 0x44u, 0x04u, 0xf0u,
3307:.\Generated_Source\PSoC5/LED_Driver_Gear.c ****               /*--------------------------------------------------------*/
3308:.\Generated_Source\PSoC5/LED_Driver_Gear.c ****               /*  '8'    '9'    ':'    ';'    '<'    '='    '>'    '?'  */
3309:.\Generated_Source\PSoC5/LED_Driver_Gear.c ****               /*--------------------------------------------------------*/
3310:.\Generated_Source\PSoC5/LED_Driver_Gear.c ****                  0x00u, 0x70u, 0xffu, 0xffu, 0xffu, 0xcfu, 0xffu, 0xf8u},
3311:.\Generated_Source\PSoC5/LED_Driver_Gear.c ****               /*--------------------------------------------------------*/
3312:.\Generated_Source\PSoC5/LED_Driver_Gear.c ****               /*  '@'    'A'    'B'    'C'    'D'    'E'    'F'    'G'  */
3313:.\Generated_Source\PSoC5/LED_Driver_Gear.c ****               /*--------------------------------------------------------*/
3314:.\Generated_Source\PSoC5/LED_Driver_Gear.c ****                 {0xffu, 0x30u, 0xc0u, 0x0cu, 0xc0u, 0x0cu, 0x3cu, 0x04u,
3315:.\Generated_Source\PSoC5/LED_Driver_Gear.c ****               /*--------------------------------------------------------*/
3316:.\Generated_Source\PSoC5/LED_Driver_Gear.c ****               /*  'H'    'I'    'J'    'K'    'L'    'M'    'N'    'O'  */
3317:.\Generated_Source\PSoC5/LED_Driver_Gear.c ****               /*--------------------------------------------------------*/
3318:.\Generated_Source\PSoC5/LED_Driver_Gear.c ****                  0x33u, 0xccu, 0x83u, 0x3fu, 0x0fu, 0x33u, 0x33u, 0x00u},
3319:.\Generated_Source\PSoC5/LED_Driver_Gear.c ****               /*--------------------------------------------------------*/
3320:.\Generated_Source\PSoC5/LED_Driver_Gear.c ****               /*  'P'    'Q'    'R'    'S'    'T'    'U'    'V'    'W'  */
3321:.\Generated_Source\PSoC5/LED_Driver_Gear.c ****               /*--------------------------------------------------------*/
3322:.\Generated_Source\PSoC5/LED_Driver_Gear.c ****                 {0x38u, 0x00u, 0x38u, 0x44u, 0xfcu, 0x03u, 0x3fu, 0x33u,
3323:.\Generated_Source\PSoC5/LED_Driver_Gear.c ****               /*--------------------------------------------------------*/
3324:.\Generated_Source\PSoC5/LED_Driver_Gear.c ****               /*  'X'    'Y'    'Z'    '['    '\'    ']'    '^'    '_'  */
3325:.\Generated_Source\PSoC5/LED_Driver_Gear.c ****               /*--------------------------------------------------------*/
3326:.\Generated_Source\PSoC5/LED_Driver_Gear.c ****                  0xffu, 0xffu, 0xccu, 0xffu, 0xffu, 0xffu, 0xffu, 0xcfu},
3327:.\Generated_Source\PSoC5/LED_Driver_Gear.c ****               /*--------------------------------------------------------*/
3328:.\Generated_Source\PSoC5/LED_Driver_Gear.c ****               /*  '`'    'a'    'b'    'c'    'd'    'e'    'f'    'g'  */
3329:.\Generated_Source\PSoC5/LED_Driver_Gear.c ****               /*--------------------------------------------------------*/
3330:.\Generated_Source\PSoC5/LED_Driver_Gear.c ****                 {0xffu, 0x8fu, 0x1fu, 0x9fu, 0x9fu, 0x9fu, 0xfdu, 0x5eu,
3331:.\Generated_Source\PSoC5/LED_Driver_Gear.c ****               /*--------------------------------------------------------*/
3332:.\Generated_Source\PSoC5/LED_Driver_Gear.c ****               /*  'h'    'i'    'j'    'k'    'l'    'm'    'n'    'o'  */
3333:.\Generated_Source\PSoC5/LED_Driver_Gear.c ****               /*--------------------------------------------------------*/
3334:.\Generated_Source\PSoC5/LED_Driver_Gear.c ****                  0x3fu, 0xffu, 0xdfu, 0xffu, 0xffu, 0xb7u, 0xf7u, 0x9fu},
3335:.\Generated_Source\PSoC5/LED_Driver_Gear.c ****               /*--------------------------------------------------------*/
3336:.\Generated_Source\PSoC5/LED_Driver_Gear.c ****               /*  'p'    'q'    'r'    's'    't'    'u'    'v'    'w'  */
3337:.\Generated_Source\PSoC5/LED_Driver_Gear.c ****               /*--------------------------------------------------------*/
3338:.\Generated_Source\PSoC5/LED_Driver_Gear.c ****                 {0x3eu, 0x6eu, 0xffu, 0xefu, 0xffu, 0x8fu, 0xbfu, 0x87u,
3339:.\Generated_Source\PSoC5/LED_Driver_Gear.c ****               /*--------------------------------------------------------*/
3340:.\Generated_Source\PSoC5/LED_Driver_Gear.c ****               /*  'x'    'y'    'z'    '{'    '|'    '}'    '~'   'DEL' */
3341:.\Generated_Source\PSoC5/LED_Driver_Gear.c ****               /*--------------------------------------------------------*/
3342:.\Generated_Source\PSoC5/LED_Driver_Gear.c ****                  0xffu, 0x5fu, 0xdfu, 0xffu, 0xffu, 0xffu, 0xffu, 0xffu}
3343:.\Generated_Source\PSoC5/LED_Driver_Gear.c ****               };
3344:.\Generated_Source\PSoC5/LED_Driver_Gear.c **** 
3345:.\Generated_Source\PSoC5/LED_Driver_Gear.c ****         /* 16-segment ASCII LUT for high byte */
3346:.\Generated_Source\PSoC5/LED_Driver_Gear.c ****         static const uint8 CYCODE LED_Driver_Gear_16SegASCIIHigh[6][16] =
3347:.\Generated_Source\PSoC5/LED_Driver_Gear.c ****               {
3348:.\Generated_Source\PSoC5/LED_Driver_Gear.c ****               /*--------------------------------------------------------*/
3349:.\Generated_Source\PSoC5/LED_Driver_Gear.c ****               /* 'Space' '!'    '"'    '#'    '$'    '%'    '&'    '''  */
3350:.\Generated_Source\PSoC5/LED_Driver_Gear.c ****               /*--------------------------------------------------------*/
3351:.\Generated_Source\PSoC5/LED_Driver_Gear.c ****                 {0xffu, 0xffu, 0xf7u, 0xffu, 0xffu, 0xffu, 0xffu, 0xffu,
3352:.\Generated_Source\PSoC5/LED_Driver_Gear.c ****               /*--------------------------------------------------------*/
3353:.\Generated_Source\PSoC5/LED_Driver_Gear.c ****               /*  '('    ')'    '*'    '+'    ','    '-'    '.'    '/'  */
3354:.\Generated_Source\PSoC5/LED_Driver_Gear.c ****               /*--------------------------------------------------------*/
3355:.\Generated_Source\PSoC5/LED_Driver_Gear.c ****                  0xcfu, 0x7bu, 0x00u, 0xffu, 0x7fu, 0xfcu, 0xffu, 0xffu},
3356:.\Generated_Source\PSoC5/LED_Driver_Gear.c ****               /*--------------------------------------------------------*/   
ARM GAS  C:\Users\charl\AppData\Local\Temp\ccxfbC9q.s 			page 115


3357:.\Generated_Source\PSoC5/LED_Driver_Gear.c ****               /*  '0'    '1'    '2'    '3'    '4'    '5'    '6'    '7'  */
3358:.\Generated_Source\PSoC5/LED_Driver_Gear.c ****               /*--------------------------------------------------------*/
3359:.\Generated_Source\PSoC5/LED_Driver_Gear.c ****                 {0x6fu, 0xffu, 0xfcu, 0xfcu, 0xfcu, 0xfcu, 0xfcu, 0xffu,
3360:.\Generated_Source\PSoC5/LED_Driver_Gear.c ****               /*--------------------------------------------------------*/
3361:.\Generated_Source\PSoC5/LED_Driver_Gear.c ****               /*  '8'    '9'    ':'    ';'    '<'    '='    '>'    '?'  */
3362:.\Generated_Source\PSoC5/LED_Driver_Gear.c ****               /*--------------------------------------------------------*/
3363:.\Generated_Source\PSoC5/LED_Driver_Gear.c ****                  0xfcu, 0xfcu, 0xffu, 0xffu, 0xffu, 0xfcu, 0xffu, 0xbdu},
3364:.\Generated_Source\PSoC5/LED_Driver_Gear.c ****               /*--------------------------------------------------------*/
3365:.\Generated_Source\PSoC5/LED_Driver_Gear.c ****               /*  '@'    'A'    'B'    'C'    'D'    'E'    'F'    'G'  */
3366:.\Generated_Source\PSoC5/LED_Driver_Gear.c ****               /*--------------------------------------------------------*/
3367:.\Generated_Source\PSoC5/LED_Driver_Gear.c ****                 {0xffu, 0xfcu, 0xb5u, 0xffu, 0xb7u, 0xfcu, 0xfcu, 0xfdu,
3368:.\Generated_Source\PSoC5/LED_Driver_Gear.c ****               /*--------------------------------------------------------*/
3369:.\Generated_Source\PSoC5/LED_Driver_Gear.c ****               /*  'H'    'I'    'J'    'K'    'L'    'M'    'N'    'O'  */
3370:.\Generated_Source\PSoC5/LED_Driver_Gear.c ****               /*--------------------------------------------------------*/
3371:.\Generated_Source\PSoC5/LED_Driver_Gear.c ****                  0xfcu, 0xb7u, 0xffu, 0xceu, 0xffu, 0xebu, 0xdbu, 0xffu},
3372:.\Generated_Source\PSoC5/LED_Driver_Gear.c ****               /*--------------------------------------------------------*/
3373:.\Generated_Source\PSoC5/LED_Driver_Gear.c ****               /*  'P'    'Q'    'R'    'S'    'T'    'U'    'V'    'W'  */
3374:.\Generated_Source\PSoC5/LED_Driver_Gear.c ****               /*--------------------------------------------------------*/
3375:.\Generated_Source\PSoC5/LED_Driver_Gear.c ****                 {0xfcu, 0xdfu, 0xdcu, 0xfcu, 0xb7u, 0xffu, 0x6fu, 0x5fu,
3376:.\Generated_Source\PSoC5/LED_Driver_Gear.c ****               /*--------------------------------------------------------*/
3377:.\Generated_Source\PSoC5/LED_Driver_Gear.c ****               /*  'X'    'Y'    'Z'    '['    '\'    ']'    '^'    '_'  */
3378:.\Generated_Source\PSoC5/LED_Driver_Gear.c ****               /*--------------------------------------------------------*/
3379:.\Generated_Source\PSoC5/LED_Driver_Gear.c ****                  0x4bu, 0xabu, 0x6fu, 0xffu, 0xffu, 0xffu, 0xffu, 0xffu},
3380:.\Generated_Source\PSoC5/LED_Driver_Gear.c ****               /*--------------------------------------------------------*/
3381:.\Generated_Source\PSoC5/LED_Driver_Gear.c ****               /*  '`'    'a'    'b'    'c'    'd'    'e'    'f'    'g'  */
3382:.\Generated_Source\PSoC5/LED_Driver_Gear.c ****               /*--------------------------------------------------------*/
3383:.\Generated_Source\PSoC5/LED_Driver_Gear.c ****                 {0xffu, 0xbeu, 0xbeu, 0xfeu, 0xb6u, 0x7eu, 0xb4u, 0xb6u,
3384:.\Generated_Source\PSoC5/LED_Driver_Gear.c ****               /*--------------------------------------------------------*/
3385:.\Generated_Source\PSoC5/LED_Driver_Gear.c ****               /*  'h'    'i'    'j'    'k'    'l'    'm'    'n'    'o'  */
3386:.\Generated_Source\PSoC5/LED_Driver_Gear.c ****               /*--------------------------------------------------------*/
3387:.\Generated_Source\PSoC5/LED_Driver_Gear.c ****                  0xbeu, 0xbfu, 0xb7u, 0x95u, 0xb7u, 0xbcu, 0xbcu, 0xbeu},
3388:.\Generated_Source\PSoC5/LED_Driver_Gear.c ****               /*--------------------------------------------------------*/
3389:.\Generated_Source\PSoC5/LED_Driver_Gear.c ****               /*  'p'    'q'    'r'    's'    't'    'u'    'v'    'w'  */
3390:.\Generated_Source\PSoC5/LED_Driver_Gear.c ****               /*--------------------------------------------------------*/
3391:.\Generated_Source\PSoC5/LED_Driver_Gear.c ****                 {0xf6u, 0xb6u, 0xbdu, 0xddu, 0xb4u, 0xbfu, 0x7fu, 0xbfu,
3392:.\Generated_Source\PSoC5/LED_Driver_Gear.c ****               /*--------------------------------------------------------*/
3393:.\Generated_Source\PSoC5/LED_Driver_Gear.c ****               /*  'x'    'y'    'z'    '{'    '|'    '}'    '~'   'DEL' */
3394:.\Generated_Source\PSoC5/LED_Driver_Gear.c ****               /*--------------------------------------------------------*/
3395:.\Generated_Source\PSoC5/LED_Driver_Gear.c ****                  0x4bu, 0xb6u, 0x7eu, 0xffu, 0xffu, 0xffu, 0xffu, 0xffu}
3396:.\Generated_Source\PSoC5/LED_Driver_Gear.c ****               };
3397:.\Generated_Source\PSoC5/LED_Driver_Gear.c ****     #endif /*  LED_Driver_Gear_SEG_DRIVE */
3398:.\Generated_Source\PSoC5/LED_Driver_Gear.c ****     
3399:.\Generated_Source\PSoC5/LED_Driver_Gear.c ****     uint8 valLow;
3400:.\Generated_Source\PSoC5/LED_Driver_Gear.c ****     uint8 valHigh;
3401:.\Generated_Source\PSoC5/LED_Driver_Gear.c ****     uint16 valHexLow;
3402:.\Generated_Source\PSoC5/LED_Driver_Gear.c ****     uint16 valHexHigh;
3403:.\Generated_Source\PSoC5/LED_Driver_Gear.c ****     uint16 valHex;
3404:.\Generated_Source\PSoC5/LED_Driver_Gear.c ****     
3405:.\Generated_Source\PSoC5/LED_Driver_Gear.c ****     valLow = (uint8)((uint8)input & LED_Driver_Gear_NIBBLE_MASK);
 2847              		.loc 1 3405 0
 2848 0000 00F00F02 		and	r2, r0, #15
 2849              	.LVL368:
3406:.\Generated_Source\PSoC5/LED_Driver_Gear.c ****     
3407:.\Generated_Source\PSoC5/LED_Driver_Gear.c ****     /* valHigh used to access the row of LUT */
3408:.\Generated_Source\PSoC5/LED_Driver_Gear.c ****     valHigh = (uint8)((uint8)input >> LED_Driver_Gear_SHIFT_NIBBLE);
 2850              		.loc 1 3408 0
 2851 0004 0009     		lsrs	r0, r0, #4
ARM GAS  C:\Users\charl\AppData\Local\Temp\ccxfbC9q.s 			page 116


 2852              	.LVL369:
3409:.\Generated_Source\PSoC5/LED_Driver_Gear.c ****     
3410:.\Generated_Source\PSoC5/LED_Driver_Gear.c ****     /* Check if the high nibble is within valid ASCII range */
3411:.\Generated_Source\PSoC5/LED_Driver_Gear.c ****     if ((valHigh > LED_Driver_Gear_SEG_ASCII_LIM_LO) && (valHigh < LED_Driver_Gear_SEG_ASCII_LIM_HI
 2853              		.loc 1 3411 0
 2854 0006 0238     		subs	r0, r0, #2
 2855              	.LVL370:
 2856 0008 C0B2     		uxtb	r0, r0
 2857              	.LVL371:
 2858 000a 0528     		cmp	r0, #5
 2859 000c 0AD8     		bhi	.L315
 2860              	.LVL372:
3412:.\Generated_Source\PSoC5/LED_Driver_Gear.c ****     {
3413:.\Generated_Source\PSoC5/LED_Driver_Gear.c ****         valHigh = valHigh - LED_Driver_Gear_SEG_ASCII_OFFSET;
3414:.\Generated_Source\PSoC5/LED_Driver_Gear.c ****         
3415:.\Generated_Source\PSoC5/LED_Driver_Gear.c ****         /* Get the 16-seg hex value from high and low byte LUTs */
3416:.\Generated_Source\PSoC5/LED_Driver_Gear.c ****         valHexHigh = (uint16)((uint16)LED_Driver_Gear_16SegASCIIHigh[valHigh][valLow] << LED_Driver
 2861              		.loc 1 3416 0
 2862 000e 064B     		ldr	r3, .L316
 2863 0010 03EB0010 		add	r0, r3, r0, lsl #4
 2864              	.LVL373:
 2865 0014 8318     		adds	r3, r0, r2
 2866 0016 93F87001 		ldrb	r0, [r3, #368]	@ zero_extendqisi2
 2867              	.LVL374:
3417:.\Generated_Source\PSoC5/LED_Driver_Gear.c ****         valHexLow = (uint16)LED_Driver_Gear_16SegASCIILow[valHigh][valLow];
 2868              		.loc 1 3417 0
 2869 001a 93F8D031 		ldrb	r3, [r3, #464]	@ zero_extendqisi2
 2870              	.LVL375:
3418:.\Generated_Source\PSoC5/LED_Driver_Gear.c ****         
3419:.\Generated_Source\PSoC5/LED_Driver_Gear.c ****         valHex = valHexHigh | valHexLow;
 2871              		.loc 1 3419 0
 2872 001e 43EA0020 		orr	r0, r3, r0, lsl #8
 2873              	.LVL376:
 2874 0022 7047     		bx	lr
 2875              	.LVL377:
 2876              	.L315:
3420:.\Generated_Source\PSoC5/LED_Driver_Gear.c ****     }
3421:.\Generated_Source\PSoC5/LED_Driver_Gear.c ****     else
3422:.\Generated_Source\PSoC5/LED_Driver_Gear.c ****     {
3423:.\Generated_Source\PSoC5/LED_Driver_Gear.c ****         valHex = LED_Driver_Gear_CLEAR_16;
 2877              		.loc 1 3423 0
 2878 0024 0020     		movs	r0, #0
 2879              	.LVL378:
3424:.\Generated_Source\PSoC5/LED_Driver_Gear.c ****     }
3425:.\Generated_Source\PSoC5/LED_Driver_Gear.c ****         
3426:.\Generated_Source\PSoC5/LED_Driver_Gear.c ****     return(valHex);
3427:.\Generated_Source\PSoC5/LED_Driver_Gear.c **** }
 2880              		.loc 1 3427 0
 2881 0026 7047     		bx	lr
 2882              	.L317:
 2883              		.align	2
 2884              	.L316:
 2885 0028 00000000 		.word	.LANCHOR2
 2886              		.cfi_endproc
 2887              	.LFE39:
 2888              		.size	LED_Driver_Gear_EncodeChar16Seg, .-LED_Driver_Gear_EncodeChar16Seg
 2889              		.section	.text.LED_Driver_Gear_Write16SegNumberDec,"ax",%progbits
ARM GAS  C:\Users\charl\AppData\Local\Temp\ccxfbC9q.s 			page 117


 2890              		.align	2
 2891              		.global	LED_Driver_Gear_Write16SegNumberDec
 2892              		.thumb
 2893              		.thumb_func
 2894              		.type	LED_Driver_Gear_Write16SegNumberDec, %function
 2895              	LED_Driver_Gear_Write16SegNumberDec:
 2896              	.LFB26:
1959:.\Generated_Source\PSoC5/LED_Driver_Gear.c ****     uint8 i;
 2897              		.loc 1 1959 0
 2898              		.cfi_startproc
 2899              		@ args = 0, pretend = 0, frame = 16
 2900              		@ frame_needed = 0, uses_anonymous_args = 0
 2901              	.LVL379:
 2902 0000 2DE9F043 		push	{r4, r5, r6, r7, r8, r9, lr}
 2903              		.cfi_def_cfa_offset 28
 2904              		.cfi_offset 4, -28
 2905              		.cfi_offset 5, -24
 2906              		.cfi_offset 6, -20
 2907              		.cfi_offset 7, -16
 2908              		.cfi_offset 8, -12
 2909              		.cfi_offset 9, -8
 2910              		.cfi_offset 14, -4
 2911 0004 85B0     		sub	sp, sp, #20
 2912              		.cfi_def_cfa_offset 48
 2913 0006 0D46     		mov	r5, r1
 2914 0008 1446     		mov	r4, r2
 2915 000a 1E46     		mov	r6, r3
 2916              	.LVL380:
1965:.\Generated_Source\PSoC5/LED_Driver_Gear.c ****     uint32 numberVal;
 2917              		.loc 1 1965 0
 2918 000c 0023     		movs	r3, #0
 2919              	.LVL381:
 2920 000e 0093     		str	r3, [sp]
 2921 0010 0193     		str	r3, [sp, #4]
 2922 0012 0293     		str	r3, [sp, #8]
 2923 0014 0393     		str	r3, [sp, #12]
1969:.\Generated_Source\PSoC5/LED_Driver_Gear.c ****     {
 2924              		.loc 1 1969 0
 2925 0016 0028     		cmp	r0, #0
 2926 0018 02DB     		blt	.L319
1971:.\Generated_Source\PSoC5/LED_Driver_Gear.c ****         numberSign = LED_Driver_Gear_UNSIGNED;
 2927              		.loc 1 1971 0
 2928 001a 0246     		mov	r2, r0
 2929              	.LVL382:
1972:.\Generated_Source\PSoC5/LED_Driver_Gear.c ****     }
 2930              		.loc 1 1972 0
 2931 001c 1F46     		mov	r7, r3
 2932 001e 01E0     		b	.L320
 2933              	.LVL383:
 2934              	.L319:
1976:.\Generated_Source\PSoC5/LED_Driver_Gear.c ****         numberSign = LED_Driver_Gear_SIGNED;
 2935              		.loc 1 1976 0
 2936 0020 4242     		negs	r2, r0
 2937              	.LVL384:
1977:.\Generated_Source\PSoC5/LED_Driver_Gear.c ****     }
 2938              		.loc 1 1977 0
 2939 0022 0127     		movs	r7, #1
ARM GAS  C:\Users\charl\AppData\Local\Temp\ccxfbC9q.s 			page 118


 2940              	.LVL385:
 2941              	.L320:
1981:.\Generated_Source\PSoC5/LED_Driver_Gear.c ****     {
 2942              		.loc 1 1981 0
 2943 0024 2346     		mov	r3, r4
 2944 0026 15E0     		b	.L321
 2945              	.LVL386:
 2946              	.L322:
1983:.\Generated_Source\PSoC5/LED_Driver_Gear.c ****         bufArray[i-1u] = LED_Driver_Gear_EncodeNumber16Seg(selectVal);
 2947              		.loc 1 1983 0 discriminator 3
 2948 0028 4048     		ldr	r0, .L342
 2949 002a A0FB0210 		umull	r1, r0, r0, r2
 2950 002e C008     		lsrs	r0, r0, #3
 2951 0030 8046     		mov	r8, r0
 2952 0032 00EB8000 		add	r0, r0, r0, lsl #2
 2953 0036 4000     		lsls	r0, r0, #1
 2954 0038 101A     		subs	r0, r2, r0
 2955              	.LVL387:
1984:.\Generated_Source\PSoC5/LED_Driver_Gear.c ****         numberVal = numberVal / 10u;
 2956              		.loc 1 1984 0 discriminator 3
 2957 003a 03F1FF39 		add	r9, r3, #-1
 2958 003e C0B2     		uxtb	r0, r0
 2959 0040 FFF7FEFF 		bl	LED_Driver_Gear_EncodeNumber16Seg
 2960              	.LVL388:
 2961 0044 04AB     		add	r3, sp, #16
 2962 0046 03EB4903 		add	r3, r3, r9, lsl #1
 2963 004a 23F8100C 		strh	r0, [r3, #-16]	@ movhi
1985:.\Generated_Source\PSoC5/LED_Driver_Gear.c ****     }
 2964              		.loc 1 1985 0 discriminator 3
 2965 004e 4246     		mov	r2, r8
 2966              	.LVL389:
1981:.\Generated_Source\PSoC5/LED_Driver_Gear.c ****     {
 2967              		.loc 1 1981 0 discriminator 3
 2968 0050 5FFA89F3 		uxtb	r3, r9
 2969              	.LVL390:
 2970              	.L321:
1981:.\Generated_Source\PSoC5/LED_Driver_Gear.c ****     {
 2971              		.loc 1 1981 0 is_stmt 0 discriminator 1
 2972 0054 002B     		cmp	r3, #0
 2973 0056 E7D1     		bne	.L322
1989:.\Generated_Source\PSoC5/LED_Driver_Gear.c ****     {
 2974              		.loc 1 1989 0 is_stmt 1
 2975 0058 022E     		cmp	r6, #2
 2976 005a 33D1     		bne	.L339
1991:.\Generated_Source\PSoC5/LED_Driver_Gear.c ****         {
 2977              		.loc 1 1991 0
 2978 005c B7B3     		cbz	r7, .L324
1994:.\Generated_Source\PSoC5/LED_Driver_Gear.c ****         }
 2979              		.loc 1 1994 0
 2980 005e 2D20     		movs	r0, #45
 2981 0060 FFF7FEFF 		bl	LED_Driver_Gear_EncodeChar16Seg
 2982              	.LVL391:
 2983 0064 ADF80000 		strh	r0, [sp]	@ movhi
 2984 0068 30E0     		b	.L324
 2985              	.LVL392:
 2986              	.L328:
2001:.\Generated_Source\PSoC5/LED_Driver_Gear.c ****             {
ARM GAS  C:\Users\charl\AppData\Local\Temp\ccxfbC9q.s 			page 119


 2987              		.loc 1 2001 0
 2988 006a 9846     		mov	r8, r3
 2989 006c 04A9     		add	r1, sp, #16
 2990 006e 01EB4301 		add	r1, r1, r3, lsl #1
 2991 0072 31F8100C 		ldrh	r0, [r1, #-16]
 2992 0076 49F2FF01 		movw	r1, #37119
 2993 007a 8842     		cmp	r0, r1
 2994 007c 14D0     		beq	.L325
2003:.\Generated_Source\PSoC5/LED_Driver_Gear.c ****                 {
 2995              		.loc 1 2003 0
 2996 007e 2FB3     		cbz	r7, .L324
2005:.\Generated_Source\PSoC5/LED_Driver_Gear.c ****                     {
 2997              		.loc 1 2005 0
 2998 0080 43B9     		cbnz	r3, .L326
2008:.\Generated_Source\PSoC5/LED_Driver_Gear.c ****                     }
 2999              		.loc 1 2008 0
 3000 0082 2D20     		movs	r0, #45
 3001 0084 FFF7FEFF 		bl	LED_Driver_Gear_EncodeChar16Seg
 3002              	.LVL393:
 3003 0088 04AB     		add	r3, sp, #16
 3004 008a 03EB4808 		add	r8, r3, r8, lsl #1
 3005 008e 28F8100C 		strh	r0, [r8, #-16]	@ movhi
 3006 0092 1BE0     		b	.L324
 3007              	.LVL394:
 3008              	.L326:
2013:.\Generated_Source\PSoC5/LED_Driver_Gear.c ****                     }
 3009              		.loc 1 2013 0
 3010 0094 5F1E     		subs	r7, r3, #1
 3011              	.LVL395:
 3012 0096 2D20     		movs	r0, #45
 3013 0098 FFF7FEFF 		bl	LED_Driver_Gear_EncodeChar16Seg
 3014              	.LVL396:
 3015 009c 04AB     		add	r3, sp, #16
 3016 009e 03EB4703 		add	r3, r3, r7, lsl #1
 3017 00a2 23F8100C 		strh	r0, [r3, #-16]	@ movhi
 3018 00a6 11E0     		b	.L324
 3019              	.LVL397:
 3020              	.L325:
2021:.\Generated_Source\PSoC5/LED_Driver_Gear.c ****                 {
 3021              		.loc 1 2021 0
 3022 00a8 611E     		subs	r1, r4, #1
 3023 00aa 8A42     		cmp	r2, r1
 3024 00ac 07D0     		beq	.L327
2024:.\Generated_Source\PSoC5/LED_Driver_Gear.c ****                     zeroCount++;
 3025              		.loc 1 2024 0
 3026 00ae 04A9     		add	r1, sp, #16
 3027 00b0 01EB4308 		add	r8, r1, r3, lsl #1
 3028 00b4 0021     		movs	r1, #0
 3029 00b6 28F8101C 		strh	r1, [r8, #-16]	@ movhi
2025:.\Generated_Source\PSoC5/LED_Driver_Gear.c ****                 }
 3030              		.loc 1 2025 0
 3031 00ba 0132     		adds	r2, r2, #1
 3032              	.LVL398:
 3033 00bc D2B2     		uxtb	r2, r2
 3034              	.LVL399:
 3035              	.L327:
1999:.\Generated_Source\PSoC5/LED_Driver_Gear.c ****         {
ARM GAS  C:\Users\charl\AppData\Local\Temp\ccxfbC9q.s 			page 120


 3036              		.loc 1 1999 0 discriminator 2
 3037 00be 0133     		adds	r3, r3, #1
 3038              	.LVL400:
 3039 00c0 DBB2     		uxtb	r3, r3
 3040              	.LVL401:
 3041 00c2 01E0     		b	.L323
 3042              	.LVL402:
 3043              	.L339:
 3044 00c4 0022     		movs	r2, #0
 3045              	.LVL403:
 3046 00c6 1346     		mov	r3, r2
 3047              	.LVL404:
 3048              	.L323:
1999:.\Generated_Source\PSoC5/LED_Driver_Gear.c ****         {
 3049              		.loc 1 1999 0 is_stmt 0 discriminator 1
 3050 00c8 A342     		cmp	r3, r4
 3051 00ca CED3     		bcc	.L328
 3052              	.LVL405:
 3053              	.L324:
2034:.\Generated_Source\PSoC5/LED_Driver_Gear.c ****     {
 3054              		.loc 1 2034 0 is_stmt 1
 3055 00cc 012E     		cmp	r6, #1
 3056 00ce 27D1     		bne	.L330
 3057 00d0 0DE0     		b	.L340
 3058              	.LVL406:
 3059              	.L333:
2038:.\Generated_Source\PSoC5/LED_Driver_Gear.c ****             {
 3060              		.loc 1 2038 0
 3061 00d2 04AA     		add	r2, sp, #16
 3062 00d4 02EB4302 		add	r2, r2, r3, lsl #1
 3063 00d8 32F8102C 		ldrh	r2, [r2, #-16]
 3064 00dc 22B1     		cbz	r2, .L331
2040:.\Generated_Source\PSoC5/LED_Driver_Gear.c ****                 {
 3065              		.loc 1 2040 0
 3066 00de 0DB9     		cbnz	r5, .L332
2043:.\Generated_Source\PSoC5/LED_Driver_Gear.c ****                 #if (LED_Driver_Gear_NUM_SEG > 8u)
 3067              		.loc 1 2043 0
 3068 00e0 1349     		ldr	r1, .L342+4
 3069 00e2 4A55     		strb	r2, [r1, r5]
 3070              	.L332:
2048:.\Generated_Source\PSoC5/LED_Driver_Gear.c ****             }
 3071              		.loc 1 2048 0
 3072 00e4 0135     		adds	r5, r5, #1
 3073              	.LVL407:
 3074 00e6 EDB2     		uxtb	r5, r5
 3075              	.LVL408:
 3076              	.L331:
2036:.\Generated_Source\PSoC5/LED_Driver_Gear.c ****         {
 3077              		.loc 1 2036 0 discriminator 2
 3078 00e8 0133     		adds	r3, r3, #1
 3079              	.LVL409:
 3080 00ea DBB2     		uxtb	r3, r3
 3081              	.LVL410:
 3082 00ec 00E0     		b	.L329
 3083              	.LVL411:
 3084              	.L340:
 3085 00ee 0023     		movs	r3, #0
ARM GAS  C:\Users\charl\AppData\Local\Temp\ccxfbC9q.s 			page 121


 3086              	.L329:
 3087              	.LVL412:
2036:.\Generated_Source\PSoC5/LED_Driver_Gear.c ****         {
 3088              		.loc 1 2036 0 is_stmt 0 discriminator 1
 3089 00f0 A342     		cmp	r3, r4
 3090 00f2 EED3     		bcc	.L333
 3091 00f4 04E0     		b	.L334
 3092              	.LVL413:
 3093              	.L335:
2055:.\Generated_Source\PSoC5/LED_Driver_Gear.c ****             #if (LED_Driver_Gear_NUM_SEG > 8u)
 3094              		.loc 1 2055 0 is_stmt 1
 3095 00f6 0022     		movs	r2, #0
 3096 00f8 0D4B     		ldr	r3, .L342+4
 3097 00fa 5A55     		strb	r2, [r3, r5]
2060:.\Generated_Source\PSoC5/LED_Driver_Gear.c ****         }
 3098              		.loc 1 2060 0
 3099 00fc 0135     		adds	r5, r5, #1
 3100              	.LVL414:
 3101 00fe EDB2     		uxtb	r5, r5
 3102              	.LVL415:
 3103              	.L334:
2052:.\Generated_Source\PSoC5/LED_Driver_Gear.c ****         {
 3104              		.loc 1 2052 0
 3105 0100 A542     		cmp	r5, r4
 3106 0102 F8D3     		bcc	.L335
 3107 0104 0EE0     		b	.L318
 3108              	.LVL416:
 3109              	.L338:
2067:.\Generated_Source\PSoC5/LED_Driver_Gear.c ****             {
 3110              		.loc 1 2067 0
 3111 0106 6319     		adds	r3, r4, r5
 3112 0108 012B     		cmp	r3, #1
 3113 010a 07D1     		bne	.L337
2069:.\Generated_Source\PSoC5/LED_Driver_Gear.c ****             #if (LED_Driver_Gear_NUM_SEG > 8u)
 3114              		.loc 1 2069 0
 3115 010c 013B     		subs	r3, r3, #1
 3116 010e 04AA     		add	r2, sp, #16
 3117 0110 02EB4402 		add	r2, r2, r4, lsl #1
 3118 0114 12F8121C 		ldrb	r1, [r2, #-18]	@ zero_extendqisi2
 3119 0118 054A     		ldr	r2, .L342+4
 3120 011a D154     		strb	r1, [r2, r3]
 3121              	.L337:
2065:.\Generated_Source\PSoC5/LED_Driver_Gear.c ****         {
 3122              		.loc 1 2065 0 discriminator 2
 3123 011c 013C     		subs	r4, r4, #1
 3124              	.LVL417:
 3125 011e E4B2     		uxtb	r4, r4
 3126              	.LVL418:
 3127              	.L330:
2065:.\Generated_Source\PSoC5/LED_Driver_Gear.c ****         {
 3128              		.loc 1 2065 0 is_stmt 0 discriminator 1
 3129 0120 002C     		cmp	r4, #0
 3130 0122 F0D1     		bne	.L338
 3131              	.LVL419:
 3132              	.L318:
2076:.\Generated_Source\PSoC5/LED_Driver_Gear.c **** 
 3133              		.loc 1 2076 0 is_stmt 1
ARM GAS  C:\Users\charl\AppData\Local\Temp\ccxfbC9q.s 			page 122


 3134 0124 05B0     		add	sp, sp, #20
 3135              		.cfi_def_cfa_offset 28
 3136              		@ sp needed
 3137 0126 BDE8F083 		pop	{r4, r5, r6, r7, r8, r9, pc}
 3138              	.LVL420:
 3139              	.L343:
 3140 012a 00BF     		.align	2
 3141              	.L342:
 3142 012c CDCCCCCC 		.word	-858993459
 3143 0130 00000000 		.word	LED_Driver_Gear_segLBuffer
 3144              		.cfi_endproc
 3145              	.LFE26:
 3146              		.size	LED_Driver_Gear_Write16SegNumberDec, .-LED_Driver_Gear_Write16SegNumberDec
 3147              		.section	.text.LED_Driver_Gear_WriteString16Seg,"ax",%progbits
 3148              		.align	2
 3149              		.global	LED_Driver_Gear_WriteString16Seg
 3150              		.thumb
 3151              		.thumb_func
 3152              		.type	LED_Driver_Gear_WriteString16Seg, %function
 3153              	LED_Driver_Gear_WriteString16Seg:
 3154              	.LFB28:
2215:.\Generated_Source\PSoC5/LED_Driver_Gear.c ****     uint8 currPosition;
 3155              		.loc 1 2215 0
 3156              		.cfi_startproc
 3157              		@ args = 0, pretend = 0, frame = 0
 3158              		@ frame_needed = 0, uses_anonymous_args = 0
 3159              	.LVL421:
 3160 0000 F8B5     		push	{r3, r4, r5, r6, r7, lr}
 3161              		.cfi_def_cfa_offset 24
 3162              		.cfi_offset 3, -24
 3163              		.cfi_offset 4, -20
 3164              		.cfi_offset 5, -16
 3165              		.cfi_offset 6, -12
 3166              		.cfi_offset 7, -8
 3167              		.cfi_offset 14, -4
 3168 0002 0746     		mov	r7, r0
 3169 0004 0C46     		mov	r4, r1
 3170              	.LVL422:
2221:.\Generated_Source\PSoC5/LED_Driver_Gear.c ****     
 3171              		.loc 1 2221 0
 3172 0006 FFF7FEFF 		bl	strlen
 3173              	.LVL423:
 3174 000a 2044     		add	r0, r0, r4
 3175 000c 00F0FF06 		and	r6, r0, #255
 3176              	.LVL424:
2218:.\Generated_Source\PSoC5/LED_Driver_Gear.c ****     uint16 charDisplay;
 3177              		.loc 1 2218 0
 3178 0010 0025     		movs	r5, #0
2223:.\Generated_Source\PSoC5/LED_Driver_Gear.c ****     {
 3179              		.loc 1 2223 0
 3180 0012 0AE0     		b	.L345
 3181              	.LVL425:
 3182              	.L347:
2225:.\Generated_Source\PSoC5/LED_Driver_Gear.c ****         {
 3183              		.loc 1 2225 0
 3184 0014 B442     		cmp	r4, r6
 3185 0016 06D2     		bcs	.L346
ARM GAS  C:\Users\charl\AppData\Local\Temp\ccxfbC9q.s 			page 123


2227:.\Generated_Source\PSoC5/LED_Driver_Gear.c ****             LED_Driver_Gear_segLBuffer[currPosition] = LO8(charDisplay);
 3186              		.loc 1 2227 0
 3187 0018 785D     		ldrb	r0, [r7, r5]	@ zero_extendqisi2
 3188 001a FFF7FEFF 		bl	LED_Driver_Gear_EncodeChar16Seg
 3189              	.LVL426:
2228:.\Generated_Source\PSoC5/LED_Driver_Gear.c ****             #if (LED_Driver_Gear_NUM_SEG > 8u)
 3190              		.loc 1 2228 0
 3191 001e 044B     		ldr	r3, .L349
 3192 0020 1855     		strb	r0, [r3, r4]
2232:.\Generated_Source\PSoC5/LED_Driver_Gear.c ****         }
 3193              		.loc 1 2232 0
 3194 0022 0135     		adds	r5, r5, #1
 3195              	.LVL427:
 3196 0024 EDB2     		uxtb	r5, r5
 3197              	.LVL428:
 3198              	.L346:
2223:.\Generated_Source\PSoC5/LED_Driver_Gear.c ****     {
 3199              		.loc 1 2223 0 discriminator 2
 3200 0026 0134     		adds	r4, r4, #1
 3201              	.LVL429:
 3202 0028 E4B2     		uxtb	r4, r4
 3203              	.LVL430:
 3204              	.L345:
2223:.\Generated_Source\PSoC5/LED_Driver_Gear.c ****     {
 3205              		.loc 1 2223 0 is_stmt 0 discriminator 1
 3206 002a 002C     		cmp	r4, #0
 3207 002c F2D0     		beq	.L347
2235:.\Generated_Source\PSoC5/LED_Driver_Gear.c **** 
 3208              		.loc 1 2235 0 is_stmt 1
 3209 002e F8BD     		pop	{r3, r4, r5, r6, r7, pc}
 3210              	.LVL431:
 3211              	.L350:
 3212              		.align	2
 3213              	.L349:
 3214 0030 00000000 		.word	LED_Driver_Gear_segLBuffer
 3215              		.cfi_endproc
 3216              	.LFE28:
 3217              		.size	LED_Driver_Gear_WriteString16Seg, .-LED_Driver_Gear_WriteString16Seg
 3218              		.section	.text.LED_Driver_Gear_PutChar16Seg,"ax",%progbits
 3219              		.align	2
 3220              		.global	LED_Driver_Gear_PutChar16Seg
 3221              		.thumb
 3222              		.thumb_func
 3223              		.type	LED_Driver_Gear_PutChar16Seg, %function
 3224              	LED_Driver_Gear_PutChar16Seg:
 3225              	.LFB29:
2259:.\Generated_Source\PSoC5/LED_Driver_Gear.c ****     uint16 charDisplay;
 3226              		.loc 1 2259 0
 3227              		.cfi_startproc
 3228              		@ args = 0, pretend = 0, frame = 0
 3229              		@ frame_needed = 0, uses_anonymous_args = 0
 3230              	.LVL432:
2262:.\Generated_Source\PSoC5/LED_Driver_Gear.c ****     {
 3231              		.loc 1 2262 0
 3232 0000 31B9     		cbnz	r1, .L354
2259:.\Generated_Source\PSoC5/LED_Driver_Gear.c ****     uint16 charDisplay;
 3233              		.loc 1 2259 0
ARM GAS  C:\Users\charl\AppData\Local\Temp\ccxfbC9q.s 			page 124


 3234 0002 10B5     		push	{r4, lr}
 3235              		.cfi_def_cfa_offset 8
 3236              		.cfi_offset 4, -8
 3237              		.cfi_offset 14, -4
 3238 0004 0C46     		mov	r4, r1
2264:.\Generated_Source\PSoC5/LED_Driver_Gear.c ****         LED_Driver_Gear_segLBuffer[position] = LO8(charDisplay);
 3239              		.loc 1 2264 0
 3240 0006 FFF7FEFF 		bl	LED_Driver_Gear_EncodeChar16Seg
 3241              	.LVL433:
2265:.\Generated_Source\PSoC5/LED_Driver_Gear.c ****         #if (LED_Driver_Gear_NUM_SEG > 8u)
 3242              		.loc 1 2265 0
 3243 000a 024B     		ldr	r3, .L355
 3244 000c 1855     		strb	r0, [r3, r4]
 3245 000e 10BD     		pop	{r4, pc}
 3246              	.LVL434:
 3247              	.L354:
 3248              		.cfi_def_cfa_offset 0
 3249              		.cfi_restore 4
 3250              		.cfi_restore 14
 3251 0010 7047     		bx	lr
 3252              	.L356:
 3253 0012 00BF     		.align	2
 3254              	.L355:
 3255 0014 00000000 		.word	LED_Driver_Gear_segLBuffer
 3256              		.cfi_endproc
 3257              	.LFE29:
 3258              		.size	LED_Driver_Gear_PutChar16Seg, .-LED_Driver_Gear_PutChar16Seg
 3259              		.section	.text.LED_Driver_Gear_SetBrightness,"ax",%progbits
 3260              		.align	2
 3261              		.global	LED_Driver_Gear_SetBrightness
 3262              		.thumb
 3263              		.thumb_func
 3264              		.type	LED_Driver_Gear_SetBrightness, %function
 3265              	LED_Driver_Gear_SetBrightness:
 3266              	.LFB40:
3428:.\Generated_Source\PSoC5/LED_Driver_Gear.c **** 
3429:.\Generated_Source\PSoC5/LED_Driver_Gear.c **** 
3430:.\Generated_Source\PSoC5/LED_Driver_Gear.c **** #if (LED_Driver_Gear_BRIGHTNESS_EN == LED_Driver_Gear_ENABLED)
3431:.\Generated_Source\PSoC5/LED_Driver_Gear.c **** 
3432:.\Generated_Source\PSoC5/LED_Driver_Gear.c **** 
3433:.\Generated_Source\PSoC5/LED_Driver_Gear.c **** /*******************************************************************************
3434:.\Generated_Source\PSoC5/LED_Driver_Gear.c **** * Function Name: LED_Driver_Gear_SetBrightness
3435:.\Generated_Source\PSoC5/LED_Driver_Gear.c **** ********************************************************************************
3436:.\Generated_Source\PSoC5/LED_Driver_Gear.c **** *
3437:.\Generated_Source\PSoC5/LED_Driver_Gear.c **** * Summary:
3438:.\Generated_Source\PSoC5/LED_Driver_Gear.c **** *  Sets the desired brightness value (0 = display off; 255 = display at full
3439:.\Generated_Source\PSoC5/LED_Driver_Gear.c **** *  brightness) for the chosen display by applying a PWM duty cycle to that
3440:.\Generated_Source\PSoC5/LED_Driver_Gear.c **** *  displays common when the display is active.
3441:.\Generated_Source\PSoC5/LED_Driver_Gear.c **** *
3442:.\Generated_Source\PSoC5/LED_Driver_Gear.c **** * Parameters:
3443:.\Generated_Source\PSoC5/LED_Driver_Gear.c **** *  uint8 bright: The brightness value by duty cycle, between 1 and 255.
3444:.\Generated_Source\PSoC5/LED_Driver_Gear.c **** *  uint8 position: The position in which to set the brightness.
3445:.\Generated_Source\PSoC5/LED_Driver_Gear.c **** *
3446:.\Generated_Source\PSoC5/LED_Driver_Gear.c **** * Return:
3447:.\Generated_Source\PSoC5/LED_Driver_Gear.c **** *  None
3448:.\Generated_Source\PSoC5/LED_Driver_Gear.c **** *
3449:.\Generated_Source\PSoC5/LED_Driver_Gear.c **** * Side effects:
ARM GAS  C:\Users\charl\AppData\Local\Temp\ccxfbC9q.s 			page 125


3450:.\Generated_Source\PSoC5/LED_Driver_Gear.c **** *  None
3451:.\Generated_Source\PSoC5/LED_Driver_Gear.c **** *
3452:.\Generated_Source\PSoC5/LED_Driver_Gear.c **** *******************************************************************************/
3453:.\Generated_Source\PSoC5/LED_Driver_Gear.c **** void LED_Driver_Gear_SetBrightness(uint8 bright, uint8 position)
3454:.\Generated_Source\PSoC5/LED_Driver_Gear.c **** 
3455:.\Generated_Source\PSoC5/LED_Driver_Gear.c **** {   
 3267              		.loc 1 3455 0
 3268              		.cfi_startproc
 3269              		@ args = 0, pretend = 0, frame = 0
 3270              		@ frame_needed = 0, uses_anonymous_args = 0
 3271              		@ link register save eliminated.
 3272              	.LVL435:
 3273 0000 10B4     		push	{r4}
 3274              		.cfi_def_cfa_offset 4
 3275              		.cfi_offset 4, -4
3456:.\Generated_Source\PSoC5/LED_Driver_Gear.c ****     #if(LED_Driver_Gear_COM_DRIVE == LED_Driver_Gear_HIGH)
3457:.\Generated_Source\PSoC5/LED_Driver_Gear.c ****         static const uint8 CYCODE LED_Driver_Gear_tempCom[16] = {0x00u, 0x01u, 0x00u, 0x02u, 0x00u,
3458:.\Generated_Source\PSoC5/LED_Driver_Gear.c ****                                                                   0x00u, 0x08u, 0x00u, 0x10u, 0x00u
3459:.\Generated_Source\PSoC5/LED_Driver_Gear.c ****                                                                   0x00u, 0x40u, 0x00u, 0x80u};
3460:.\Generated_Source\PSoC5/LED_Driver_Gear.c ****     #else
3461:.\Generated_Source\PSoC5/LED_Driver_Gear.c ****         static const uint8 CYCODE LED_Driver_Gear_tempCom[16] = {0xFFu, 0xFEu, 0xFFu, 0xFDu, 0xFFu,
3462:.\Generated_Source\PSoC5/LED_Driver_Gear.c ****                                                                   0xFFu, 0xF7u, 0xFFu, 0xEFu, 0xFFu
3463:.\Generated_Source\PSoC5/LED_Driver_Gear.c ****                                                                   0xFFu, 0xBFu, 0xFFu, 0x7Fu};
3464:.\Generated_Source\PSoC5/LED_Driver_Gear.c ****     #endif /* (LED_Driver_Gear_COM_DRIVE == LED_Driver_Gear_HIGH) */
3465:.\Generated_Source\PSoC5/LED_Driver_Gear.c ****     
3466:.\Generated_Source\PSoC5/LED_Driver_Gear.c ****     if(bright == 0u)
 3276              		.loc 1 3466 0
 3277 0002 0446     		mov	r4, r0
 3278 0004 28B9     		cbnz	r0, .L358
3467:.\Generated_Source\PSoC5/LED_Driver_Gear.c ****     {
3468:.\Generated_Source\PSoC5/LED_Driver_Gear.c ****         /* Turn off the commons */
3469:.\Generated_Source\PSoC5/LED_Driver_Gear.c ****         LED_Driver_Gear_comBuffer[(uint8)((uint8)position << 1u) + 1u] = LED_Driver_Gear_CLEAR;
 3279              		.loc 1 3469 0
 3280 0006 4B00     		lsls	r3, r1, #1
 3281 0008 DBB2     		uxtb	r3, r3
 3282 000a 0133     		adds	r3, r3, #1
 3283 000c 084A     		ldr	r2, .L361
 3284 000e D054     		strb	r0, [r2, r3]
 3285 0010 08E0     		b	.L359
 3286              	.L358:
3470:.\Generated_Source\PSoC5/LED_Driver_Gear.c ****     }
3471:.\Generated_Source\PSoC5/LED_Driver_Gear.c ****     else
3472:.\Generated_Source\PSoC5/LED_Driver_Gear.c ****     {
3473:.\Generated_Source\PSoC5/LED_Driver_Gear.c ****         /* Restore the commons */
3474:.\Generated_Source\PSoC5/LED_Driver_Gear.c ****         LED_Driver_Gear_comBuffer[(uint8)((uint8)position << 1u) + 1u]
3475:.\Generated_Source\PSoC5/LED_Driver_Gear.c ****             = LED_Driver_Gear_tempCom[(uint8)((uint8)position << 1u) + 1u];
 3287              		.loc 1 3475 0
 3288 0012 4B00     		lsls	r3, r1, #1
 3289 0014 DBB2     		uxtb	r3, r3
 3290 0016 0133     		adds	r3, r3, #1
 3291 0018 064A     		ldr	r2, .L361+4
 3292 001a 1A44     		add	r2, r2, r3
 3293 001c 92F83002 		ldrb	r0, [r2, #560]	@ zero_extendqisi2
 3294              	.LVL436:
 3295 0020 034A     		ldr	r2, .L361
 3296 0022 D054     		strb	r0, [r2, r3]
 3297              	.L359:
ARM GAS  C:\Users\charl\AppData\Local\Temp\ccxfbC9q.s 			page 126


3476:.\Generated_Source\PSoC5/LED_Driver_Gear.c ****     }
3477:.\Generated_Source\PSoC5/LED_Driver_Gear.c ****     
3478:.\Generated_Source\PSoC5/LED_Driver_Gear.c ****     /* Update the brightness register */
3479:.\Generated_Source\PSoC5/LED_Driver_Gear.c ****     LED_Driver_Gear_brightnessReg[position] = bright;
 3298              		.loc 1 3479 0
 3299 0024 044B     		ldr	r3, .L361+8
 3300 0026 1944     		add	r1, r1, r3
 3301              	.LVL437:
 3302 0028 0C73     		strb	r4, [r1, #12]
3480:.\Generated_Source\PSoC5/LED_Driver_Gear.c **** }
 3303              		.loc 1 3480 0
 3304 002a 5DF8044B 		ldr	r4, [sp], #4
 3305              		.cfi_restore 4
 3306              		.cfi_def_cfa_offset 0
 3307 002e 7047     		bx	lr
 3308              	.L362:
 3309              		.align	2
 3310              	.L361:
 3311 0030 00000000 		.word	.LANCHOR1
 3312 0034 00000000 		.word	.LANCHOR2
 3313 0038 00000000 		.word	.LANCHOR0
 3314              		.cfi_endproc
 3315              	.LFE40:
 3316              		.size	LED_Driver_Gear_SetBrightness, .-LED_Driver_Gear_SetBrightness
 3317              		.section	.text.LED_Driver_Gear_GetBrightness,"ax",%progbits
 3318              		.align	2
 3319              		.global	LED_Driver_Gear_GetBrightness
 3320              		.thumb
 3321              		.thumb_func
 3322              		.type	LED_Driver_Gear_GetBrightness, %function
 3323              	LED_Driver_Gear_GetBrightness:
 3324              	.LFB41:
3481:.\Generated_Source\PSoC5/LED_Driver_Gear.c **** 
3482:.\Generated_Source\PSoC5/LED_Driver_Gear.c **** 
3483:.\Generated_Source\PSoC5/LED_Driver_Gear.c **** /*******************************************************************************
3484:.\Generated_Source\PSoC5/LED_Driver_Gear.c **** * Function Name: LED_Driver_Gear_GetBrightness
3485:.\Generated_Source\PSoC5/LED_Driver_Gear.c **** ********************************************************************************
3486:.\Generated_Source\PSoC5/LED_Driver_Gear.c **** *
3487:.\Generated_Source\PSoC5/LED_Driver_Gear.c **** * Summary:
3488:.\Generated_Source\PSoC5/LED_Driver_Gear.c **** *  Returns the brightness value for the specific display location.
3489:.\Generated_Source\PSoC5/LED_Driver_Gear.c **** *
3490:.\Generated_Source\PSoC5/LED_Driver_Gear.c **** * Parameters:
3491:.\Generated_Source\PSoC5/LED_Driver_Gear.c **** *  uint8 position: Position in which to return the brightness value.
3492:.\Generated_Source\PSoC5/LED_Driver_Gear.c **** *
3493:.\Generated_Source\PSoC5/LED_Driver_Gear.c **** * Return:
3494:.\Generated_Source\PSoC5/LED_Driver_Gear.c **** *  None
3495:.\Generated_Source\PSoC5/LED_Driver_Gear.c **** *
3496:.\Generated_Source\PSoC5/LED_Driver_Gear.c **** * Side effects:
3497:.\Generated_Source\PSoC5/LED_Driver_Gear.c **** *  None
3498:.\Generated_Source\PSoC5/LED_Driver_Gear.c **** *
3499:.\Generated_Source\PSoC5/LED_Driver_Gear.c **** *******************************************************************************/
3500:.\Generated_Source\PSoC5/LED_Driver_Gear.c **** uint8 LED_Driver_Gear_GetBrightness(uint8 position) 
3501:.\Generated_Source\PSoC5/LED_Driver_Gear.c **** {
 3325              		.loc 1 3501 0
 3326              		.cfi_startproc
 3327              		@ args = 0, pretend = 0, frame = 0
 3328              		@ frame_needed = 0, uses_anonymous_args = 0
ARM GAS  C:\Users\charl\AppData\Local\Temp\ccxfbC9q.s 			page 127


 3329              		@ link register save eliminated.
 3330              	.LVL438:
3502:.\Generated_Source\PSoC5/LED_Driver_Gear.c ****     return(LED_Driver_Gear_brightnessReg[position]);
 3331              		.loc 1 3502 0
 3332 0000 014B     		ldr	r3, .L364
 3333 0002 1844     		add	r0, r0, r3
 3334              	.LVL439:
3503:.\Generated_Source\PSoC5/LED_Driver_Gear.c **** }
 3335              		.loc 1 3503 0
 3336 0004 007B     		ldrb	r0, [r0, #12]	@ zero_extendqisi2
 3337 0006 7047     		bx	lr
 3338              	.L365:
 3339              		.align	2
 3340              	.L364:
 3341 0008 00000000 		.word	.LANCHOR0
 3342              		.cfi_endproc
 3343              	.LFE41:
 3344              		.size	LED_Driver_Gear_GetBrightness, .-LED_Driver_Gear_GetBrightness
 3345              		.global	LED_Driver_Gear_enableVar
 3346              		.global	LED_Driver_Gear_initVar
 3347              		.comm	LED_Driver_Gear_segLBuffer,1,4
 3348              		.section	.rodata
 3349              		.align	2
 3350              		.set	.LANCHOR2,. + 0
 3351              		.type	LED_Driver_Gear_7SegDigits.5468, %object
 3352              		.size	LED_Driver_Gear_7SegDigits.5468, 16
 3353              	LED_Driver_Gear_7SegDigits.5468:
 3354 0000 3F       		.byte	63
 3355 0001 06       		.byte	6
 3356 0002 5B       		.byte	91
 3357 0003 4F       		.byte	79
 3358 0004 66       		.byte	102
 3359 0005 6D       		.byte	109
 3360 0006 7D       		.byte	125
 3361 0007 07       		.byte	7
 3362 0008 7F       		.byte	127
 3363 0009 6F       		.byte	111
 3364 000a 77       		.byte	119
 3365 000b 7C       		.byte	124
 3366 000c 39       		.byte	57
 3367 000d 5E       		.byte	94
 3368 000e 79       		.byte	121
 3369 000f 71       		.byte	113
 3370              		.type	LED_Driver_Gear_7SegASCII.5474, %object
 3371              		.size	LED_Driver_Gear_7SegASCII.5474, 96
 3372              	LED_Driver_Gear_7SegASCII.5474:
 3373 0010 00       		.byte	0
 3374 0011 00       		.byte	0
 3375 0012 00       		.byte	0
 3376 0013 00       		.byte	0
 3377 0014 00       		.byte	0
 3378 0015 00       		.byte	0
 3379 0016 00       		.byte	0
 3380 0017 00       		.byte	0
 3381 0018 00       		.byte	0
 3382 0019 00       		.byte	0
 3383 001a 00       		.byte	0
ARM GAS  C:\Users\charl\AppData\Local\Temp\ccxfbC9q.s 			page 128


 3384 001b 00       		.byte	0
 3385 001c 00       		.byte	0
 3386 001d 40       		.byte	64
 3387 001e 80       		.byte	-128
 3388 001f 00       		.byte	0
 3389 0020 3F       		.byte	63
 3390 0021 06       		.byte	6
 3391 0022 5B       		.byte	91
 3392 0023 4F       		.byte	79
 3393 0024 66       		.byte	102
 3394 0025 6D       		.byte	109
 3395 0026 7D       		.byte	125
 3396 0027 07       		.byte	7
 3397 0028 7F       		.byte	127
 3398 0029 6F       		.byte	111
 3399 002a 00       		.byte	0
 3400 002b 00       		.byte	0
 3401 002c 00       		.byte	0
 3402 002d 48       		.byte	72
 3403 002e 00       		.byte	0
 3404 002f 00       		.byte	0
 3405 0030 00       		.byte	0
 3406 0031 77       		.byte	119
 3407 0032 7C       		.byte	124
 3408 0033 58       		.byte	88
 3409 0034 5E       		.byte	94
 3410 0035 79       		.byte	121
 3411 0036 71       		.byte	113
 3412 0037 3D       		.byte	61
 3413 0038 74       		.byte	116
 3414 0039 10       		.byte	16
 3415 003a 1E       		.byte	30
 3416 003b 76       		.byte	118
 3417 003c 38       		.byte	56
 3418 003d 55       		.byte	85
 3419 003e 54       		.byte	84
 3420 003f 5C       		.byte	92
 3421 0040 73       		.byte	115
 3422 0041 67       		.byte	103
 3423 0042 50       		.byte	80
 3424 0043 6D       		.byte	109
 3425 0044 78       		.byte	120
 3426 0045 1C       		.byte	28
 3427 0046 1C       		.byte	28
 3428 0047 1D       		.byte	29
 3429 0048 76       		.byte	118
 3430 0049 6E       		.byte	110
 3431 004a 5B       		.byte	91
 3432 004b 00       		.byte	0
 3433 004c 00       		.byte	0
 3434 004d 00       		.byte	0
 3435 004e 00       		.byte	0
 3436 004f 08       		.byte	8
 3437 0050 00       		.byte	0
 3438 0051 77       		.byte	119
 3439 0052 7C       		.byte	124
 3440 0053 58       		.byte	88
ARM GAS  C:\Users\charl\AppData\Local\Temp\ccxfbC9q.s 			page 129


 3441 0054 5E       		.byte	94
 3442 0055 79       		.byte	121
 3443 0056 71       		.byte	113
 3444 0057 3D       		.byte	61
 3445 0058 74       		.byte	116
 3446 0059 10       		.byte	16
 3447 005a 1E       		.byte	30
 3448 005b 76       		.byte	118
 3449 005c 38       		.byte	56
 3450 005d 55       		.byte	85
 3451 005e 54       		.byte	84
 3452 005f 5C       		.byte	92
 3453 0060 73       		.byte	115
 3454 0061 67       		.byte	103
 3455 0062 50       		.byte	80
 3456 0063 6D       		.byte	109
 3457 0064 78       		.byte	120
 3458 0065 1C       		.byte	28
 3459 0066 1C       		.byte	28
 3460 0067 1D       		.byte	29
 3461 0068 76       		.byte	118
 3462 0069 6E       		.byte	110
 3463 006a 5B       		.byte	91
 3464 006b 00       		.byte	0
 3465 006c 00       		.byte	0
 3466 006d 00       		.byte	0
 3467 006e 00       		.byte	0
 3468 006f 00       		.byte	0
 3469              		.type	LED_Driver_Gear_14SegDigitsHigh.5482, %object
 3470              		.size	LED_Driver_Gear_14SegDigitsHigh.5482, 16
 3471              	LED_Driver_Gear_14SegDigitsHigh.5482:
 3472 0070 24       		.byte	36
 3473 0071 00       		.byte	0
 3474 0072 00       		.byte	0
 3475 0073 00       		.byte	0
 3476 0074 00       		.byte	0
 3477 0075 00       		.byte	0
 3478 0076 00       		.byte	0
 3479 0077 00       		.byte	0
 3480 0078 00       		.byte	0
 3481 0079 00       		.byte	0
 3482 007a 00       		.byte	0
 3483 007b 12       		.byte	18
 3484 007c 00       		.byte	0
 3485 007d 12       		.byte	18
 3486 007e 00       		.byte	0
 3487 007f 00       		.byte	0
 3488              		.type	LED_Driver_Gear_14SegDigitsLow.5481, %object
 3489              		.size	LED_Driver_Gear_14SegDigitsLow.5481, 16
 3490              	LED_Driver_Gear_14SegDigitsLow.5481:
 3491 0080 3F       		.byte	63
 3492 0081 06       		.byte	6
 3493 0082 DB       		.byte	-37
 3494 0083 CF       		.byte	-49
 3495 0084 E6       		.byte	-26
 3496 0085 ED       		.byte	-19
 3497 0086 FD       		.byte	-3
ARM GAS  C:\Users\charl\AppData\Local\Temp\ccxfbC9q.s 			page 130


 3498 0087 07       		.byte	7
 3499 0088 FF       		.byte	-1
 3500 0089 EF       		.byte	-17
 3501 008a F7       		.byte	-9
 3502 008b 8F       		.byte	-113
 3503 008c 39       		.byte	57
 3504 008d 0F       		.byte	15
 3505 008e F9       		.byte	-7
 3506 008f F1       		.byte	-15
 3507              		.type	LED_Driver_Gear_14SegASCIIHigh.5491, %object
 3508              		.size	LED_Driver_Gear_14SegASCIIHigh.5491, 96
 3509              	LED_Driver_Gear_14SegASCIIHigh.5491:
 3510 0090 00       		.byte	0
 3511 0091 00       		.byte	0
 3512 0092 02       		.byte	2
 3513 0093 00       		.byte	0
 3514 0094 00       		.byte	0
 3515 0095 00       		.byte	0
 3516 0096 00       		.byte	0
 3517 0097 00       		.byte	0
 3518 0098 0C       		.byte	12
 3519 0099 21       		.byte	33
 3520 009a 3F       		.byte	63
 3521 009b 00       		.byte	0
 3522 009c 20       		.byte	32
 3523 009d 00       		.byte	0
 3524 009e 00       		.byte	0
 3525 009f 00       		.byte	0
 3526 00a0 24       		.byte	36
 3527 00a1 00       		.byte	0
 3528 00a2 00       		.byte	0
 3529 00a3 00       		.byte	0
 3530 00a4 00       		.byte	0
 3531 00a5 00       		.byte	0
 3532 00a6 00       		.byte	0
 3533 00a7 00       		.byte	0
 3534 00a8 00       		.byte	0
 3535 00a9 00       		.byte	0
 3536 00aa 00       		.byte	0
 3537 00ab 00       		.byte	0
 3538 00ac 00       		.byte	0
 3539 00ad 00       		.byte	0
 3540 00ae 00       		.byte	0
 3541 00af 10       		.byte	16
 3542 00b0 00       		.byte	0
 3543 00b1 00       		.byte	0
 3544 00b2 12       		.byte	18
 3545 00b3 00       		.byte	0
 3546 00b4 12       		.byte	18
 3547 00b5 00       		.byte	0
 3548 00b6 00       		.byte	0
 3549 00b7 00       		.byte	0
 3550 00b8 00       		.byte	0
 3551 00b9 12       		.byte	18
 3552 00ba 00       		.byte	0
 3553 00bb 0C       		.byte	12
 3554 00bc 00       		.byte	0
ARM GAS  C:\Users\charl\AppData\Local\Temp\ccxfbC9q.s 			page 131


 3555 00bd 05       		.byte	5
 3556 00be 09       		.byte	9
 3557 00bf 00       		.byte	0
 3558 00c0 00       		.byte	0
 3559 00c1 08       		.byte	8
 3560 00c2 08       		.byte	8
 3561 00c3 00       		.byte	0
 3562 00c4 12       		.byte	18
 3563 00c5 00       		.byte	0
 3564 00c6 24       		.byte	36
 3565 00c7 28       		.byte	40
 3566 00c8 2D       		.byte	45
 3567 00c9 15       		.byte	21
 3568 00ca 24       		.byte	36
 3569 00cb 00       		.byte	0
 3570 00cc 00       		.byte	0
 3571 00cd 00       		.byte	0
 3572 00ce 00       		.byte	0
 3573 00cf 00       		.byte	0
 3574 00d0 00       		.byte	0
 3575 00d1 00       		.byte	0
 3576 00d2 00       		.byte	0
 3577 00d3 00       		.byte	0
 3578 00d4 00       		.byte	0
 3579 00d5 00       		.byte	0
 3580 00d6 00       		.byte	0
 3581 00d7 00       		.byte	0
 3582 00d8 00       		.byte	0
 3583 00d9 10       		.byte	16
 3584 00da 00       		.byte	0
 3585 00db 0C       		.byte	12
 3586 00dc 12       		.byte	18
 3587 00dd 10       		.byte	16
 3588 00de 00       		.byte	0
 3589 00df 00       		.byte	0
 3590 00e0 00       		.byte	0
 3591 00e1 08       		.byte	8
 3592 00e2 00       		.byte	0
 3593 00e3 00       		.byte	0
 3594 00e4 12       		.byte	18
 3595 00e5 00       		.byte	0
 3596 00e6 20       		.byte	32
 3597 00e7 10       		.byte	16
 3598 00e8 2D       		.byte	45
 3599 00e9 15       		.byte	21
 3600 00ea 24       		.byte	36
 3601 00eb 00       		.byte	0
 3602 00ec 00       		.byte	0
 3603 00ed 00       		.byte	0
 3604 00ee 00       		.byte	0
 3605 00ef 00       		.byte	0
 3606              		.type	LED_Driver_Gear_14SegASCIILow.5490, %object
 3607              		.size	LED_Driver_Gear_14SegASCIILow.5490, 96
 3608              	LED_Driver_Gear_14SegASCIILow.5490:
 3609 00f0 00       		.byte	0
 3610 00f1 30       		.byte	48
 3611 00f2 20       		.byte	32
ARM GAS  C:\Users\charl\AppData\Local\Temp\ccxfbC9q.s 			page 132


 3612 00f3 00       		.byte	0
 3613 00f4 00       		.byte	0
 3614 00f5 00       		.byte	0
 3615 00f6 00       		.byte	0
 3616 00f7 20       		.byte	32
 3617 00f8 00       		.byte	0
 3618 00f9 00       		.byte	0
 3619 00fa C0       		.byte	-64
 3620 00fb 00       		.byte	0
 3621 00fc 00       		.byte	0
 3622 00fd C0       		.byte	-64
 3623 00fe 00       		.byte	0
 3624 00ff 00       		.byte	0
 3625 0100 3F       		.byte	63
 3626 0101 06       		.byte	6
 3627 0102 DB       		.byte	-37
 3628 0103 CF       		.byte	-49
 3629 0104 E6       		.byte	-26
 3630 0105 ED       		.byte	-19
 3631 0106 FD       		.byte	-3
 3632 0107 07       		.byte	7
 3633 0108 FF       		.byte	-1
 3634 0109 EF       		.byte	-17
 3635 010a 00       		.byte	0
 3636 010b 00       		.byte	0
 3637 010c 00       		.byte	0
 3638 010d C8       		.byte	-56
 3639 010e 00       		.byte	0
 3640 010f 83       		.byte	-125
 3641 0110 00       		.byte	0
 3642 0111 F7       		.byte	-9
 3643 0112 8F       		.byte	-113
 3644 0113 39       		.byte	57
 3645 0114 0F       		.byte	15
 3646 0115 F9       		.byte	-7
 3647 0116 F1       		.byte	-15
 3648 0117 BD       		.byte	-67
 3649 0118 F6       		.byte	-10
 3650 0119 09       		.byte	9
 3651 011a 1E       		.byte	30
 3652 011b 70       		.byte	112
 3653 011c 38       		.byte	56
 3654 011d 36       		.byte	54
 3655 011e 36       		.byte	54
 3656 011f 3F       		.byte	63
 3657 0120 F3       		.byte	-13
 3658 0121 3F       		.byte	63
 3659 0122 F3       		.byte	-13
 3660 0123 ED       		.byte	-19
 3661 0124 01       		.byte	1
 3662 0125 3E       		.byte	62
 3663 0126 30       		.byte	48
 3664 0127 36       		.byte	54
 3665 0128 00       		.byte	0
 3666 0129 00       		.byte	0
 3667 012a 09       		.byte	9
 3668 012b 00       		.byte	0
ARM GAS  C:\Users\charl\AppData\Local\Temp\ccxfbC9q.s 			page 133


 3669 012c 00       		.byte	0
 3670 012d 00       		.byte	0
 3671 012e 00       		.byte	0
 3672 012f 08       		.byte	8
 3673 0130 00       		.byte	0
 3674 0131 F7       		.byte	-9
 3675 0132 FC       		.byte	-4
 3676 0133 D8       		.byte	-40
 3677 0134 DE       		.byte	-34
 3678 0135 F9       		.byte	-7
 3679 0136 F1       		.byte	-15
 3680 0137 EF       		.byte	-17
 3681 0138 F4       		.byte	-12
 3682 0139 00       		.byte	0
 3683 013a 1E       		.byte	30
 3684 013b 70       		.byte	112
 3685 013c 00       		.byte	0
 3686 013d D4       		.byte	-44
 3687 013e D4       		.byte	-44
 3688 013f DC       		.byte	-36
 3689 0140 F3       		.byte	-13
 3690 0141 3F       		.byte	63
 3691 0142 D0       		.byte	-48
 3692 0143 ED       		.byte	-19
 3693 0144 C0       		.byte	-64
 3694 0145 1C       		.byte	28
 3695 0146 10       		.byte	16
 3696 0147 1C       		.byte	28
 3697 0148 00       		.byte	0
 3698 0149 00       		.byte	0
 3699 014a 09       		.byte	9
 3700 014b 00       		.byte	0
 3701 014c 00       		.byte	0
 3702 014d 00       		.byte	0
 3703 014e 00       		.byte	0
 3704 014f 00       		.byte	0
 3705              		.type	LED_Driver_Gear_16SegDigitsHigh.5501, %object
 3706              		.size	LED_Driver_Gear_16SegDigitsHigh.5501, 16
 3707              	LED_Driver_Gear_16SegDigitsHigh.5501:
 3708 0150 90       		.byte	-112
 3709 0151 00       		.byte	0
 3710 0152 03       		.byte	3
 3711 0153 03       		.byte	3
 3712 0154 03       		.byte	3
 3713 0155 03       		.byte	3
 3714 0156 03       		.byte	3
 3715 0157 00       		.byte	0
 3716 0158 03       		.byte	3
 3717 0159 03       		.byte	3
 3718 015a 03       		.byte	3
 3719 015b 4A       		.byte	74
 3720 015c 00       		.byte	0
 3721 015d 48       		.byte	72
 3722 015e 03       		.byte	3
 3723 015f 03       		.byte	3
 3724              		.type	LED_Driver_Gear_16SegDigitsLow.5500, %object
 3725              		.size	LED_Driver_Gear_16SegDigitsLow.5500, 16
ARM GAS  C:\Users\charl\AppData\Local\Temp\ccxfbC9q.s 			page 134


 3726              	LED_Driver_Gear_16SegDigitsLow.5500:
 3727 0160 FF       		.byte	-1
 3728 0161 0C       		.byte	12
 3729 0162 77       		.byte	119
 3730 0163 3F       		.byte	63
 3731 0164 8C       		.byte	-116
 3732 0165 BB       		.byte	-69
 3733 0166 FB       		.byte	-5
 3734 0167 0F       		.byte	15
 3735 0168 FF       		.byte	-1
 3736 0169 8F       		.byte	-113
 3737 016a CF       		.byte	-49
 3738 016b 3F       		.byte	63
 3739 016c F3       		.byte	-13
 3740 016d 3F       		.byte	63
 3741 016e F3       		.byte	-13
 3742 016f C3       		.byte	-61
 3743              		.type	LED_Driver_Gear_16SegASCIIHigh.5510, %object
 3744              		.size	LED_Driver_Gear_16SegASCIIHigh.5510, 96
 3745              	LED_Driver_Gear_16SegASCIIHigh.5510:
 3746 0170 00       		.byte	0
 3747 0171 00       		.byte	0
 3748 0172 08       		.byte	8
 3749 0173 00       		.byte	0
 3750 0174 00       		.byte	0
 3751 0175 00       		.byte	0
 3752 0176 00       		.byte	0
 3753 0177 00       		.byte	0
 3754 0178 30       		.byte	48
 3755 0179 84       		.byte	-124
 3756 017a FF       		.byte	-1
 3757 017b 00       		.byte	0
 3758 017c 80       		.byte	-128
 3759 017d 03       		.byte	3
 3760 017e 00       		.byte	0
 3761 017f 00       		.byte	0
 3762 0180 90       		.byte	-112
 3763 0181 00       		.byte	0
 3764 0182 03       		.byte	3
 3765 0183 03       		.byte	3
 3766 0184 03       		.byte	3
 3767 0185 03       		.byte	3
 3768 0186 03       		.byte	3
 3769 0187 00       		.byte	0
 3770 0188 03       		.byte	3
 3771 0189 03       		.byte	3
 3772 018a 00       		.byte	0
 3773 018b 00       		.byte	0
 3774 018c 00       		.byte	0
 3775 018d 03       		.byte	3
 3776 018e 00       		.byte	0
 3777 018f 42       		.byte	66
 3778 0190 00       		.byte	0
 3779 0191 03       		.byte	3
 3780 0192 4A       		.byte	74
 3781 0193 00       		.byte	0
 3782 0194 48       		.byte	72
ARM GAS  C:\Users\charl\AppData\Local\Temp\ccxfbC9q.s 			page 135


 3783 0195 03       		.byte	3
 3784 0196 03       		.byte	3
 3785 0197 02       		.byte	2
 3786 0198 03       		.byte	3
 3787 0199 48       		.byte	72
 3788 019a 00       		.byte	0
 3789 019b 31       		.byte	49
 3790 019c 00       		.byte	0
 3791 019d 14       		.byte	20
 3792 019e 24       		.byte	36
 3793 019f 00       		.byte	0
 3794 01a0 03       		.byte	3
 3795 01a1 20       		.byte	32
 3796 01a2 23       		.byte	35
 3797 01a3 03       		.byte	3
 3798 01a4 48       		.byte	72
 3799 01a5 00       		.byte	0
 3800 01a6 90       		.byte	-112
 3801 01a7 A0       		.byte	-96
 3802 01a8 B4       		.byte	-76
 3803 01a9 54       		.byte	84
 3804 01aa 90       		.byte	-112
 3805 01ab 00       		.byte	0
 3806 01ac 00       		.byte	0
 3807 01ad 00       		.byte	0
 3808 01ae 00       		.byte	0
 3809 01af 00       		.byte	0
 3810 01b0 00       		.byte	0
 3811 01b1 41       		.byte	65
 3812 01b2 41       		.byte	65
 3813 01b3 01       		.byte	1
 3814 01b4 49       		.byte	73
 3815 01b5 81       		.byte	-127
 3816 01b6 4B       		.byte	75
 3817 01b7 49       		.byte	73
 3818 01b8 41       		.byte	65
 3819 01b9 40       		.byte	64
 3820 01ba 48       		.byte	72
 3821 01bb 6A       		.byte	106
 3822 01bc 48       		.byte	72
 3823 01bd 43       		.byte	67
 3824 01be 43       		.byte	67
 3825 01bf 41       		.byte	65
 3826 01c0 09       		.byte	9
 3827 01c1 49       		.byte	73
 3828 01c2 42       		.byte	66
 3829 01c3 22       		.byte	34
 3830 01c4 4B       		.byte	75
 3831 01c5 40       		.byte	64
 3832 01c6 80       		.byte	-128
 3833 01c7 40       		.byte	64
 3834 01c8 B4       		.byte	-76
 3835 01c9 49       		.byte	73
 3836 01ca 81       		.byte	-127
 3837 01cb 00       		.byte	0
 3838 01cc 00       		.byte	0
 3839 01cd 00       		.byte	0
ARM GAS  C:\Users\charl\AppData\Local\Temp\ccxfbC9q.s 			page 136


 3840 01ce 00       		.byte	0
 3841 01cf 00       		.byte	0
 3842              		.type	LED_Driver_Gear_16SegASCIILow.5509, %object
 3843              		.size	LED_Driver_Gear_16SegASCIILow.5509, 96
 3844              	LED_Driver_Gear_16SegASCIILow.5509:
 3845 01d0 00       		.byte	0
 3846 01d1 C0       		.byte	-64
 3847 01d2 80       		.byte	-128
 3848 01d3 00       		.byte	0
 3849 01d4 00       		.byte	0
 3850 01d5 00       		.byte	0
 3851 01d6 00       		.byte	0
 3852 01d7 80       		.byte	-128
 3853 01d8 00       		.byte	0
 3854 01d9 00       		.byte	0
 3855 01da 00       		.byte	0
 3856 01db 00       		.byte	0
 3857 01dc 00       		.byte	0
 3858 01dd 00       		.byte	0
 3859 01de 00       		.byte	0
 3860 01df 00       		.byte	0
 3861 01e0 FF       		.byte	-1
 3862 01e1 0C       		.byte	12
 3863 01e2 77       		.byte	119
 3864 01e3 3F       		.byte	63
 3865 01e4 8C       		.byte	-116
 3866 01e5 BB       		.byte	-69
 3867 01e6 FB       		.byte	-5
 3868 01e7 0F       		.byte	15
 3869 01e8 FF       		.byte	-1
 3870 01e9 8F       		.byte	-113
 3871 01ea 00       		.byte	0
 3872 01eb 00       		.byte	0
 3873 01ec 00       		.byte	0
 3874 01ed 30       		.byte	48
 3875 01ee 00       		.byte	0
 3876 01ef 07       		.byte	7
 3877 01f0 00       		.byte	0
 3878 01f1 CF       		.byte	-49
 3879 01f2 3F       		.byte	63
 3880 01f3 F3       		.byte	-13
 3881 01f4 3F       		.byte	63
 3882 01f5 F3       		.byte	-13
 3883 01f6 C3       		.byte	-61
 3884 01f7 FB       		.byte	-5
 3885 01f8 CC       		.byte	-52
 3886 01f9 33       		.byte	51
 3887 01fa 7C       		.byte	124
 3888 01fb C0       		.byte	-64
 3889 01fc F0       		.byte	-16
 3890 01fd CC       		.byte	-52
 3891 01fe CC       		.byte	-52
 3892 01ff FF       		.byte	-1
 3893 0200 C7       		.byte	-57
 3894 0201 FF       		.byte	-1
 3895 0202 C7       		.byte	-57
 3896 0203 BB       		.byte	-69
ARM GAS  C:\Users\charl\AppData\Local\Temp\ccxfbC9q.s 			page 137


 3897 0204 03       		.byte	3
 3898 0205 FC       		.byte	-4
 3899 0206 C0       		.byte	-64
 3900 0207 CC       		.byte	-52
 3901 0208 00       		.byte	0
 3902 0209 00       		.byte	0
 3903 020a 33       		.byte	51
 3904 020b 00       		.byte	0
 3905 020c 00       		.byte	0
 3906 020d 00       		.byte	0
 3907 020e 00       		.byte	0
 3908 020f 30       		.byte	48
 3909 0210 00       		.byte	0
 3910 0211 70       		.byte	112
 3911 0212 E0       		.byte	-32
 3912 0213 60       		.byte	96
 3913 0214 60       		.byte	96
 3914 0215 60       		.byte	96
 3915 0216 02       		.byte	2
 3916 0217 A1       		.byte	-95
 3917 0218 C0       		.byte	-64
 3918 0219 00       		.byte	0
 3919 021a 20       		.byte	32
 3920 021b 00       		.byte	0
 3921 021c 00       		.byte	0
 3922 021d 48       		.byte	72
 3923 021e 08       		.byte	8
 3924 021f 60       		.byte	96
 3925 0220 C1       		.byte	-63
 3926 0221 91       		.byte	-111
 3927 0222 00       		.byte	0
 3928 0223 10       		.byte	16
 3929 0224 00       		.byte	0
 3930 0225 70       		.byte	112
 3931 0226 40       		.byte	64
 3932 0227 78       		.byte	120
 3933 0228 00       		.byte	0
 3934 0229 A0       		.byte	-96
 3935 022a 20       		.byte	32
 3936 022b 00       		.byte	0
 3937 022c 00       		.byte	0
 3938 022d 00       		.byte	0
 3939 022e 00       		.byte	0
 3940 022f 00       		.byte	0
 3941              		.type	LED_Driver_Gear_tempCom.5520, %object
 3942              		.size	LED_Driver_Gear_tempCom.5520, 16
 3943              	LED_Driver_Gear_tempCom.5520:
 3944 0230 FF       		.byte	-1
 3945 0231 FE       		.byte	-2
 3946 0232 FF       		.byte	-1
 3947 0233 FD       		.byte	-3
 3948 0234 FF       		.byte	-1
 3949 0235 FB       		.byte	-5
 3950 0236 FF       		.byte	-1
 3951 0237 F7       		.byte	-9
 3952 0238 FF       		.byte	-1
 3953 0239 EF       		.byte	-17
ARM GAS  C:\Users\charl\AppData\Local\Temp\ccxfbC9q.s 			page 138


 3954 023a FF       		.byte	-1
 3955 023b DF       		.byte	-33
 3956 023c FF       		.byte	-1
 3957 023d BF       		.byte	-65
 3958 023e FF       		.byte	-1
 3959 023f 7F       		.byte	127
 3960              		.data
 3961              		.align	2
 3962              		.set	.LANCHOR1,. + 0
 3963              		.type	LED_Driver_Gear_comBuffer, %object
 3964              		.size	LED_Driver_Gear_comBuffer, 16
 3965              	LED_Driver_Gear_comBuffer:
 3966 0000 FF       		.byte	-1
 3967 0001 FE       		.byte	-2
 3968 0002 FF       		.byte	-1
 3969 0003 FD       		.byte	-3
 3970 0004 FF       		.byte	-1
 3971 0005 FB       		.byte	-5
 3972 0006 FF       		.byte	-1
 3973 0007 F7       		.byte	-9
 3974 0008 FF       		.byte	-1
 3975 0009 EF       		.byte	-17
 3976 000a FF       		.byte	-1
 3977 000b DF       		.byte	-33
 3978 000c FF       		.byte	-1
 3979 000d BF       		.byte	-65
 3980 000e FF       		.byte	-1
 3981 000f 7F       		.byte	127
 3982              		.bss
 3983              		.align	2
 3984              		.set	.LANCHOR0,. + 0
 3985              		.type	LED_Driver_Gear_dmaComChannel, %object
 3986              		.size	LED_Driver_Gear_dmaComChannel, 1
 3987              	LED_Driver_Gear_dmaComChannel:
 3988 0000 00       		.space	1
 3989 0001 000000   		.space	3
 3990              		.type	LED_Driver_Gear_dmaComTd, %object
 3991              		.size	LED_Driver_Gear_dmaComTd, 2
 3992              	LED_Driver_Gear_dmaComTd:
 3993 0004 0000     		.space	2
 3994              		.type	LED_Driver_Gear_dmaSegChannel, %object
 3995              		.size	LED_Driver_Gear_dmaSegChannel, 1
 3996              	LED_Driver_Gear_dmaSegChannel:
 3997 0006 00       		.space	1
 3998 0007 00       		.space	1
 3999              		.type	LED_Driver_Gear_dmaSegLTd, %object
 4000              		.size	LED_Driver_Gear_dmaSegLTd, 1
 4001              	LED_Driver_Gear_dmaSegLTd:
 4002 0008 00       		.space	1
 4003              		.type	LED_Driver_Gear_dmaBCChannel, %object
 4004              		.size	LED_Driver_Gear_dmaBCChannel, 1
 4005              	LED_Driver_Gear_dmaBCChannel:
 4006 0009 00       		.space	1
 4007              		.type	LED_Driver_Gear_dmaBCTd, %object
 4008              		.size	LED_Driver_Gear_dmaBCTd, 1
 4009              	LED_Driver_Gear_dmaBCTd:
 4010 000a 00       		.space	1
ARM GAS  C:\Users\charl\AppData\Local\Temp\ccxfbC9q.s 			page 139


 4011 000b 00       		.space	1
 4012              		.type	LED_Driver_Gear_brightnessReg, %object
 4013              		.size	LED_Driver_Gear_brightnessReg, 1
 4014              	LED_Driver_Gear_brightnessReg:
 4015 000c 00       		.space	1
 4016              		.type	LED_Driver_Gear_enableVar, %object
 4017              		.size	LED_Driver_Gear_enableVar, 1
 4018              	LED_Driver_Gear_enableVar:
 4019 000d 00       		.space	1
 4020              		.type	LED_Driver_Gear_dmaInitDone.5128, %object
 4021              		.size	LED_Driver_Gear_dmaInitDone.5128, 1
 4022              	LED_Driver_Gear_dmaInitDone.5128:
 4023 000e 00       		.space	1
 4024              		.type	LED_Driver_Gear_initVar, %object
 4025              		.size	LED_Driver_Gear_initVar, 1
 4026              	LED_Driver_Gear_initVar:
 4027 000f 00       		.space	1
 4028              		.text
 4029              	.Letext0:
 4030              		.file 2 "Generated_Source\\PSoC5/cytypes.h"
 4031              		.file 3 "c:\\program files (x86)\\cypress\\psoc creator\\3.3\\psoc creator\\import\\gnu\\arm\\4.9.
 4032              		.file 4 "Generated_Source\\PSoC5/CYDMAC.H"
 4033              		.file 5 "Generated_Source\\PSoC5/LED_Driver_Gear_DMA_Com_dma.h"
 4034              		.file 6 "Generated_Source\\PSoC5/LED_Driver_Gear_DMA_Seg_dma.h"
 4035              		.file 7 "Generated_Source\\PSoC5/LED_Driver_Gear_DMA_BC_dma.h"
 4036              		.file 8 "Generated_Source\\PSoC5/LED_Driver_Gear_Com_Driver.h"
 4037              		.file 9 "c:\\program files (x86)\\cypress\\psoc creator\\3.3\\psoc creator\\import\\gnu\\arm\\4.9.
 4038              		.section	.debug_info,"",%progbits
 4039              	.Ldebug_info0:
 4040 0000 4E170000 		.4byte	0x174e
 4041 0004 0400     		.2byte	0x4
 4042 0006 00000000 		.4byte	.Ldebug_abbrev0
 4043 000a 04       		.byte	0x4
 4044 000b 01       		.uleb128 0x1
 4045 000c C9090000 		.4byte	.LASF135
 4046 0010 01       		.byte	0x1
 4047 0011 0D020000 		.4byte	.LASF136
 4048 0015 DE040000 		.4byte	.LASF137
 4049 0019 00000000 		.4byte	.Ldebug_ranges0+0
 4050 001d 00000000 		.4byte	0
 4051 0021 00000000 		.4byte	.Ldebug_line0
 4052 0025 02       		.uleb128 0x2
 4053 0026 01       		.byte	0x1
 4054 0027 06       		.byte	0x6
 4055 0028 E50A0000 		.4byte	.LASF0
 4056 002c 02       		.uleb128 0x2
 4057 002d 01       		.byte	0x1
 4058 002e 08       		.byte	0x8
 4059 002f BB090000 		.4byte	.LASF1
 4060 0033 02       		.uleb128 0x2
 4061 0034 02       		.byte	0x2
 4062 0035 05       		.byte	0x5
 4063 0036 EB070000 		.4byte	.LASF2
 4064 003a 02       		.uleb128 0x2
 4065 003b 02       		.byte	0x2
 4066 003c 07       		.byte	0x7
 4067 003d 230B0000 		.4byte	.LASF3
ARM GAS  C:\Users\charl\AppData\Local\Temp\ccxfbC9q.s 			page 140


 4068 0041 02       		.uleb128 0x2
 4069 0042 04       		.byte	0x4
 4070 0043 05       		.byte	0x5
 4071 0044 39080000 		.4byte	.LASF4
 4072 0048 02       		.uleb128 0x2
 4073 0049 04       		.byte	0x4
 4074 004a 07       		.byte	0x7
 4075 004b 3B090000 		.4byte	.LASF5
 4076 004f 02       		.uleb128 0x2
 4077 0050 08       		.byte	0x8
 4078 0051 05       		.byte	0x5
 4079 0052 07060000 		.4byte	.LASF6
 4080 0056 02       		.uleb128 0x2
 4081 0057 08       		.byte	0x8
 4082 0058 07       		.byte	0x7
 4083 0059 F6010000 		.4byte	.LASF7
 4084 005d 03       		.uleb128 0x3
 4085 005e 04       		.byte	0x4
 4086 005f 05       		.byte	0x5
 4087 0060 696E7400 		.ascii	"int\000"
 4088 0064 02       		.uleb128 0x2
 4089 0065 04       		.byte	0x4
 4090 0066 07       		.byte	0x7
 4091 0067 85000000 		.4byte	.LASF8
 4092 006b 04       		.uleb128 0x4
 4093 006c 920B0000 		.4byte	.LASF9
 4094 0070 02       		.byte	0x2
 4095 0071 9201     		.2byte	0x192
 4096 0073 2C000000 		.4byte	0x2c
 4097 0077 04       		.uleb128 0x4
 4098 0078 95050000 		.4byte	.LASF10
 4099 007c 02       		.byte	0x2
 4100 007d 9301     		.2byte	0x193
 4101 007f 3A000000 		.4byte	0x3a
 4102 0083 04       		.uleb128 0x4
 4103 0084 2D070000 		.4byte	.LASF11
 4104 0088 02       		.byte	0x2
 4105 0089 9401     		.2byte	0x194
 4106 008b 48000000 		.4byte	0x48
 4107 008f 04       		.uleb128 0x4
 4108 0090 D3010000 		.4byte	.LASF12
 4109 0094 02       		.byte	0x2
 4110 0095 9701     		.2byte	0x197
 4111 0097 41000000 		.4byte	0x41
 4112 009b 02       		.uleb128 0x2
 4113 009c 04       		.byte	0x4
 4114 009d 04       		.byte	0x4
 4115 009e AC010000 		.4byte	.LASF13
 4116 00a2 02       		.uleb128 0x2
 4117 00a3 08       		.byte	0x8
 4118 00a4 04       		.byte	0x4
 4119 00a5 980B0000 		.4byte	.LASF14
 4120 00a9 04       		.uleb128 0x4
 4121 00aa B0050000 		.4byte	.LASF15
 4122 00ae 02       		.byte	0x2
 4123 00af A301     		.2byte	0x1a3
 4124 00b1 B5000000 		.4byte	0xb5
ARM GAS  C:\Users\charl\AppData\Local\Temp\ccxfbC9q.s 			page 141


 4125 00b5 02       		.uleb128 0x2
 4126 00b6 01       		.byte	0x1
 4127 00b7 08       		.byte	0x8
 4128 00b8 BB040000 		.4byte	.LASF16
 4129 00bc 04       		.uleb128 0x4
 4130 00bd 94090000 		.4byte	.LASF17
 4131 00c1 02       		.byte	0x2
 4132 00c2 3402     		.2byte	0x234
 4133 00c4 48000000 		.4byte	0x48
 4134 00c8 04       		.uleb128 0x4
 4135 00c9 F8000000 		.4byte	.LASF18
 4136 00cd 02       		.byte	0x2
 4137 00ce 3C02     		.2byte	0x23c
 4138 00d0 D4000000 		.4byte	0xd4
 4139 00d4 05       		.uleb128 0x5
 4140 00d5 6B000000 		.4byte	0x6b
 4141 00d9 06       		.uleb128 0x6
 4142 00da 6B000000 		.4byte	0x6b
 4143 00de E9000000 		.4byte	0xe9
 4144 00e2 07       		.uleb128 0x7
 4145 00e3 E9000000 		.4byte	0xe9
 4146 00e7 00       		.byte	0
 4147 00e8 00       		.byte	0
 4148 00e9 02       		.uleb128 0x2
 4149 00ea 04       		.byte	0x4
 4150 00eb 07       		.byte	0x7
 4151 00ec 32090000 		.4byte	.LASF19
 4152 00f0 08       		.uleb128 0x8
 4153 00f1 29030000 		.4byte	.LASF20
 4154 00f5 03       		.byte	0x3
 4155 00f6 D4       		.byte	0xd4
 4156 00f7 64000000 		.4byte	0x64
 4157 00fb 09       		.uleb128 0x9
 4158 00fc 04       		.byte	0x4
 4159 00fd 01010000 		.4byte	0x101
 4160 0101 0A       		.uleb128 0xa
 4161 0102 B5000000 		.4byte	0xb5
 4162 0106 0B       		.uleb128 0xb
 4163 0107 F10A0000 		.4byte	.LASF138
 4164 010b 10       		.byte	0x10
 4165 010c 04       		.byte	0x4
 4166 010d 47       		.byte	0x47
 4167 010e 43010000 		.4byte	0x143
 4168 0112 0C       		.uleb128 0xc
 4169 0113 A6050000 		.4byte	.LASF21
 4170 0117 04       		.byte	0x4
 4171 0118 49       		.byte	0x49
 4172 0119 53010000 		.4byte	0x153
 4173 011d 00       		.byte	0
 4174 011e 0C       		.uleb128 0xc
 4175 011f A1080000 		.4byte	.LASF22
 4176 0123 04       		.byte	0x4
 4177 0124 4A       		.byte	0x4a
 4178 0125 58010000 		.4byte	0x158
 4179 0129 04       		.byte	0x4
 4180 012a 0C       		.uleb128 0xc
 4181 012b 45000000 		.4byte	.LASF23
ARM GAS  C:\Users\charl\AppData\Local\Temp\ccxfbC9q.s 			page 142


 4182 012f 04       		.byte	0x4
 4183 0130 4B       		.byte	0x4b
 4184 0131 5D010000 		.4byte	0x15d
 4185 0135 08       		.byte	0x8
 4186 0136 0C       		.uleb128 0xc
 4187 0137 690B0000 		.4byte	.LASF24
 4188 013b 04       		.byte	0x4
 4189 013c 4C       		.byte	0x4c
 4190 013d 62010000 		.4byte	0x162
 4191 0141 0C       		.byte	0xc
 4192 0142 00       		.byte	0
 4193 0143 06       		.uleb128 0x6
 4194 0144 6B000000 		.4byte	0x6b
 4195 0148 53010000 		.4byte	0x153
 4196 014c 07       		.uleb128 0x7
 4197 014d E9000000 		.4byte	0xe9
 4198 0151 03       		.byte	0x3
 4199 0152 00       		.byte	0
 4200 0153 05       		.uleb128 0x5
 4201 0154 43010000 		.4byte	0x143
 4202 0158 05       		.uleb128 0x5
 4203 0159 43010000 		.4byte	0x143
 4204 015d 05       		.uleb128 0x5
 4205 015e 43010000 		.4byte	0x143
 4206 0162 05       		.uleb128 0x5
 4207 0163 43010000 		.4byte	0x143
 4208 0167 08       		.uleb128 0x8
 4209 0168 760A0000 		.4byte	.LASF25
 4210 016c 04       		.byte	0x4
 4211 016d 4E       		.byte	0x4e
 4212 016e 06010000 		.4byte	0x106
 4213 0172 0D       		.uleb128 0xd
 4214 0173 D60B0000 		.4byte	.LASF26
 4215 0177 01       		.byte	0x1
 4216 0178 58       		.byte	0x58
 4217 0179 00000000 		.4byte	.LFB0
 4218 017d 3C010000 		.4byte	.LFE0-.LFB0
 4219 0181 01       		.uleb128 0x1
 4220 0182 9C       		.byte	0x9c
 4221 0183 F3020000 		.4byte	0x2f3
 4222 0187 0E       		.uleb128 0xe
 4223 0188 6900     		.ascii	"i\000"
 4224 018a 01       		.byte	0x1
 4225 018b 5A       		.byte	0x5a
 4226 018c 6B000000 		.4byte	0x6b
 4227 0190 00000000 		.4byte	.LLST0
 4228 0194 0F       		.uleb128 0xf
 4229 0195 12000000 		.4byte	.LVL0
 4230 0199 12160000 		.4byte	0x1612
 4231 019d BA010000 		.4byte	0x1ba
 4232 01a1 10       		.uleb128 0x10
 4233 01a2 01       		.uleb128 0x1
 4234 01a3 53       		.byte	0x53
 4235 01a4 03       		.uleb128 0x3
 4236 01a5 0A       		.byte	0xa
 4237 01a6 0040     		.2byte	0x4000
 4238 01a8 10       		.uleb128 0x10
ARM GAS  C:\Users\charl\AppData\Local\Temp\ccxfbC9q.s 			page 143


 4239 01a9 01       		.uleb128 0x1
 4240 01aa 52       		.byte	0x52
 4241 01ab 03       		.uleb128 0x3
 4242 01ac 0A       		.byte	0xa
 4243 01ad FF1F     		.2byte	0x1fff
 4244 01af 10       		.uleb128 0x10
 4245 01b0 01       		.uleb128 0x1
 4246 01b1 51       		.byte	0x51
 4247 01b2 01       		.uleb128 0x1
 4248 01b3 31       		.byte	0x31
 4249 01b4 10       		.uleb128 0x10
 4250 01b5 01       		.uleb128 0x1
 4251 01b6 50       		.byte	0x50
 4252 01b7 01       		.uleb128 0x1
 4253 01b8 31       		.byte	0x31
 4254 01b9 00       		.byte	0
 4255 01ba 11       		.uleb128 0x11
 4256 01bb 20000000 		.4byte	.LVL2
 4257 01bf 36160000 		.4byte	0x1636
 4258 01c3 0F       		.uleb128 0xf
 4259 01c4 4C000000 		.4byte	.LVL9
 4260 01c8 41160000 		.4byte	0x1641
 4261 01cc DB010000 		.4byte	0x1db
 4262 01d0 10       		.uleb128 0x10
 4263 01d1 01       		.uleb128 0x1
 4264 01d2 53       		.byte	0x53
 4265 01d3 01       		.uleb128 0x1
 4266 01d4 31       		.byte	0x31
 4267 01d5 10       		.uleb128 0x10
 4268 01d6 01       		.uleb128 0x1
 4269 01d7 51       		.byte	0x51
 4270 01d8 01       		.uleb128 0x1
 4271 01d9 31       		.byte	0x31
 4272 01da 00       		.byte	0
 4273 01db 0F       		.uleb128 0xf
 4274 01dc 5E000000 		.4byte	.LVL10
 4275 01e0 41160000 		.4byte	0x1641
 4276 01e4 F3010000 		.4byte	0x1f3
 4277 01e8 10       		.uleb128 0x10
 4278 01e9 01       		.uleb128 0x1
 4279 01ea 53       		.byte	0x53
 4280 01eb 01       		.uleb128 0x1
 4281 01ec 31       		.byte	0x31
 4282 01ed 10       		.uleb128 0x10
 4283 01ee 01       		.uleb128 0x1
 4284 01ef 51       		.byte	0x51
 4285 01f0 01       		.uleb128 0x1
 4286 01f1 31       		.byte	0x31
 4287 01f2 00       		.byte	0
 4288 01f3 0F       		.uleb128 0xf
 4289 01f4 74000000 		.4byte	.LVL13
 4290 01f8 41160000 		.4byte	0x1641
 4291 01fc 0B020000 		.4byte	0x20b
 4292 0200 10       		.uleb128 0x10
 4293 0201 01       		.uleb128 0x1
 4294 0202 53       		.byte	0x53
 4295 0203 01       		.uleb128 0x1
ARM GAS  C:\Users\charl\AppData\Local\Temp\ccxfbC9q.s 			page 144


 4296 0204 31       		.byte	0x31
 4297 0205 10       		.uleb128 0x10
 4298 0206 01       		.uleb128 0x1
 4299 0207 51       		.byte	0x51
 4300 0208 01       		.uleb128 0x1
 4301 0209 31       		.byte	0x31
 4302 020a 00       		.byte	0
 4303 020b 0F       		.uleb128 0xf
 4304 020c 8C000000 		.4byte	.LVL15
 4305 0210 65160000 		.4byte	0x1665
 4306 0214 2C020000 		.4byte	0x22c
 4307 0218 10       		.uleb128 0x10
 4308 0219 01       		.uleb128 0x1
 4309 021a 52       		.byte	0x52
 4310 021b 03       		.uleb128 0x3
 4311 021c 0A       		.byte	0xa
 4312 021d 7B64     		.2byte	0x647b
 4313 021f 10       		.uleb128 0x10
 4314 0220 01       		.uleb128 0x1
 4315 0221 51       		.byte	0x51
 4316 0222 08       		.uleb128 0x8
 4317 0223 74       		.byte	0x74
 4318 0224 00       		.sleb128 0
 4319 0225 03       		.byte	0x3
 4320 0226 00000000 		.4byte	.LANCHOR1
 4321 022a 22       		.byte	0x22
 4322 022b 00       		.byte	0
 4323 022c 0F       		.uleb128 0xf
 4324 022d A4000000 		.4byte	.LVL19
 4325 0231 84160000 		.4byte	0x1684
 4326 0235 52020000 		.4byte	0x252
 4327 0239 10       		.uleb128 0x10
 4328 023a 01       		.uleb128 0x1
 4329 023b 53       		.byte	0x53
 4330 023c 03       		.uleb128 0x3
 4331 023d 0A       		.byte	0xa
 4332 023e 0040     		.2byte	0x4000
 4333 0240 10       		.uleb128 0x10
 4334 0241 01       		.uleb128 0x1
 4335 0242 52       		.byte	0x52
 4336 0243 03       		.uleb128 0x3
 4337 0244 0A       		.byte	0xa
 4338 0245 FF1F     		.2byte	0x1fff
 4339 0247 10       		.uleb128 0x10
 4340 0248 01       		.uleb128 0x1
 4341 0249 51       		.byte	0x51
 4342 024a 01       		.uleb128 0x1
 4343 024b 31       		.byte	0x31
 4344 024c 10       		.uleb128 0x10
 4345 024d 01       		.uleb128 0x1
 4346 024e 50       		.byte	0x50
 4347 024f 01       		.uleb128 0x1
 4348 0250 31       		.byte	0x31
 4349 0251 00       		.byte	0
 4350 0252 11       		.uleb128 0x11
 4351 0253 B2000000 		.4byte	.LVL21
 4352 0257 36160000 		.4byte	0x1636
ARM GAS  C:\Users\charl\AppData\Local\Temp\ccxfbC9q.s 			page 145


 4353 025b 0F       		.uleb128 0xf
 4354 025c D2000000 		.4byte	.LVL27
 4355 0260 41160000 		.4byte	0x1641
 4356 0264 73020000 		.4byte	0x273
 4357 0268 10       		.uleb128 0x10
 4358 0269 01       		.uleb128 0x1
 4359 026a 53       		.byte	0x53
 4360 026b 01       		.uleb128 0x1
 4361 026c 35       		.byte	0x35
 4362 026d 10       		.uleb128 0x10
 4363 026e 01       		.uleb128 0x1
 4364 026f 51       		.byte	0x51
 4365 0270 01       		.uleb128 0x1
 4366 0271 31       		.byte	0x31
 4367 0272 00       		.byte	0
 4368 0273 0F       		.uleb128 0xf
 4369 0274 EA000000 		.4byte	.LVL29
 4370 0278 65160000 		.4byte	0x1665
 4371 027c 94020000 		.4byte	0x294
 4372 0280 10       		.uleb128 0x10
 4373 0281 01       		.uleb128 0x1
 4374 0282 52       		.byte	0x52
 4375 0283 03       		.uleb128 0x3
 4376 0284 0A       		.byte	0xa
 4377 0285 7A64     		.2byte	0x647a
 4378 0287 10       		.uleb128 0x10
 4379 0288 01       		.uleb128 0x1
 4380 0289 51       		.byte	0x51
 4381 028a 08       		.uleb128 0x8
 4382 028b 74       		.byte	0x74
 4383 028c 00       		.sleb128 0
 4384 028d 03       		.byte	0x3
 4385 028e 00000000 		.4byte	LED_Driver_Gear_segLBuffer
 4386 0292 22       		.byte	0x22
 4387 0293 00       		.byte	0
 4388 0294 0F       		.uleb128 0xf
 4389 0295 02010000 		.4byte	.LVL33
 4390 0299 A8160000 		.4byte	0x16a8
 4391 029d BA020000 		.4byte	0x2ba
 4392 02a1 10       		.uleb128 0x10
 4393 02a2 01       		.uleb128 0x1
 4394 02a3 53       		.byte	0x53
 4395 02a4 03       		.uleb128 0x3
 4396 02a5 0A       		.byte	0xa
 4397 02a6 0040     		.2byte	0x4000
 4398 02a8 10       		.uleb128 0x10
 4399 02a9 01       		.uleb128 0x1
 4400 02aa 52       		.byte	0x52
 4401 02ab 03       		.uleb128 0x3
 4402 02ac 0A       		.byte	0xa
 4403 02ad FF1F     		.2byte	0x1fff
 4404 02af 10       		.uleb128 0x10
 4405 02b0 01       		.uleb128 0x1
 4406 02b1 51       		.byte	0x51
 4407 02b2 01       		.uleb128 0x1
 4408 02b3 31       		.byte	0x31
 4409 02b4 10       		.uleb128 0x10
ARM GAS  C:\Users\charl\AppData\Local\Temp\ccxfbC9q.s 			page 146


 4410 02b5 01       		.uleb128 0x1
 4411 02b6 50       		.byte	0x50
 4412 02b7 01       		.uleb128 0x1
 4413 02b8 31       		.byte	0x31
 4414 02b9 00       		.byte	0
 4415 02ba 11       		.uleb128 0x11
 4416 02bb 0E010000 		.4byte	.LVL34
 4417 02bf 36160000 		.4byte	0x1636
 4418 02c3 0F       		.uleb128 0xf
 4419 02c4 1C010000 		.4byte	.LVL35
 4420 02c8 41160000 		.4byte	0x1641
 4421 02cc DB020000 		.4byte	0x2db
 4422 02d0 10       		.uleb128 0x10
 4423 02d1 01       		.uleb128 0x1
 4424 02d2 53       		.byte	0x53
 4425 02d3 01       		.uleb128 0x1
 4426 02d4 31       		.byte	0x31
 4427 02d5 10       		.uleb128 0x10
 4428 02d6 01       		.uleb128 0x1
 4429 02d7 51       		.byte	0x51
 4430 02d8 01       		.uleb128 0x1
 4431 02d9 31       		.byte	0x31
 4432 02da 00       		.byte	0
 4433 02db 12       		.uleb128 0x12
 4434 02dc 2C010000 		.4byte	.LVL36
 4435 02e0 65160000 		.4byte	0x1665
 4436 02e4 10       		.uleb128 0x10
 4437 02e5 01       		.uleb128 0x1
 4438 02e6 52       		.byte	0x52
 4439 02e7 03       		.uleb128 0x3
 4440 02e8 0A       		.byte	0xa
 4441 02e9 2465     		.2byte	0x6524
 4442 02eb 10       		.uleb128 0x10
 4443 02ec 01       		.uleb128 0x1
 4444 02ed 51       		.byte	0x51
 4445 02ee 02       		.uleb128 0x2
 4446 02ef 74       		.byte	0x74
 4447 02f0 0C       		.sleb128 12
 4448 02f1 00       		.byte	0
 4449 02f2 00       		.byte	0
 4450 02f3 13       		.uleb128 0x13
 4451 02f4 8D070000 		.4byte	.LASF27
 4452 02f8 01       		.byte	0x1
 4453 02f9 1101     		.2byte	0x111
 4454 02fb 00000000 		.4byte	.LFB1
 4455 02ff 3C000000 		.4byte	.LFE1-.LFB1
 4456 0303 01       		.uleb128 0x1
 4457 0304 9C       		.byte	0x9c
 4458 0305 5A030000 		.4byte	0x35a
 4459 0309 11       		.uleb128 0x11
 4460 030a 0C000000 		.4byte	.LVL37
 4461 030e CC160000 		.4byte	0x16cc
 4462 0312 11       		.uleb128 0x11
 4463 0313 14000000 		.4byte	.LVL38
 4464 0317 CC160000 		.4byte	0x16cc
 4465 031b 11       		.uleb128 0x11
 4466 031c 1C000000 		.4byte	.LVL39
ARM GAS  C:\Users\charl\AppData\Local\Temp\ccxfbC9q.s 			page 147


 4467 0320 CC160000 		.4byte	0x16cc
 4468 0324 0F       		.uleb128 0xf
 4469 0325 24000000 		.4byte	.LVL40
 4470 0329 E6160000 		.4byte	0x16e6
 4471 032d 37030000 		.4byte	0x337
 4472 0331 10       		.uleb128 0x10
 4473 0332 01       		.uleb128 0x1
 4474 0333 51       		.byte	0x51
 4475 0334 01       		.uleb128 0x1
 4476 0335 31       		.byte	0x31
 4477 0336 00       		.byte	0
 4478 0337 0F       		.uleb128 0xf
 4479 0338 2C000000 		.4byte	.LVL41
 4480 033c E6160000 		.4byte	0x16e6
 4481 0340 4A030000 		.4byte	0x34a
 4482 0344 10       		.uleb128 0x10
 4483 0345 01       		.uleb128 0x1
 4484 0346 51       		.byte	0x51
 4485 0347 01       		.uleb128 0x1
 4486 0348 31       		.byte	0x31
 4487 0349 00       		.byte	0
 4488 034a 12       		.uleb128 0x12
 4489 034b 34000000 		.4byte	.LVL42
 4490 034f E6160000 		.4byte	0x16e6
 4491 0353 10       		.uleb128 0x10
 4492 0354 01       		.uleb128 0x1
 4493 0355 51       		.byte	0x51
 4494 0356 01       		.uleb128 0x1
 4495 0357 31       		.byte	0x31
 4496 0358 00       		.byte	0
 4497 0359 00       		.byte	0
 4498 035a 13       		.uleb128 0x13
 4499 035b B0030000 		.4byte	.LASF28
 4500 035f 01       		.byte	0x1
 4501 0360 3501     		.2byte	0x135
 4502 0362 00000000 		.4byte	.LFB2
 4503 0366 6C000000 		.4byte	.LFE2-.LFB2
 4504 036a 01       		.uleb128 0x1
 4505 036b 9C       		.byte	0x9c
 4506 036c F3030000 		.4byte	0x3f3
 4507 0370 14       		.uleb128 0x14
 4508 0371 6900     		.ascii	"i\000"
 4509 0373 01       		.byte	0x1
 4510 0374 3701     		.2byte	0x137
 4511 0376 6B000000 		.4byte	0x6b
 4512 037a A4000000 		.4byte	.LLST1
 4513 037e 15       		.uleb128 0x15
 4514 037f A7070000 		.4byte	.LASF29
 4515 0383 01       		.byte	0x1
 4516 0384 3801     		.2byte	0x138
 4517 0386 6B000000 		.4byte	0x6b
 4518 038a CE000000 		.4byte	.LLST2
 4519 038e 16       		.uleb128 0x16
 4520 038f 03030000 		.4byte	.LASF30
 4521 0393 01       		.byte	0x1
 4522 0394 3901     		.2byte	0x139
 4523 0396 F3030000 		.4byte	0x3f3
ARM GAS  C:\Users\charl\AppData\Local\Temp\ccxfbC9q.s 			page 148


 4524 039a 02       		.uleb128 0x2
 4525 039b 91       		.byte	0x91
 4526 039c 6C       		.sleb128 -20
 4527 039d 0F       		.uleb128 0xf
 4528 039e 2A000000 		.4byte	.LVL46
 4529 03a2 00170000 		.4byte	0x1700
 4530 03a6 B1030000 		.4byte	0x3b1
 4531 03aa 10       		.uleb128 0x10
 4532 03ab 01       		.uleb128 0x1
 4533 03ac 50       		.byte	0x50
 4534 03ad 02       		.uleb128 0x2
 4535 03ae 75       		.byte	0x75
 4536 03af 00       		.sleb128 0
 4537 03b0 00       		.byte	0
 4538 03b1 0F       		.uleb128 0xf
 4539 03b2 30000000 		.4byte	.LVL47
 4540 03b6 15170000 		.4byte	0x1715
 4541 03ba C4030000 		.4byte	0x3c4
 4542 03be 10       		.uleb128 0x10
 4543 03bf 01       		.uleb128 0x1
 4544 03c0 50       		.byte	0x50
 4545 03c1 01       		.uleb128 0x1
 4546 03c2 30       		.byte	0x30
 4547 03c3 00       		.byte	0
 4548 03c4 0F       		.uleb128 0xf
 4549 03c5 46000000 		.4byte	.LVL48
 4550 03c9 26170000 		.4byte	0x1726
 4551 03cd DD030000 		.4byte	0x3dd
 4552 03d1 10       		.uleb128 0x10
 4553 03d2 01       		.uleb128 0x1
 4554 03d3 51       		.byte	0x51
 4555 03d4 01       		.uleb128 0x1
 4556 03d5 34       		.byte	0x34
 4557 03d6 10       		.uleb128 0x10
 4558 03d7 01       		.uleb128 0x1
 4559 03d8 50       		.byte	0x50
 4560 03d9 02       		.uleb128 0x2
 4561 03da 75       		.byte	0x75
 4562 03db 00       		.sleb128 0
 4563 03dc 00       		.byte	0
 4564 03dd 12       		.uleb128 0x12
 4565 03de 4E000000 		.4byte	.LVL49
 4566 03e2 E6160000 		.4byte	0x16e6
 4567 03e6 10       		.uleb128 0x10
 4568 03e7 01       		.uleb128 0x1
 4569 03e8 51       		.byte	0x51
 4570 03e9 01       		.uleb128 0x1
 4571 03ea 31       		.byte	0x31
 4572 03eb 10       		.uleb128 0x10
 4573 03ec 01       		.uleb128 0x1
 4574 03ed 50       		.byte	0x50
 4575 03ee 02       		.uleb128 0x2
 4576 03ef 75       		.byte	0x75
 4577 03f0 00       		.sleb128 0
 4578 03f1 00       		.byte	0
 4579 03f2 00       		.byte	0
 4580 03f3 06       		.uleb128 0x6
ARM GAS  C:\Users\charl\AppData\Local\Temp\ccxfbC9q.s 			page 149


 4581 03f4 6B000000 		.4byte	0x6b
 4582 03f8 03040000 		.4byte	0x403
 4583 03fc 07       		.uleb128 0x7
 4584 03fd E9000000 		.4byte	0xe9
 4585 0401 02       		.byte	0x2
 4586 0402 00       		.byte	0
 4587 0403 17       		.uleb128 0x17
 4588 0404 12030000 		.4byte	.LASF31
 4589 0408 01       		.byte	0x1
 4590 0409 9601     		.2byte	0x196
 4591 040b 00000000 		.4byte	.LFB4
 4592 040f 24000000 		.4byte	.LFE4-.LFB4
 4593 0413 01       		.uleb128 0x1
 4594 0414 9C       		.byte	0x9c
 4595 0415 23040000 		.4byte	0x423
 4596 0419 11       		.uleb128 0x11
 4597 041a 06000000 		.4byte	.LVL53
 4598 041e F3020000 		.4byte	0x2f3
 4599 0422 00       		.byte	0
 4600 0423 17       		.uleb128 0x17
 4601 0424 C0040000 		.4byte	.LASF32
 4602 0428 01       		.byte	0x1
 4603 0429 FE01     		.2byte	0x1fe
 4604 042b 00000000 		.4byte	.LFB7
 4605 042f 0C000000 		.4byte	.LFE7-.LFB7
 4606 0433 01       		.uleb128 0x1
 4607 0434 9C       		.byte	0x9c
 4608 0435 66040000 		.4byte	0x466
 4609 0439 18       		.uleb128 0x18
 4610 043a CC020000 		.4byte	.LASF33
 4611 043e 01       		.byte	0x1
 4612 043f FE01     		.2byte	0x1fe
 4613 0441 6B000000 		.4byte	0x6b
 4614 0445 01       		.uleb128 0x1
 4615 0446 50       		.byte	0x50
 4616 0447 18       		.uleb128 0x18
 4617 0448 EE0B0000 		.4byte	.LASF34
 4618 044c 01       		.byte	0x1
 4619 044d FE01     		.2byte	0x1fe
 4620 044f 6B000000 		.4byte	0x6b
 4621 0453 01       		.uleb128 0x1
 4622 0454 51       		.byte	0x51
 4623 0455 15       		.uleb128 0x15
 4624 0456 F70B0000 		.4byte	.LASF35
 4625 045a 01       		.byte	0x1
 4626 045b 0002     		.2byte	0x200
 4627 045d 6B000000 		.4byte	0x6b
 4628 0461 E1000000 		.4byte	.LLST3
 4629 0465 00       		.byte	0
 4630 0466 17       		.uleb128 0x17
 4631 0467 DC060000 		.4byte	.LASF36
 4632 046b 01       		.byte	0x1
 4633 046c 3A02     		.2byte	0x23a
 4634 046e 00000000 		.4byte	.LFB8
 4635 0472 1C000000 		.4byte	.LFE8-.LFB8
 4636 0476 01       		.uleb128 0x1
 4637 0477 9C       		.byte	0x9c
ARM GAS  C:\Users\charl\AppData\Local\Temp\ccxfbC9q.s 			page 150


 4638 0478 AD040000 		.4byte	0x4ad
 4639 047c 19       		.uleb128 0x19
 4640 047d 726F7700 		.ascii	"row\000"
 4641 0481 01       		.byte	0x1
 4642 0482 3A02     		.2byte	0x23a
 4643 0484 6B000000 		.4byte	0x6b
 4644 0488 F4000000 		.4byte	.LLST4
 4645 048c 1A       		.uleb128 0x1a
 4646 048d A8080000 		.4byte	.LASF37
 4647 0491 01       		.byte	0x1
 4648 0492 3A02     		.2byte	0x23a
 4649 0494 6B000000 		.4byte	0x6b
 4650 0498 15010000 		.4byte	.LLST5
 4651 049c 15       		.uleb128 0x15
 4652 049d F1000000 		.4byte	.LASF38
 4653 04a1 01       		.byte	0x1
 4654 04a2 3C02     		.2byte	0x23c
 4655 04a4 6B000000 		.4byte	0x6b
 4656 04a8 36010000 		.4byte	.LLST6
 4657 04ac 00       		.byte	0
 4658 04ad 17       		.uleb128 0x17
 4659 04ae 5A020000 		.4byte	.LASF39
 4660 04b2 01       		.byte	0x1
 4661 04b3 7602     		.2byte	0x276
 4662 04b5 00000000 		.4byte	.LFB9
 4663 04b9 1C000000 		.4byte	.LFE9-.LFB9
 4664 04bd 01       		.uleb128 0x1
 4665 04be 9C       		.byte	0x9c
 4666 04bf 04050000 		.4byte	0x504
 4667 04c3 19       		.uleb128 0x19
 4668 04c4 726F7700 		.ascii	"row\000"
 4669 04c8 01       		.byte	0x1
 4670 04c9 7602     		.2byte	0x276
 4671 04cb 6B000000 		.4byte	0x6b
 4672 04cf 57010000 		.4byte	.LLST7
 4673 04d3 1A       		.uleb128 0x1a
 4674 04d4 A8080000 		.4byte	.LASF37
 4675 04d8 01       		.byte	0x1
 4676 04d9 7602     		.2byte	0x276
 4677 04db 6B000000 		.4byte	0x6b
 4678 04df 78010000 		.4byte	.LLST8
 4679 04e3 15       		.uleb128 0x15
 4680 04e4 F1000000 		.4byte	.LASF38
 4681 04e8 01       		.byte	0x1
 4682 04e9 7802     		.2byte	0x278
 4683 04eb 6B000000 		.4byte	0x6b
 4684 04ef 99010000 		.4byte	.LLST9
 4685 04f3 15       		.uleb128 0x15
 4686 04f4 9C050000 		.4byte	.LASF40
 4687 04f8 01       		.byte	0x1
 4688 04f9 7902     		.2byte	0x279
 4689 04fb 6B000000 		.4byte	0x6b
 4690 04ff BA010000 		.4byte	.LLST10
 4691 0503 00       		.byte	0
 4692 0504 17       		.uleb128 0x17
 4693 0505 74070000 		.4byte	.LASF41
 4694 0509 01       		.byte	0x1
ARM GAS  C:\Users\charl\AppData\Local\Temp\ccxfbC9q.s 			page 151


 4695 050a B602     		.2byte	0x2b6
 4696 050c 00000000 		.4byte	.LFB10
 4697 0510 1C000000 		.4byte	.LFE10-.LFB10
 4698 0514 01       		.uleb128 0x1
 4699 0515 9C       		.byte	0x9c
 4700 0516 4B050000 		.4byte	0x54b
 4701 051a 19       		.uleb128 0x19
 4702 051b 726F7700 		.ascii	"row\000"
 4703 051f 01       		.byte	0x1
 4704 0520 B602     		.2byte	0x2b6
 4705 0522 6B000000 		.4byte	0x6b
 4706 0526 CD010000 		.4byte	.LLST11
 4707 052a 1A       		.uleb128 0x1a
 4708 052b A8080000 		.4byte	.LASF37
 4709 052f 01       		.byte	0x1
 4710 0530 B602     		.2byte	0x2b6
 4711 0532 6B000000 		.4byte	0x6b
 4712 0536 EE010000 		.4byte	.LLST12
 4713 053a 15       		.uleb128 0x15
 4714 053b F1000000 		.4byte	.LASF38
 4715 053f 01       		.byte	0x1
 4716 0540 B802     		.2byte	0x2b8
 4717 0542 6B000000 		.4byte	0x6b
 4718 0546 0F020000 		.4byte	.LLST13
 4719 054a 00       		.byte	0
 4720 054b 1B       		.uleb128 0x1b
 4721 054c C9080000 		.4byte	.LASF51
 4722 0550 01       		.byte	0x1
 4723 0551 E602     		.2byte	0x2e6
 4724 0553 6B000000 		.4byte	0x6b
 4725 0557 00000000 		.4byte	.LFB11
 4726 055b 24000000 		.4byte	.LFE11-.LFB11
 4727 055f 01       		.uleb128 0x1
 4728 0560 9C       		.byte	0x9c
 4729 0561 B4050000 		.4byte	0x5b4
 4730 0565 19       		.uleb128 0x19
 4731 0566 726F7700 		.ascii	"row\000"
 4732 056a 01       		.byte	0x1
 4733 056b E602     		.2byte	0x2e6
 4734 056d 6B000000 		.4byte	0x6b
 4735 0571 30020000 		.4byte	.LLST14
 4736 0575 18       		.uleb128 0x18
 4737 0576 A8080000 		.4byte	.LASF37
 4738 057a 01       		.byte	0x1
 4739 057b E602     		.2byte	0x2e6
 4740 057d 6B000000 		.4byte	0x6b
 4741 0581 01       		.uleb128 0x1
 4742 0582 51       		.byte	0x51
 4743 0583 15       		.uleb128 0x15
 4744 0584 89030000 		.4byte	.LASF42
 4745 0588 01       		.byte	0x1
 4746 0589 E802     		.2byte	0x2e8
 4747 058b 6B000000 		.4byte	0x6b
 4748 058f 83020000 		.4byte	.LLST15
 4749 0593 15       		.uleb128 0x15
 4750 0594 F1000000 		.4byte	.LASF38
 4751 0598 01       		.byte	0x1
ARM GAS  C:\Users\charl\AppData\Local\Temp\ccxfbC9q.s 			page 152


 4752 0599 E902     		.2byte	0x2e9
 4753 059b 6B000000 		.4byte	0x6b
 4754 059f B9020000 		.4byte	.LLST16
 4755 05a3 15       		.uleb128 0x15
 4756 05a4 6E000000 		.4byte	.LASF43
 4757 05a8 01       		.byte	0x1
 4758 05a9 EA02     		.2byte	0x2ea
 4759 05ab 6B000000 		.4byte	0x6b
 4760 05af DA020000 		.4byte	.LLST17
 4761 05b3 00       		.byte	0
 4762 05b4 17       		.uleb128 0x17
 4763 05b5 10070000 		.4byte	.LASF44
 4764 05b9 01       		.byte	0x1
 4765 05ba 1F03     		.2byte	0x31f
 4766 05bc 00000000 		.4byte	.LFB12
 4767 05c0 10000000 		.4byte	.LFE12-.LFB12
 4768 05c4 01       		.uleb128 0x1
 4769 05c5 9C       		.byte	0x9c
 4770 05c6 E9050000 		.4byte	0x5e9
 4771 05ca 18       		.uleb128 0x18
 4772 05cb EE0B0000 		.4byte	.LASF34
 4773 05cf 01       		.byte	0x1
 4774 05d0 1F03     		.2byte	0x31f
 4775 05d2 6B000000 		.4byte	0x6b
 4776 05d6 01       		.uleb128 0x1
 4777 05d7 50       		.byte	0x50
 4778 05d8 15       		.uleb128 0x15
 4779 05d9 F70B0000 		.4byte	.LASF35
 4780 05dd 01       		.byte	0x1
 4781 05de 2103     		.2byte	0x321
 4782 05e0 6B000000 		.4byte	0x6b
 4783 05e4 1C030000 		.4byte	.LLST18
 4784 05e8 00       		.byte	0
 4785 05e9 17       		.uleb128 0x17
 4786 05ea 69030000 		.4byte	.LASF45
 4787 05ee 01       		.byte	0x1
 4788 05ef 4D03     		.2byte	0x34d
 4789 05f1 00000000 		.4byte	.LFB13
 4790 05f5 18000000 		.4byte	.LFE13-.LFB13
 4791 05f9 01       		.uleb128 0x1
 4792 05fa 9C       		.byte	0x9c
 4793 05fb 10060000 		.4byte	0x610
 4794 05ff 15       		.uleb128 0x15
 4795 0600 EE0B0000 		.4byte	.LASF34
 4796 0604 01       		.byte	0x1
 4797 0605 4F03     		.2byte	0x34f
 4798 0607 6B000000 		.4byte	0x6b
 4799 060b 2F030000 		.4byte	.LLST19
 4800 060f 00       		.byte	0
 4801 0610 17       		.uleb128 0x17
 4802 0611 5E040000 		.4byte	.LASF46
 4803 0615 01       		.byte	0x1
 4804 0616 6A01     		.2byte	0x16a
 4805 0618 00000000 		.4byte	.LFB3
 4806 061c 30000000 		.4byte	.LFE3-.LFB3
 4807 0620 01       		.uleb128 0x1
 4808 0621 9C       		.byte	0x9c
ARM GAS  C:\Users\charl\AppData\Local\Temp\ccxfbC9q.s 			page 153


 4809 0622 59060000 		.4byte	0x659
 4810 0626 16       		.uleb128 0x16
 4811 0627 52000000 		.4byte	.LASF47
 4812 062b 01       		.byte	0x1
 4813 062c 6C01     		.2byte	0x16c
 4814 062e 6B000000 		.4byte	0x6b
 4815 0632 05       		.uleb128 0x5
 4816 0633 03       		.byte	0x3
 4817 0634 0E000000 		.4byte	LED_Driver_Gear_dmaInitDone.5128
 4818 0638 14       		.uleb128 0x14
 4819 0639 6900     		.ascii	"i\000"
 4820 063b 01       		.byte	0x1
 4821 063c 6E01     		.2byte	0x16e
 4822 063e 6B000000 		.4byte	0x6b
 4823 0642 59030000 		.4byte	.LLST20
 4824 0646 11       		.uleb128 0x11
 4825 0647 06000000 		.4byte	.LVL90
 4826 064b E9050000 		.4byte	0x5e9
 4827 064f 11       		.uleb128 0x11
 4828 0650 10000000 		.4byte	.LVL91
 4829 0654 72010000 		.4byte	0x172
 4830 0658 00       		.byte	0
 4831 0659 17       		.uleb128 0x17
 4832 065a 7E090000 		.4byte	.LASF48
 4833 065e 01       		.byte	0x1
 4834 065f BC01     		.2byte	0x1bc
 4835 0661 00000000 		.4byte	.LFB5
 4836 0665 1C000000 		.4byte	.LFE5-.LFB5
 4837 0669 01       		.uleb128 0x1
 4838 066a 9C       		.byte	0x9c
 4839 066b 82060000 		.4byte	0x682
 4840 066f 11       		.uleb128 0x11
 4841 0670 0C000000 		.4byte	.LVL96
 4842 0674 10060000 		.4byte	0x610
 4843 0678 11       		.uleb128 0x11
 4844 0679 16000000 		.4byte	.LVL97
 4845 067d 03040000 		.4byte	0x403
 4846 0681 00       		.byte	0
 4847 0682 17       		.uleb128 0x17
 4848 0683 540B0000 		.4byte	.LASF49
 4849 0687 01       		.byte	0x1
 4850 0688 DA01     		.2byte	0x1da
 4851 068a 00000000 		.4byte	.LFB6
 4852 068e 20000000 		.4byte	.LFE6-.LFB6
 4853 0692 01       		.uleb128 0x1
 4854 0693 9C       		.byte	0x9c
 4855 0694 AB060000 		.4byte	0x6ab
 4856 0698 11       		.uleb128 0x11
 4857 0699 0C000000 		.4byte	.LVL98
 4858 069d 5A030000 		.4byte	0x35a
 4859 06a1 11       		.uleb128 0x11
 4860 06a2 10000000 		.4byte	.LVL99
 4861 06a6 E9050000 		.4byte	0x5e9
 4862 06aa 00       		.byte	0
 4863 06ab 17       		.uleb128 0x17
 4864 06ac 720B0000 		.4byte	.LASF50
 4865 06b0 01       		.byte	0x1
ARM GAS  C:\Users\charl\AppData\Local\Temp\ccxfbC9q.s 			page 154


 4866 06b1 3709     		.2byte	0x937
 4867 06b3 00000000 		.4byte	.LFB32
 4868 06b7 24000000 		.4byte	.LFE32-.LFB32
 4869 06bb 01       		.uleb128 0x1
 4870 06bc 9C       		.byte	0x9c
 4871 06bd FD060000 		.4byte	0x6fd
 4872 06c1 1C       		.uleb128 0x1c
 4873 06c2 647000   		.ascii	"dp\000"
 4874 06c5 01       		.byte	0x1
 4875 06c6 3709     		.2byte	0x937
 4876 06c8 6B000000 		.4byte	0x6b
 4877 06cc 01       		.uleb128 0x1
 4878 06cd 50       		.byte	0x50
 4879 06ce 1A       		.uleb128 0x1a
 4880 06cf EE0B0000 		.4byte	.LASF34
 4881 06d3 01       		.byte	0x1
 4882 06d4 3709     		.2byte	0x937
 4883 06d6 6B000000 		.4byte	0x6b
 4884 06da 77030000 		.4byte	.LLST21
 4885 06de 1D       		.uleb128 0x1d
 4886 06df CC020000 		.4byte	.LASF33
 4887 06e3 01       		.byte	0x1
 4888 06e4 3A09     		.2byte	0x93a
 4889 06e6 6B000000 		.4byte	0x6b
 4890 06ea 807F     		.sleb128 -128
 4891 06ec 15       		.uleb128 0x15
 4892 06ed F70B0000 		.4byte	.LASF35
 4893 06f1 01       		.byte	0x1
 4894 06f2 3B09     		.2byte	0x93b
 4895 06f4 6B000000 		.4byte	0x6b
 4896 06f8 B1030000 		.4byte	.LLST22
 4897 06fc 00       		.byte	0
 4898 06fd 1B       		.uleb128 0x1b
 4899 06fe AF070000 		.4byte	.LASF52
 4900 0702 01       		.byte	0x1
 4901 0703 9909     		.2byte	0x999
 4902 0705 6B000000 		.4byte	0x6b
 4903 0709 00000000 		.4byte	.LFB33
 4904 070d 14000000 		.4byte	.LFE33-.LFB33
 4905 0711 01       		.uleb128 0x1
 4906 0712 9C       		.byte	0x9c
 4907 0713 56070000 		.4byte	0x756
 4908 0717 1A       		.uleb128 0x1a
 4909 0718 EE0B0000 		.4byte	.LASF34
 4910 071c 01       		.byte	0x1
 4911 071d 9909     		.2byte	0x999
 4912 071f 6B000000 		.4byte	0x6b
 4913 0723 C4030000 		.4byte	.LLST23
 4914 0727 16       		.uleb128 0x16
 4915 0728 CC020000 		.4byte	.LASF33
 4916 072c 01       		.byte	0x1
 4917 072d 9B09     		.2byte	0x99b
 4918 072f 6B000000 		.4byte	0x6b
 4919 0733 01       		.uleb128 0x1
 4920 0734 50       		.byte	0x50
 4921 0735 15       		.uleb128 0x15
 4922 0736 F70B0000 		.4byte	.LASF35
ARM GAS  C:\Users\charl\AppData\Local\Temp\ccxfbC9q.s 			page 155


 4923 073a 01       		.byte	0x1
 4924 073b 9C09     		.2byte	0x99c
 4925 073d 6B000000 		.4byte	0x6b
 4926 0741 FE030000 		.4byte	.LLST24
 4927 0745 15       		.uleb128 0x15
 4928 0746 D0060000 		.4byte	.LASF53
 4929 074a 01       		.byte	0x1
 4930 074b 9D09     		.2byte	0x99d
 4931 074d 6B000000 		.4byte	0x6b
 4932 0751 1F040000 		.4byte	.LLST25
 4933 0755 00       		.byte	0
 4934 0756 1B       		.uleb128 0x1b
 4935 0757 B2010000 		.4byte	.LASF54
 4936 075b 01       		.byte	0x1
 4937 075c D609     		.2byte	0x9d6
 4938 075e 6B000000 		.4byte	0x6b
 4939 0762 00000000 		.4byte	.LFB34
 4940 0766 10000000 		.4byte	.LFE34-.LFB34
 4941 076a 01       		.uleb128 0x1
 4942 076b 9C       		.byte	0x9c
 4943 076c B3070000 		.4byte	0x7b3
 4944 0770 1A       		.uleb128 0x1a
 4945 0771 07090000 		.4byte	.LASF55
 4946 0775 01       		.byte	0x1
 4947 0776 D609     		.2byte	0x9d6
 4948 0778 6B000000 		.4byte	0x6b
 4949 077c 55040000 		.4byte	.LLST26
 4950 0780 16       		.uleb128 0x16
 4951 0781 95060000 		.4byte	.LASF56
 4952 0785 01       		.byte	0x1
 4953 0786 DA09     		.2byte	0x9da
 4954 0788 C3070000 		.4byte	0x7c3
 4955 078c 05       		.uleb128 0x5
 4956 078d 03       		.byte	0x3
 4957 078e 00000000 		.4byte	LED_Driver_Gear_7SegDigits.5468
 4958 0792 15       		.uleb128 0x15
 4959 0793 15010000 		.4byte	.LASF57
 4960 0797 01       		.byte	0x1
 4961 0798 EF09     		.2byte	0x9ef
 4962 079a 6B000000 		.4byte	0x6b
 4963 079e 76040000 		.4byte	.LLST27
 4964 07a2 15       		.uleb128 0x15
 4965 07a3 DF080000 		.4byte	.LASF58
 4966 07a7 01       		.byte	0x1
 4967 07a8 F009     		.2byte	0x9f0
 4968 07aa 6B000000 		.4byte	0x6b
 4969 07ae 89040000 		.4byte	.LLST28
 4970 07b2 00       		.byte	0
 4971 07b3 06       		.uleb128 0x6
 4972 07b4 6B000000 		.4byte	0x6b
 4973 07b8 C3070000 		.4byte	0x7c3
 4974 07bc 07       		.uleb128 0x7
 4975 07bd E9000000 		.4byte	0xe9
 4976 07c1 0F       		.byte	0xf
 4977 07c2 00       		.byte	0
 4978 07c3 0A       		.uleb128 0xa
 4979 07c4 B3070000 		.4byte	0x7b3
ARM GAS  C:\Users\charl\AppData\Local\Temp\ccxfbC9q.s 			page 156


 4980 07c8 17       		.uleb128 0x17
 4981 07c9 70080000 		.4byte	.LASF59
 4982 07cd 01       		.byte	0x1
 4983 07ce 6004     		.2byte	0x460
 4984 07d0 00000000 		.4byte	.LFB15
 4985 07d4 1C010000 		.4byte	.LFE15-.LFB15
 4986 07d8 01       		.uleb128 0x1
 4987 07d9 9C       		.byte	0x9c
 4988 07da 9E080000 		.4byte	0x89e
 4989 07de 1A       		.uleb128 0x1a
 4990 07df 07090000 		.4byte	.LASF55
 4991 07e3 01       		.byte	0x1
 4992 07e4 6004     		.2byte	0x460
 4993 07e6 83000000 		.4byte	0x83
 4994 07ea AE040000 		.4byte	.LLST29
 4995 07ee 1A       		.uleb128 0x1a
 4996 07ef EE0B0000 		.4byte	.LASF34
 4997 07f3 01       		.byte	0x1
 4998 07f4 6004     		.2byte	0x460
 4999 07f6 6B000000 		.4byte	0x6b
 5000 07fa CF040000 		.4byte	.LLST30
 5001 07fe 1A       		.uleb128 0x1a
 5002 07ff 92020000 		.4byte	.LASF60
 5003 0803 01       		.byte	0x1
 5004 0804 6004     		.2byte	0x460
 5005 0806 6B000000 		.4byte	0x6b
 5006 080a F0040000 		.4byte	.LLST31
 5007 080e 1A       		.uleb128 0x1a
 5008 080f 9F0B0000 		.4byte	.LASF61
 5009 0813 01       		.byte	0x1
 5010 0814 6004     		.2byte	0x460
 5011 0816 6B000000 		.4byte	0x6b
 5012 081a 11050000 		.4byte	.LLST32
 5013 081e 14       		.uleb128 0x14
 5014 081f 6900     		.ascii	"i\000"
 5015 0821 01       		.byte	0x1
 5016 0822 6304     		.2byte	0x463
 5017 0824 6B000000 		.4byte	0x6b
 5018 0828 32050000 		.4byte	.LLST33
 5019 082c 15       		.uleb128 0x15
 5020 082d F70B0000 		.4byte	.LASF35
 5021 0831 01       		.byte	0x1
 5022 0832 6404     		.2byte	0x464
 5023 0834 6B000000 		.4byte	0x6b
 5024 0838 87050000 		.4byte	.LLST34
 5025 083c 15       		.uleb128 0x15
 5026 083d CF070000 		.4byte	.LASF62
 5027 0841 01       		.byte	0x1
 5028 0842 6504     		.2byte	0x465
 5029 0844 6B000000 		.4byte	0x6b
 5030 0848 C6050000 		.4byte	.LLST35
 5031 084c 15       		.uleb128 0x15
 5032 084d 7B000000 		.4byte	.LASF63
 5033 0851 01       		.byte	0x1
 5034 0852 6604     		.2byte	0x466
 5035 0854 6B000000 		.4byte	0x6b
 5036 0858 F1050000 		.4byte	.LLST36
ARM GAS  C:\Users\charl\AppData\Local\Temp\ccxfbC9q.s 			page 157


 5037 085c 15       		.uleb128 0x15
 5038 085d A90B0000 		.4byte	.LASF64
 5039 0861 01       		.byte	0x1
 5040 0862 6704     		.2byte	0x467
 5041 0864 6B000000 		.4byte	0x6b
 5042 0868 08060000 		.4byte	.LLST37
 5043 086c 16       		.uleb128 0x16
 5044 086d DC0A0000 		.4byte	.LASF65
 5045 0871 01       		.byte	0x1
 5046 0872 6804     		.2byte	0x468
 5047 0874 9E080000 		.4byte	0x89e
 5048 0878 02       		.uleb128 0x2
 5049 0879 91       		.byte	0x91
 5050 087a 58       		.sleb128 -40
 5051 087b 15       		.uleb128 0x15
 5052 087c 3D030000 		.4byte	.LASF66
 5053 0880 01       		.byte	0x1
 5054 0881 6904     		.2byte	0x469
 5055 0883 83000000 		.4byte	0x83
 5056 0887 49060000 		.4byte	.LLST38
 5057 088b 12       		.uleb128 0x12
 5058 088c 3A000000 		.4byte	.LVL126
 5059 0890 56070000 		.4byte	0x756
 5060 0894 10       		.uleb128 0x10
 5061 0895 01       		.uleb128 0x1
 5062 0896 50       		.byte	0x50
 5063 0897 04       		.uleb128 0x4
 5064 0898 79       		.byte	0x79
 5065 0899 00       		.sleb128 0
 5066 089a 3F       		.byte	0x3f
 5067 089b 1A       		.byte	0x1a
 5068 089c 00       		.byte	0
 5069 089d 00       		.byte	0
 5070 089e 06       		.uleb128 0x6
 5071 089f 6B000000 		.4byte	0x6b
 5072 08a3 AE080000 		.4byte	0x8ae
 5073 08a7 07       		.uleb128 0x7
 5074 08a8 E9000000 		.4byte	0xe9
 5075 08ac 07       		.byte	0x7
 5076 08ad 00       		.byte	0
 5077 08ae 17       		.uleb128 0x17
 5078 08af 17080000 		.4byte	.LASF67
 5079 08b3 01       		.byte	0x1
 5080 08b4 8705     		.2byte	0x587
 5081 08b6 00000000 		.4byte	.LFB18
 5082 08ba 1C000000 		.4byte	.LFE18-.LFB18
 5083 08be 01       		.uleb128 0x1
 5084 08bf 9C       		.byte	0x9c
 5085 08c0 FE080000 		.4byte	0x8fe
 5086 08c4 1A       		.uleb128 0x1a
 5087 08c5 CA060000 		.4byte	.LASF68
 5088 08c9 01       		.byte	0x1
 5089 08ca 8705     		.2byte	0x587
 5090 08cc 6B000000 		.4byte	0x6b
 5091 08d0 67060000 		.4byte	.LLST39
 5092 08d4 1A       		.uleb128 0x1a
 5093 08d5 EE0B0000 		.4byte	.LASF34
ARM GAS  C:\Users\charl\AppData\Local\Temp\ccxfbC9q.s 			page 158


 5094 08d9 01       		.byte	0x1
 5095 08da 8705     		.2byte	0x587
 5096 08dc 6B000000 		.4byte	0x6b
 5097 08e0 93060000 		.4byte	.LLST40
 5098 08e4 15       		.uleb128 0x15
 5099 08e5 F70B0000 		.4byte	.LASF35
 5100 08e9 01       		.byte	0x1
 5101 08ea 8A05     		.2byte	0x58a
 5102 08ec 6B000000 		.4byte	0x6b
 5103 08f0 BF060000 		.4byte	.LLST41
 5104 08f4 11       		.uleb128 0x11
 5105 08f5 0E000000 		.4byte	.LVL152
 5106 08f9 56070000 		.4byte	0x756
 5107 08fd 00       		.byte	0
 5108 08fe 17       		.uleb128 0x17
 5109 08ff 38020000 		.4byte	.LASF69
 5110 0903 01       		.byte	0x1
 5111 0904 BC05     		.2byte	0x5bc
 5112 0906 00000000 		.4byte	.LFB19
 5113 090a 18000000 		.4byte	.LFE19-.LFB19
 5114 090e 01       		.uleb128 0x1
 5115 090f 9C       		.byte	0x9c
 5116 0910 4E090000 		.4byte	0x94e
 5117 0914 1A       		.uleb128 0x1a
 5118 0915 CA060000 		.4byte	.LASF68
 5119 0919 01       		.byte	0x1
 5120 091a BC05     		.2byte	0x5bc
 5121 091c 6B000000 		.4byte	0x6b
 5122 0920 D2060000 		.4byte	.LLST42
 5123 0924 1A       		.uleb128 0x1a
 5124 0925 EE0B0000 		.4byte	.LASF34
 5125 0929 01       		.byte	0x1
 5126 092a BC05     		.2byte	0x5bc
 5127 092c 6B000000 		.4byte	0x6b
 5128 0930 FE060000 		.4byte	.LLST43
 5129 0934 15       		.uleb128 0x15
 5130 0935 F70B0000 		.4byte	.LASF35
 5131 0939 01       		.byte	0x1
 5132 093a BF05     		.2byte	0x5bf
 5133 093c 6B000000 		.4byte	0x6b
 5134 0940 2A070000 		.4byte	.LLST44
 5135 0944 11       		.uleb128 0x11
 5136 0945 0A000000 		.4byte	.LVL156
 5137 0949 56070000 		.4byte	0x756
 5138 094d 00       		.byte	0
 5139 094e 1B       		.uleb128 0x1b
 5140 094f D0050000 		.4byte	.LASF70
 5141 0953 01       		.byte	0x1
 5142 0954 100A     		.2byte	0xa10
 5143 0956 6B000000 		.4byte	0x6b
 5144 095a 00000000 		.4byte	.LFB35
 5145 095e 24000000 		.4byte	.LFE35-.LFB35
 5146 0962 01       		.uleb128 0x1
 5147 0963 9C       		.byte	0x9c
 5148 0964 BB090000 		.4byte	0x9bb
 5149 0968 1A       		.uleb128 0x1a
 5150 0969 00000000 		.4byte	.LASF71
ARM GAS  C:\Users\charl\AppData\Local\Temp\ccxfbC9q.s 			page 159


 5151 096d 01       		.byte	0x1
 5152 096e 100A     		.2byte	0xa10
 5153 0970 A9000000 		.4byte	0xa9
 5154 0974 3D070000 		.4byte	.LLST45
 5155 0978 16       		.uleb128 0x16
 5156 0979 99020000 		.4byte	.LASF72
 5157 097d 01       		.byte	0x1
 5158 097e 140A     		.2byte	0xa14
 5159 0980 D1090000 		.4byte	0x9d1
 5160 0984 05       		.uleb128 0x5
 5161 0985 03       		.byte	0x3
 5162 0986 10000000 		.4byte	LED_Driver_Gear_7SegASCII.5474
 5163 098a 15       		.uleb128 0x15
 5164 098b CF0B0000 		.4byte	.LASF73
 5165 098f 01       		.byte	0x1
 5166 0990 7D0A     		.2byte	0xa7d
 5167 0992 6B000000 		.4byte	0x6b
 5168 0996 5E070000 		.4byte	.LLST46
 5169 099a 15       		.uleb128 0x15
 5170 099b 56040000 		.4byte	.LASF74
 5171 099f 01       		.byte	0x1
 5172 09a0 7E0A     		.2byte	0xa7e
 5173 09a2 6B000000 		.4byte	0x6b
 5174 09a6 7C070000 		.4byte	.LLST47
 5175 09aa 15       		.uleb128 0x15
 5176 09ab DF080000 		.4byte	.LASF58
 5177 09af 01       		.byte	0x1
 5178 09b0 7F0A     		.2byte	0xa7f
 5179 09b2 6B000000 		.4byte	0x6b
 5180 09b6 A7070000 		.4byte	.LLST48
 5181 09ba 00       		.byte	0
 5182 09bb 06       		.uleb128 0x6
 5183 09bc 6B000000 		.4byte	0x6b
 5184 09c0 D1090000 		.4byte	0x9d1
 5185 09c4 07       		.uleb128 0x7
 5186 09c5 E9000000 		.4byte	0xe9
 5187 09c9 05       		.byte	0x5
 5188 09ca 07       		.uleb128 0x7
 5189 09cb E9000000 		.4byte	0xe9
 5190 09cf 0F       		.byte	0xf
 5191 09d0 00       		.byte	0
 5192 09d1 0A       		.uleb128 0xa
 5193 09d2 BB090000 		.4byte	0x9bb
 5194 09d6 17       		.uleb128 0x17
 5195 09d7 B6000000 		.4byte	.LASF75
 5196 09db 01       		.byte	0x1
 5197 09dc 8503     		.2byte	0x385
 5198 09de 00000000 		.4byte	.LFB14
 5199 09e2 78010000 		.4byte	.LFE14-.LFB14
 5200 09e6 01       		.uleb128 0x1
 5201 09e7 9C       		.byte	0x9c
 5202 09e8 EB0A0000 		.4byte	0xaeb
 5203 09ec 1A       		.uleb128 0x1a
 5204 09ed 07090000 		.4byte	.LASF55
 5205 09f1 01       		.byte	0x1
 5206 09f2 8503     		.2byte	0x385
 5207 09f4 8F000000 		.4byte	0x8f
ARM GAS  C:\Users\charl\AppData\Local\Temp\ccxfbC9q.s 			page 160


 5208 09f8 C5070000 		.4byte	.LLST49
 5209 09fc 1A       		.uleb128 0x1a
 5210 09fd EE0B0000 		.4byte	.LASF34
 5211 0a01 01       		.byte	0x1
 5212 0a02 8503     		.2byte	0x385
 5213 0a04 6B000000 		.4byte	0x6b
 5214 0a08 E6070000 		.4byte	.LLST50
 5215 0a0c 1A       		.uleb128 0x1a
 5216 0a0d 92020000 		.4byte	.LASF60
 5217 0a11 01       		.byte	0x1
 5218 0a12 8503     		.2byte	0x385
 5219 0a14 6B000000 		.4byte	0x6b
 5220 0a18 07080000 		.4byte	.LLST51
 5221 0a1c 1A       		.uleb128 0x1a
 5222 0a1d 9F0B0000 		.4byte	.LASF61
 5223 0a21 01       		.byte	0x1
 5224 0a22 8503     		.2byte	0x385
 5225 0a24 6B000000 		.4byte	0x6b
 5226 0a28 41080000 		.4byte	.LLST52
 5227 0a2c 14       		.uleb128 0x14
 5228 0a2d 6900     		.ascii	"i\000"
 5229 0a2f 01       		.byte	0x1
 5230 0a30 8803     		.2byte	0x388
 5231 0a32 6B000000 		.4byte	0x6b
 5232 0a36 62080000 		.4byte	.LLST53
 5233 0a3a 15       		.uleb128 0x15
 5234 0a3b F70B0000 		.4byte	.LASF35
 5235 0a3f 01       		.byte	0x1
 5236 0a40 8903     		.2byte	0x389
 5237 0a42 6B000000 		.4byte	0x6b
 5238 0a46 EE080000 		.4byte	.LLST54
 5239 0a4a 15       		.uleb128 0x15
 5240 0a4b CF070000 		.4byte	.LASF62
 5241 0a4f 01       		.byte	0x1
 5242 0a50 8A03     		.2byte	0x38a
 5243 0a52 6B000000 		.4byte	0x6b
 5244 0a56 2D090000 		.4byte	.LLST55
 5245 0a5a 15       		.uleb128 0x15
 5246 0a5b 8A0A0000 		.4byte	.LASF76
 5247 0a5f 01       		.byte	0x1
 5248 0a60 8B03     		.2byte	0x38b
 5249 0a62 6B000000 		.4byte	0x6b
 5250 0a66 58090000 		.4byte	.LLST56
 5251 0a6a 15       		.uleb128 0x15
 5252 0a6b 7B000000 		.4byte	.LASF63
 5253 0a6f 01       		.byte	0x1
 5254 0a70 8C03     		.2byte	0x38c
 5255 0a72 6B000000 		.4byte	0x6b
 5256 0a76 8E090000 		.4byte	.LLST57
 5257 0a7a 15       		.uleb128 0x15
 5258 0a7b A90B0000 		.4byte	.LASF64
 5259 0a7f 01       		.byte	0x1
 5260 0a80 8D03     		.2byte	0x38d
 5261 0a82 6B000000 		.4byte	0x6b
 5262 0a86 A1090000 		.4byte	.LLST58
 5263 0a8a 16       		.uleb128 0x16
 5264 0a8b DC0A0000 		.4byte	.LASF65
ARM GAS  C:\Users\charl\AppData\Local\Temp\ccxfbC9q.s 			page 161


 5265 0a8f 01       		.byte	0x1
 5266 0a90 8E03     		.2byte	0x38e
 5267 0a92 9E080000 		.4byte	0x89e
 5268 0a96 02       		.uleb128 0x2
 5269 0a97 91       		.byte	0x91
 5270 0a98 58       		.sleb128 -40
 5271 0a99 15       		.uleb128 0x15
 5272 0a9a 3D030000 		.4byte	.LASF66
 5273 0a9e 01       		.byte	0x1
 5274 0a9f 8F03     		.2byte	0x38f
 5275 0aa1 83000000 		.4byte	0x83
 5276 0aa5 F8090000 		.4byte	.LLST59
 5277 0aa9 11       		.uleb128 0x11
 5278 0aaa 5C000000 		.4byte	.LVL184
 5279 0aae 56070000 		.4byte	0x756
 5280 0ab2 0F       		.uleb128 0xf
 5281 0ab3 7E000000 		.4byte	.LVL187
 5282 0ab7 4E090000 		.4byte	0x94e
 5283 0abb C60A0000 		.4byte	0xac6
 5284 0abf 10       		.uleb128 0x10
 5285 0ac0 01       		.uleb128 0x1
 5286 0ac1 50       		.byte	0x50
 5287 0ac2 02       		.uleb128 0x2
 5288 0ac3 08       		.byte	0x8
 5289 0ac4 2D       		.byte	0x2d
 5290 0ac5 00       		.byte	0
 5291 0ac6 0F       		.uleb128 0xf
 5292 0ac7 A0000000 		.4byte	.LVL189
 5293 0acb 4E090000 		.4byte	0x94e
 5294 0acf DA0A0000 		.4byte	0xada
 5295 0ad3 10       		.uleb128 0x10
 5296 0ad4 01       		.uleb128 0x1
 5297 0ad5 50       		.byte	0x50
 5298 0ad6 02       		.uleb128 0x2
 5299 0ad7 08       		.byte	0x8
 5300 0ad8 2D       		.byte	0x2d
 5301 0ad9 00       		.byte	0
 5302 0ada 12       		.uleb128 0x12
 5303 0adb B4000000 		.4byte	.LVL192
 5304 0adf 4E090000 		.4byte	0x94e
 5305 0ae3 10       		.uleb128 0x10
 5306 0ae4 01       		.uleb128 0x1
 5307 0ae5 50       		.byte	0x50
 5308 0ae6 02       		.uleb128 0x2
 5309 0ae7 08       		.byte	0x8
 5310 0ae8 2D       		.byte	0x2d
 5311 0ae9 00       		.byte	0
 5312 0aea 00       		.byte	0
 5313 0aeb 17       		.uleb128 0x17
 5314 0aec 6E010000 		.4byte	.LASF77
 5315 0af0 01       		.byte	0x1
 5316 0af1 0C05     		.2byte	0x50c
 5317 0af3 00000000 		.4byte	.LFB16
 5318 0af7 38000000 		.4byte	.LFE16-.LFB16
 5319 0afb 01       		.uleb128 0x1
 5320 0afc 9C       		.byte	0x9c
 5321 0afd 6D0B0000 		.4byte	0xb6d
ARM GAS  C:\Users\charl\AppData\Local\Temp\ccxfbC9q.s 			page 162


 5322 0b01 1A       		.uleb128 0x1a
 5323 0b02 5F030000 		.4byte	.LASF78
 5324 0b06 01       		.byte	0x1
 5325 0b07 0C05     		.2byte	0x50c
 5326 0b09 6D0B0000 		.4byte	0xb6d
 5327 0b0d 2C0A0000 		.4byte	.LLST60
 5328 0b11 1A       		.uleb128 0x1a
 5329 0b12 EE0B0000 		.4byte	.LASF34
 5330 0b16 01       		.byte	0x1
 5331 0b17 0C05     		.2byte	0x50c
 5332 0b19 6B000000 		.4byte	0x6b
 5333 0b1d 550A0000 		.4byte	.LLST61
 5334 0b21 15       		.uleb128 0x15
 5335 0b22 F70B0000 		.4byte	.LASF35
 5336 0b26 01       		.byte	0x1
 5337 0b27 0F05     		.2byte	0x50f
 5338 0b29 6B000000 		.4byte	0x6b
 5339 0b2d 810A0000 		.4byte	.LLST62
 5340 0b31 15       		.uleb128 0x15
 5341 0b32 66080000 		.4byte	.LASF79
 5342 0b36 01       		.byte	0x1
 5343 0b37 1005     		.2byte	0x510
 5344 0b39 6B000000 		.4byte	0x6b
 5345 0b3d 9F0A0000 		.4byte	.LLST63
 5346 0b41 14       		.uleb128 0x14
 5347 0b42 6900     		.ascii	"i\000"
 5348 0b44 01       		.byte	0x1
 5349 0b45 1105     		.2byte	0x511
 5350 0b47 6B000000 		.4byte	0x6b
 5351 0b4b B20A0000 		.4byte	.LLST64
 5352 0b4f 0F       		.uleb128 0xf
 5353 0b50 0C000000 		.4byte	.LVL218
 5354 0b54 40170000 		.4byte	0x1740
 5355 0b58 630B0000 		.4byte	0xb63
 5356 0b5c 10       		.uleb128 0x10
 5357 0b5d 01       		.uleb128 0x1
 5358 0b5e 50       		.byte	0x50
 5359 0b5f 02       		.uleb128 0x2
 5360 0b60 77       		.byte	0x77
 5361 0b61 00       		.sleb128 0
 5362 0b62 00       		.byte	0
 5363 0b63 11       		.uleb128 0x11
 5364 0b64 20000000 		.4byte	.LVL221
 5365 0b68 4E090000 		.4byte	0x94e
 5366 0b6c 00       		.byte	0
 5367 0b6d 09       		.uleb128 0x9
 5368 0b6e 04       		.byte	0x4
 5369 0b6f 730B0000 		.4byte	0xb73
 5370 0b73 0A       		.uleb128 0xa
 5371 0b74 A9000000 		.4byte	0xa9
 5372 0b78 17       		.uleb128 0x17
 5373 0b79 B30B0000 		.4byte	.LASF80
 5374 0b7d 01       		.byte	0x1
 5375 0b7e 5605     		.2byte	0x556
 5376 0b80 00000000 		.4byte	.LFB17
 5377 0b84 18000000 		.4byte	.LFE17-.LFB17
 5378 0b88 01       		.uleb128 0x1
ARM GAS  C:\Users\charl\AppData\Local\Temp\ccxfbC9q.s 			page 163


 5379 0b89 9C       		.byte	0x9c
 5380 0b8a C80B0000 		.4byte	0xbc8
 5381 0b8e 1A       		.uleb128 0x1a
 5382 0b8f 5F030000 		.4byte	.LASF78
 5383 0b93 01       		.byte	0x1
 5384 0b94 5605     		.2byte	0x556
 5385 0b96 A9000000 		.4byte	0xa9
 5386 0b9a E80A0000 		.4byte	.LLST65
 5387 0b9e 1A       		.uleb128 0x1a
 5388 0b9f EE0B0000 		.4byte	.LASF34
 5389 0ba3 01       		.byte	0x1
 5390 0ba4 5605     		.2byte	0x556
 5391 0ba6 6B000000 		.4byte	0x6b
 5392 0baa 140B0000 		.4byte	.LLST66
 5393 0bae 15       		.uleb128 0x15
 5394 0baf F70B0000 		.4byte	.LASF35
 5395 0bb3 01       		.byte	0x1
 5396 0bb4 5905     		.2byte	0x559
 5397 0bb6 6B000000 		.4byte	0x6b
 5398 0bba 400B0000 		.4byte	.LLST67
 5399 0bbe 11       		.uleb128 0x11
 5400 0bbf 0A000000 		.4byte	.LVL229
 5401 0bc3 4E090000 		.4byte	0x94e
 5402 0bc7 00       		.byte	0
 5403 0bc8 1B       		.uleb128 0x1b
 5404 0bc9 50060000 		.4byte	.LASF81
 5405 0bcd 01       		.byte	0x1
 5406 0bce AD0A     		.2byte	0xaad
 5407 0bd0 77000000 		.4byte	0x77
 5408 0bd4 00000000 		.4byte	.LFB36
 5409 0bd8 1C000000 		.4byte	.LFE36-.LFB36
 5410 0bdc 01       		.uleb128 0x1
 5411 0bdd 9C       		.byte	0x9c
 5412 0bde 550C0000 		.4byte	0xc55
 5413 0be2 1A       		.uleb128 0x1a
 5414 0be3 07090000 		.4byte	.LASF55
 5415 0be7 01       		.byte	0x1
 5416 0be8 AD0A     		.2byte	0xaad
 5417 0bea 6B000000 		.4byte	0x6b
 5418 0bee 530B0000 		.4byte	.LLST68
 5419 0bf2 16       		.uleb128 0x16
 5420 0bf3 570A0000 		.4byte	.LASF82
 5421 0bf7 01       		.byte	0x1
 5422 0bf8 B10A     		.2byte	0xab1
 5423 0bfa 550C0000 		.4byte	0xc55
 5424 0bfe 05       		.uleb128 0x5
 5425 0bff 03       		.byte	0x3
 5426 0c00 80000000 		.4byte	LED_Driver_Gear_14SegDigitsLow.5481
 5427 0c04 16       		.uleb128 0x16
 5428 0c05 72020000 		.4byte	.LASF83
 5429 0c09 01       		.byte	0x1
 5430 0c0a BC0A     		.2byte	0xabc
 5431 0c0c 5A0C0000 		.4byte	0xc5a
 5432 0c10 05       		.uleb128 0x5
 5433 0c11 03       		.byte	0x3
 5434 0c12 70000000 		.4byte	LED_Driver_Gear_14SegDigitsHigh.5482
 5435 0c16 15       		.uleb128 0x15
ARM GAS  C:\Users\charl\AppData\Local\Temp\ccxfbC9q.s 			page 164


 5436 0c17 15010000 		.4byte	.LASF57
 5437 0c1b 01       		.byte	0x1
 5438 0c1c DD0A     		.2byte	0xadd
 5439 0c1e 6B000000 		.4byte	0x6b
 5440 0c22 740B0000 		.4byte	.LLST69
 5441 0c26 16       		.uleb128 0x16
 5442 0c27 CF0B0000 		.4byte	.LASF73
 5443 0c2b 01       		.byte	0x1
 5444 0c2c DE0A     		.2byte	0xade
 5445 0c2e 77000000 		.4byte	0x77
 5446 0c32 01       		.uleb128 0x1
 5447 0c33 53       		.byte	0x53
 5448 0c34 15       		.uleb128 0x15
 5449 0c35 56040000 		.4byte	.LASF74
 5450 0c39 01       		.byte	0x1
 5451 0c3a DF0A     		.2byte	0xadf
 5452 0c3c 77000000 		.4byte	0x77
 5453 0c40 870B0000 		.4byte	.LLST70
 5454 0c44 15       		.uleb128 0x15
 5455 0c45 DF080000 		.4byte	.LASF58
 5456 0c49 01       		.byte	0x1
 5457 0c4a E00A     		.2byte	0xae0
 5458 0c4c 77000000 		.4byte	0x77
 5459 0c50 9E0B0000 		.4byte	.LLST71
 5460 0c54 00       		.byte	0
 5461 0c55 0A       		.uleb128 0xa
 5462 0c56 B3070000 		.4byte	0x7b3
 5463 0c5a 0A       		.uleb128 0xa
 5464 0c5b B3070000 		.4byte	0x7b3
 5465 0c5f 17       		.uleb128 0x17
 5466 0c60 42080000 		.4byte	.LASF84
 5467 0c64 01       		.byte	0x1
 5468 0c65 9906     		.2byte	0x699
 5469 0c67 00000000 		.4byte	.LFB21
 5470 0c6b C4000000 		.4byte	.LFE21-.LFB21
 5471 0c6f 01       		.uleb128 0x1
 5472 0c70 9C       		.byte	0x9c
 5473 0c71 150D0000 		.4byte	0xd15
 5474 0c75 1A       		.uleb128 0x1a
 5475 0c76 07090000 		.4byte	.LASF55
 5476 0c7a 01       		.byte	0x1
 5477 0c7b 9906     		.2byte	0x699
 5478 0c7d 83000000 		.4byte	0x83
 5479 0c81 B80B0000 		.4byte	.LLST72
 5480 0c85 1A       		.uleb128 0x1a
 5481 0c86 EE0B0000 		.4byte	.LASF34
 5482 0c8a 01       		.byte	0x1
 5483 0c8b 9906     		.2byte	0x699
 5484 0c8d 6B000000 		.4byte	0x6b
 5485 0c91 D90B0000 		.4byte	.LLST73
 5486 0c95 1A       		.uleb128 0x1a
 5487 0c96 92020000 		.4byte	.LASF60
 5488 0c9a 01       		.byte	0x1
 5489 0c9b 9906     		.2byte	0x699
 5490 0c9d 6B000000 		.4byte	0x6b
 5491 0ca1 FA0B0000 		.4byte	.LLST74
 5492 0ca5 1A       		.uleb128 0x1a
ARM GAS  C:\Users\charl\AppData\Local\Temp\ccxfbC9q.s 			page 165


 5493 0ca6 9F0B0000 		.4byte	.LASF61
 5494 0caa 01       		.byte	0x1
 5495 0cab 9906     		.2byte	0x699
 5496 0cad 6B000000 		.4byte	0x6b
 5497 0cb1 1B0C0000 		.4byte	.LLST75
 5498 0cb5 14       		.uleb128 0x14
 5499 0cb6 6900     		.ascii	"i\000"
 5500 0cb8 01       		.byte	0x1
 5501 0cb9 9C06     		.2byte	0x69c
 5502 0cbb 6B000000 		.4byte	0x6b
 5503 0cbf 3C0C0000 		.4byte	.LLST76
 5504 0cc3 15       		.uleb128 0x15
 5505 0cc4 F70B0000 		.4byte	.LASF35
 5506 0cc8 01       		.byte	0x1
 5507 0cc9 9D06     		.2byte	0x69d
 5508 0ccb 6B000000 		.4byte	0x6b
 5509 0ccf 910C0000 		.4byte	.LLST77
 5510 0cd3 15       		.uleb128 0x15
 5511 0cd4 7B000000 		.4byte	.LASF63
 5512 0cd8 01       		.byte	0x1
 5513 0cd9 9E06     		.2byte	0x69e
 5514 0cdb 6B000000 		.4byte	0x6b
 5515 0cdf BA0C0000 		.4byte	.LLST78
 5516 0ce3 16       		.uleb128 0x16
 5517 0ce4 DC0A0000 		.4byte	.LASF65
 5518 0ce8 01       		.byte	0x1
 5519 0ce9 9F06     		.2byte	0x69f
 5520 0ceb 150D0000 		.4byte	0xd15
 5521 0cef 02       		.uleb128 0x2
 5522 0cf0 91       		.byte	0x91
 5523 0cf1 58       		.sleb128 -40
 5524 0cf2 15       		.uleb128 0x15
 5525 0cf3 3D030000 		.4byte	.LASF66
 5526 0cf7 01       		.byte	0x1
 5527 0cf8 A006     		.2byte	0x6a0
 5528 0cfa 83000000 		.4byte	0x83
 5529 0cfe D10C0000 		.4byte	.LLST79
 5530 0d02 12       		.uleb128 0x12
 5531 0d03 26000000 		.4byte	.LVL240
 5532 0d07 C80B0000 		.4byte	0xbc8
 5533 0d0b 10       		.uleb128 0x10
 5534 0d0c 01       		.uleb128 0x1
 5535 0d0d 50       		.byte	0x50
 5536 0d0e 04       		.uleb128 0x4
 5537 0d0f 77       		.byte	0x77
 5538 0d10 00       		.sleb128 0
 5539 0d11 3F       		.byte	0x3f
 5540 0d12 1A       		.byte	0x1a
 5541 0d13 00       		.byte	0
 5542 0d14 00       		.byte	0
 5543 0d15 06       		.uleb128 0x6
 5544 0d16 77000000 		.4byte	0x77
 5545 0d1a 250D0000 		.4byte	0xd25
 5546 0d1e 07       		.uleb128 0x7
 5547 0d1f E9000000 		.4byte	0xe9
 5548 0d23 07       		.byte	0x7
 5549 0d24 00       		.byte	0
ARM GAS  C:\Users\charl\AppData\Local\Temp\ccxfbC9q.s 			page 166


 5550 0d25 17       		.uleb128 0x17
 5551 0d26 000B0000 		.4byte	.LASF85
 5552 0d2a 01       		.byte	0x1
 5553 0d2b 5007     		.2byte	0x750
 5554 0d2d 00000000 		.4byte	.LFB24
 5555 0d31 1C000000 		.4byte	.LFE24-.LFB24
 5556 0d35 01       		.uleb128 0x1
 5557 0d36 9C       		.byte	0x9c
 5558 0d37 750D0000 		.4byte	0xd75
 5559 0d3b 1A       		.uleb128 0x1a
 5560 0d3c CA060000 		.4byte	.LASF68
 5561 0d40 01       		.byte	0x1
 5562 0d41 5007     		.2byte	0x750
 5563 0d43 6B000000 		.4byte	0x6b
 5564 0d47 EF0C0000 		.4byte	.LLST80
 5565 0d4b 1A       		.uleb128 0x1a
 5566 0d4c EE0B0000 		.4byte	.LASF34
 5567 0d50 01       		.byte	0x1
 5568 0d51 5007     		.2byte	0x750
 5569 0d53 6B000000 		.4byte	0x6b
 5570 0d57 1B0D0000 		.4byte	.LLST81
 5571 0d5b 15       		.uleb128 0x15
 5572 0d5c 7E0A0000 		.4byte	.LASF86
 5573 0d60 01       		.byte	0x1
 5574 0d61 5307     		.2byte	0x753
 5575 0d63 77000000 		.4byte	0x77
 5576 0d67 470D0000 		.4byte	.LLST82
 5577 0d6b 11       		.uleb128 0x11
 5578 0d6c 0E000000 		.4byte	.LVL260
 5579 0d70 C80B0000 		.4byte	0xbc8
 5580 0d74 00       		.byte	0
 5581 0d75 17       		.uleb128 0x17
 5582 0d76 72060000 		.4byte	.LASF87
 5583 0d7a 01       		.byte	0x1
 5584 0d7b 7307     		.2byte	0x773
 5585 0d7d 00000000 		.4byte	.LFB25
 5586 0d81 18000000 		.4byte	.LFE25-.LFB25
 5587 0d85 01       		.uleb128 0x1
 5588 0d86 9C       		.byte	0x9c
 5589 0d87 C50D0000 		.4byte	0xdc5
 5590 0d8b 1A       		.uleb128 0x1a
 5591 0d8c CA060000 		.4byte	.LASF68
 5592 0d90 01       		.byte	0x1
 5593 0d91 7307     		.2byte	0x773
 5594 0d93 6B000000 		.4byte	0x6b
 5595 0d97 5A0D0000 		.4byte	.LLST83
 5596 0d9b 1A       		.uleb128 0x1a
 5597 0d9c EE0B0000 		.4byte	.LASF34
 5598 0da0 01       		.byte	0x1
 5599 0da1 7307     		.2byte	0x773
 5600 0da3 6B000000 		.4byte	0x6b
 5601 0da7 860D0000 		.4byte	.LLST84
 5602 0dab 15       		.uleb128 0x15
 5603 0dac 7E0A0000 		.4byte	.LASF86
 5604 0db0 01       		.byte	0x1
 5605 0db1 7607     		.2byte	0x776
 5606 0db3 77000000 		.4byte	0x77
ARM GAS  C:\Users\charl\AppData\Local\Temp\ccxfbC9q.s 			page 167


 5607 0db7 B20D0000 		.4byte	.LLST85
 5608 0dbb 11       		.uleb128 0x11
 5609 0dbc 0A000000 		.4byte	.LVL263
 5610 0dc0 C80B0000 		.4byte	0xbc8
 5611 0dc4 00       		.byte	0
 5612 0dc5 1B       		.uleb128 0x1b
 5613 0dc6 E9030000 		.4byte	.LASF88
 5614 0dca 01       		.byte	0x1
 5615 0dcb 070B     		.2byte	0xb07
 5616 0dcd 77000000 		.4byte	0x77
 5617 0dd1 00000000 		.4byte	.LFB37
 5618 0dd5 2C000000 		.4byte	.LFE37-.LFB37
 5619 0dd9 01       		.uleb128 0x1
 5620 0dda 9C       		.byte	0x9c
 5621 0ddb 620E0000 		.4byte	0xe62
 5622 0ddf 1A       		.uleb128 0x1a
 5623 0de0 00000000 		.4byte	.LASF71
 5624 0de4 01       		.byte	0x1
 5625 0de5 070B     		.2byte	0xb07
 5626 0de7 A9000000 		.4byte	0xa9
 5627 0deb C50D0000 		.4byte	.LLST86
 5628 0def 16       		.uleb128 0x16
 5629 0df0 8E010000 		.4byte	.LASF89
 5630 0df4 01       		.byte	0x1
 5631 0df5 0B0B     		.2byte	0xb0b
 5632 0df7 620E0000 		.4byte	0xe62
 5633 0dfb 05       		.uleb128 0x5
 5634 0dfc 03       		.byte	0x3
 5635 0dfd F0000000 		.4byte	LED_Driver_Gear_14SegASCIILow.5490
 5636 0e01 16       		.uleb128 0x16
 5637 0e02 D2020000 		.4byte	.LASF90
 5638 0e06 01       		.byte	0x1
 5639 0e07 400B     		.2byte	0xb40
 5640 0e09 670E0000 		.4byte	0xe67
 5641 0e0d 05       		.uleb128 0x5
 5642 0e0e 03       		.byte	0x3
 5643 0e0f 90000000 		.4byte	LED_Driver_Gear_14SegASCIIHigh.5491
 5644 0e13 16       		.uleb128 0x16
 5645 0e14 CF0B0000 		.4byte	.LASF73
 5646 0e18 01       		.byte	0x1
 5647 0e19 DF0B     		.2byte	0xbdf
 5648 0e1b 6B000000 		.4byte	0x6b
 5649 0e1f 01       		.uleb128 0x1
 5650 0e20 52       		.byte	0x52
 5651 0e21 15       		.uleb128 0x15
 5652 0e22 56040000 		.4byte	.LASF74
 5653 0e26 01       		.byte	0x1
 5654 0e27 E00B     		.2byte	0xbe0
 5655 0e29 6B000000 		.4byte	0x6b
 5656 0e2d E60D0000 		.4byte	.LLST87
 5657 0e31 15       		.uleb128 0x15
 5658 0e32 B1040000 		.4byte	.LASF91
 5659 0e36 01       		.byte	0x1
 5660 0e37 E10B     		.2byte	0xbe1
 5661 0e39 77000000 		.4byte	0x77
 5662 0e3d 110E0000 		.4byte	.LLST88
 5663 0e41 15       		.uleb128 0x15
ARM GAS  C:\Users\charl\AppData\Local\Temp\ccxfbC9q.s 			page 168


 5664 0e42 4D090000 		.4byte	.LASF92
 5665 0e46 01       		.byte	0x1
 5666 0e47 E20B     		.2byte	0xbe2
 5667 0e49 77000000 		.4byte	0x77
 5668 0e4d 240E0000 		.4byte	.LLST89
 5669 0e51 15       		.uleb128 0x15
 5670 0e52 DF080000 		.4byte	.LASF58
 5671 0e56 01       		.byte	0x1
 5672 0e57 E30B     		.2byte	0xbe3
 5673 0e59 77000000 		.4byte	0x77
 5674 0e5d 3B0E0000 		.4byte	.LLST90
 5675 0e61 00       		.byte	0
 5676 0e62 0A       		.uleb128 0xa
 5677 0e63 BB090000 		.4byte	0x9bb
 5678 0e67 0A       		.uleb128 0xa
 5679 0e68 BB090000 		.4byte	0x9bb
 5680 0e6c 17       		.uleb128 0x17
 5681 0e6d 92000000 		.4byte	.LASF93
 5682 0e71 01       		.byte	0x1
 5683 0e72 FC05     		.2byte	0x5fc
 5684 0e74 00000000 		.4byte	.LFB20
 5685 0e78 34010000 		.4byte	.LFE20-.LFB20
 5686 0e7c 01       		.uleb128 0x1
 5687 0e7d 9C       		.byte	0x9c
 5688 0e7e 710F0000 		.4byte	0xf71
 5689 0e82 1A       		.uleb128 0x1a
 5690 0e83 07090000 		.4byte	.LASF55
 5691 0e87 01       		.byte	0x1
 5692 0e88 FC05     		.2byte	0x5fc
 5693 0e8a 8F000000 		.4byte	0x8f
 5694 0e8e 590E0000 		.4byte	.LLST91
 5695 0e92 1A       		.uleb128 0x1a
 5696 0e93 EE0B0000 		.4byte	.LASF34
 5697 0e97 01       		.byte	0x1
 5698 0e98 FC05     		.2byte	0x5fc
 5699 0e9a 6B000000 		.4byte	0x6b
 5700 0e9e 7A0E0000 		.4byte	.LLST92
 5701 0ea2 1A       		.uleb128 0x1a
 5702 0ea3 92020000 		.4byte	.LASF60
 5703 0ea7 01       		.byte	0x1
 5704 0ea8 FC05     		.2byte	0x5fc
 5705 0eaa 6B000000 		.4byte	0x6b
 5706 0eae 9B0E0000 		.4byte	.LLST93
 5707 0eb2 1A       		.uleb128 0x1a
 5708 0eb3 9F0B0000 		.4byte	.LASF61
 5709 0eb7 01       		.byte	0x1
 5710 0eb8 FC05     		.2byte	0x5fc
 5711 0eba 6B000000 		.4byte	0x6b
 5712 0ebe D50E0000 		.4byte	.LLST94
 5713 0ec2 14       		.uleb128 0x14
 5714 0ec3 6900     		.ascii	"i\000"
 5715 0ec5 01       		.byte	0x1
 5716 0ec6 FF05     		.2byte	0x5ff
 5717 0ec8 6B000000 		.4byte	0x6b
 5718 0ecc F60E0000 		.4byte	.LLST95
 5719 0ed0 15       		.uleb128 0x15
 5720 0ed1 F70B0000 		.4byte	.LASF35
ARM GAS  C:\Users\charl\AppData\Local\Temp\ccxfbC9q.s 			page 169


 5721 0ed5 01       		.byte	0x1
 5722 0ed6 0006     		.2byte	0x600
 5723 0ed8 6B000000 		.4byte	0x6b
 5724 0edc 820F0000 		.4byte	.LLST96
 5725 0ee0 15       		.uleb128 0x15
 5726 0ee1 8A0A0000 		.4byte	.LASF76
 5727 0ee5 01       		.byte	0x1
 5728 0ee6 0106     		.2byte	0x601
 5729 0ee8 6B000000 		.4byte	0x6b
 5730 0eec AB0F0000 		.4byte	.LLST97
 5731 0ef0 15       		.uleb128 0x15
 5732 0ef1 7B000000 		.4byte	.LASF63
 5733 0ef5 01       		.byte	0x1
 5734 0ef6 0206     		.2byte	0x602
 5735 0ef8 6B000000 		.4byte	0x6b
 5736 0efc E10F0000 		.4byte	.LLST98
 5737 0f00 15       		.uleb128 0x15
 5738 0f01 A90B0000 		.4byte	.LASF64
 5739 0f05 01       		.byte	0x1
 5740 0f06 0306     		.2byte	0x603
 5741 0f08 6B000000 		.4byte	0x6b
 5742 0f0c F40F0000 		.4byte	.LLST99
 5743 0f10 16       		.uleb128 0x16
 5744 0f11 DC0A0000 		.4byte	.LASF65
 5745 0f15 01       		.byte	0x1
 5746 0f16 0406     		.2byte	0x604
 5747 0f18 150D0000 		.4byte	0xd15
 5748 0f1c 02       		.uleb128 0x2
 5749 0f1d 91       		.byte	0x91
 5750 0f1e 50       		.sleb128 -48
 5751 0f1f 15       		.uleb128 0x15
 5752 0f20 3D030000 		.4byte	.LASF66
 5753 0f24 01       		.byte	0x1
 5754 0f25 0506     		.2byte	0x605
 5755 0f27 83000000 		.4byte	0x83
 5756 0f2b 4B100000 		.4byte	.LLST100
 5757 0f2f 11       		.uleb128 0x11
 5758 0f30 44000000 		.4byte	.LVL286
 5759 0f34 C80B0000 		.4byte	0xbc8
 5760 0f38 0F       		.uleb128 0xf
 5761 0f39 64000000 		.4byte	.LVL289
 5762 0f3d C50D0000 		.4byte	0xdc5
 5763 0f41 4C0F0000 		.4byte	0xf4c
 5764 0f45 10       		.uleb128 0x10
 5765 0f46 01       		.uleb128 0x1
 5766 0f47 50       		.byte	0x50
 5767 0f48 02       		.uleb128 0x2
 5768 0f49 08       		.byte	0x8
 5769 0f4a 2D       		.byte	0x2d
 5770 0f4b 00       		.byte	0
 5771 0f4c 0F       		.uleb128 0xf
 5772 0f4d 88000000 		.4byte	.LVL291
 5773 0f51 C50D0000 		.4byte	0xdc5
 5774 0f55 600F0000 		.4byte	0xf60
 5775 0f59 10       		.uleb128 0x10
 5776 0f5a 01       		.uleb128 0x1
 5777 0f5b 50       		.byte	0x50
ARM GAS  C:\Users\charl\AppData\Local\Temp\ccxfbC9q.s 			page 170


 5778 0f5c 02       		.uleb128 0x2
 5779 0f5d 08       		.byte	0x8
 5780 0f5e 2D       		.byte	0x2d
 5781 0f5f 00       		.byte	0
 5782 0f60 12       		.uleb128 0x12
 5783 0f61 9C000000 		.4byte	.LVL294
 5784 0f65 C50D0000 		.4byte	0xdc5
 5785 0f69 10       		.uleb128 0x10
 5786 0f6a 01       		.uleb128 0x1
 5787 0f6b 50       		.byte	0x50
 5788 0f6c 02       		.uleb128 0x2
 5789 0f6d 08       		.byte	0x8
 5790 0f6e 2D       		.byte	0x2d
 5791 0f6f 00       		.byte	0
 5792 0f70 00       		.byte	0
 5793 0f71 17       		.uleb128 0x17
 5794 0f72 E6080000 		.4byte	.LASF94
 5795 0f76 01       		.byte	0x1
 5796 0f77 0007     		.2byte	0x700
 5797 0f79 00000000 		.4byte	.LFB22
 5798 0f7d 34000000 		.4byte	.LFE22-.LFB22
 5799 0f81 01       		.uleb128 0x1
 5800 0f82 9C       		.byte	0x9c
 5801 0f83 03100000 		.4byte	0x1003
 5802 0f87 1A       		.uleb128 0x1a
 5803 0f88 5F030000 		.4byte	.LASF78
 5804 0f8c 01       		.byte	0x1
 5805 0f8d 0007     		.2byte	0x700
 5806 0f8f 6D0B0000 		.4byte	0xb6d
 5807 0f93 7F100000 		.4byte	.LLST101
 5808 0f97 1A       		.uleb128 0x1a
 5809 0f98 EE0B0000 		.4byte	.LASF34
 5810 0f9c 01       		.byte	0x1
 5811 0f9d 0007     		.2byte	0x700
 5812 0f9f 6B000000 		.4byte	0x6b
 5813 0fa3 AB100000 		.4byte	.LLST102
 5814 0fa7 15       		.uleb128 0x15
 5815 0fa8 30030000 		.4byte	.LASF95
 5816 0fac 01       		.byte	0x1
 5817 0fad 0307     		.2byte	0x703
 5818 0faf 6B000000 		.4byte	0x6b
 5819 0fb3 CC100000 		.4byte	.LLST103
 5820 0fb7 15       		.uleb128 0x15
 5821 0fb8 66080000 		.4byte	.LASF79
 5822 0fbc 01       		.byte	0x1
 5823 0fbd 0407     		.2byte	0x704
 5824 0fbf 6B000000 		.4byte	0x6b
 5825 0fc3 EA100000 		.4byte	.LLST104
 5826 0fc7 14       		.uleb128 0x14
 5827 0fc8 6900     		.ascii	"i\000"
 5828 0fca 01       		.byte	0x1
 5829 0fcb 0507     		.2byte	0x705
 5830 0fcd 6B000000 		.4byte	0x6b
 5831 0fd1 FD100000 		.4byte	.LLST105
 5832 0fd5 15       		.uleb128 0x15
 5833 0fd6 7E0A0000 		.4byte	.LASF86
 5834 0fda 01       		.byte	0x1
ARM GAS  C:\Users\charl\AppData\Local\Temp\ccxfbC9q.s 			page 171


 5835 0fdb 0607     		.2byte	0x706
 5836 0fdd 77000000 		.4byte	0x77
 5837 0fe1 27110000 		.4byte	.LLST106
 5838 0fe5 0F       		.uleb128 0xf
 5839 0fe6 0A000000 		.4byte	.LVL321
 5840 0fea 40170000 		.4byte	0x1740
 5841 0fee F90F0000 		.4byte	0xff9
 5842 0ff2 10       		.uleb128 0x10
 5843 0ff3 01       		.uleb128 0x1
 5844 0ff4 50       		.byte	0x50
 5845 0ff5 02       		.uleb128 0x2
 5846 0ff6 77       		.byte	0x77
 5847 0ff7 00       		.sleb128 0
 5848 0ff8 00       		.byte	0
 5849 0ff9 11       		.uleb128 0x11
 5850 0ffa 1E000000 		.4byte	.LVL324
 5851 0ffe C50D0000 		.4byte	0xdc5
 5852 1002 00       		.byte	0
 5853 1003 17       		.uleb128 0x17
 5854 1004 D9010000 		.4byte	.LASF96
 5855 1008 01       		.byte	0x1
 5856 1009 2D07     		.2byte	0x72d
 5857 100b 00000000 		.4byte	.LFB23
 5858 100f 18000000 		.4byte	.LFE23-.LFB23
 5859 1013 01       		.uleb128 0x1
 5860 1014 9C       		.byte	0x9c
 5861 1015 53100000 		.4byte	0x1053
 5862 1019 1A       		.uleb128 0x1a
 5863 101a 5F030000 		.4byte	.LASF78
 5864 101e 01       		.byte	0x1
 5865 101f 2D07     		.2byte	0x72d
 5866 1021 A9000000 		.4byte	0xa9
 5867 1025 3A110000 		.4byte	.LLST107
 5868 1029 1A       		.uleb128 0x1a
 5869 102a EE0B0000 		.4byte	.LASF34
 5870 102e 01       		.byte	0x1
 5871 102f 2D07     		.2byte	0x72d
 5872 1031 6B000000 		.4byte	0x6b
 5873 1035 66110000 		.4byte	.LLST108
 5874 1039 15       		.uleb128 0x15
 5875 103a 7E0A0000 		.4byte	.LASF86
 5876 103e 01       		.byte	0x1
 5877 103f 3007     		.2byte	0x730
 5878 1041 77000000 		.4byte	0x77
 5879 1045 92110000 		.4byte	.LLST109
 5880 1049 11       		.uleb128 0x11
 5881 104a 0A000000 		.4byte	.LVL331
 5882 104e C50D0000 		.4byte	0xdc5
 5883 1052 00       		.byte	0
 5884 1053 1B       		.uleb128 0x1b
 5885 1054 F5070000 		.4byte	.LASF97
 5886 1058 01       		.byte	0x1
 5887 1059 160C     		.2byte	0xc16
 5888 105b 77000000 		.4byte	0x77
 5889 105f 00000000 		.4byte	.LFB38
 5890 1063 1C000000 		.4byte	.LFE38-.LFB38
 5891 1067 01       		.uleb128 0x1
ARM GAS  C:\Users\charl\AppData\Local\Temp\ccxfbC9q.s 			page 172


 5892 1068 9C       		.byte	0x9c
 5893 1069 E0100000 		.4byte	0x10e0
 5894 106d 1A       		.uleb128 0x1a
 5895 106e 07090000 		.4byte	.LASF55
 5896 1072 01       		.byte	0x1
 5897 1073 160C     		.2byte	0xc16
 5898 1075 6B000000 		.4byte	0x6b
 5899 1079 A5110000 		.4byte	.LLST110
 5900 107d 16       		.uleb128 0x16
 5901 107e 19040000 		.4byte	.LASF98
 5902 1082 01       		.byte	0x1
 5903 1083 1A0C     		.2byte	0xc1a
 5904 1085 E0100000 		.4byte	0x10e0
 5905 1089 05       		.uleb128 0x5
 5906 108a 03       		.byte	0x3
 5907 108b 60010000 		.4byte	LED_Driver_Gear_16SegDigitsLow.5500
 5908 108f 16       		.uleb128 0x16
 5909 1090 3F010000 		.4byte	.LASF99
 5910 1094 01       		.byte	0x1
 5911 1095 250C     		.2byte	0xc25
 5912 1097 E5100000 		.4byte	0x10e5
 5913 109b 05       		.uleb128 0x5
 5914 109c 03       		.byte	0x3
 5915 109d 50010000 		.4byte	LED_Driver_Gear_16SegDigitsHigh.5501
 5916 10a1 15       		.uleb128 0x15
 5917 10a2 15010000 		.4byte	.LASF57
 5918 10a6 01       		.byte	0x1
 5919 10a7 460C     		.2byte	0xc46
 5920 10a9 6B000000 		.4byte	0x6b
 5921 10ad C6110000 		.4byte	.LLST111
 5922 10b1 16       		.uleb128 0x16
 5923 10b2 CF0B0000 		.4byte	.LASF73
 5924 10b6 01       		.byte	0x1
 5925 10b7 470C     		.2byte	0xc47
 5926 10b9 77000000 		.4byte	0x77
 5927 10bd 01       		.uleb128 0x1
 5928 10be 53       		.byte	0x53
 5929 10bf 15       		.uleb128 0x15
 5930 10c0 56040000 		.4byte	.LASF74
 5931 10c4 01       		.byte	0x1
 5932 10c5 480C     		.2byte	0xc48
 5933 10c7 77000000 		.4byte	0x77
 5934 10cb D9110000 		.4byte	.LLST112
 5935 10cf 15       		.uleb128 0x15
 5936 10d0 DF080000 		.4byte	.LASF58
 5937 10d4 01       		.byte	0x1
 5938 10d5 490C     		.2byte	0xc49
 5939 10d7 77000000 		.4byte	0x77
 5940 10db F0110000 		.4byte	.LLST113
 5941 10df 00       		.byte	0
 5942 10e0 0A       		.uleb128 0xa
 5943 10e1 B3070000 		.4byte	0x7b3
 5944 10e5 0A       		.uleb128 0xa
 5945 10e6 B3070000 		.4byte	0x7b3
 5946 10ea 17       		.uleb128 0x17
 5947 10eb 0E090000 		.4byte	.LASF100
 5948 10ef 01       		.byte	0x1
ARM GAS  C:\Users\charl\AppData\Local\Temp\ccxfbC9q.s 			page 173


 5949 10f0 3F08     		.2byte	0x83f
 5950 10f2 00000000 		.4byte	.LFB27
 5951 10f6 C4000000 		.4byte	.LFE27-.LFB27
 5952 10fa 01       		.uleb128 0x1
 5953 10fb 9C       		.byte	0x9c
 5954 10fc A0110000 		.4byte	0x11a0
 5955 1100 1A       		.uleb128 0x1a
 5956 1101 07090000 		.4byte	.LASF55
 5957 1105 01       		.byte	0x1
 5958 1106 3F08     		.2byte	0x83f
 5959 1108 83000000 		.4byte	0x83
 5960 110c 0A120000 		.4byte	.LLST114
 5961 1110 1A       		.uleb128 0x1a
 5962 1111 EE0B0000 		.4byte	.LASF34
 5963 1115 01       		.byte	0x1
 5964 1116 3F08     		.2byte	0x83f
 5965 1118 6B000000 		.4byte	0x6b
 5966 111c 2B120000 		.4byte	.LLST115
 5967 1120 1A       		.uleb128 0x1a
 5968 1121 92020000 		.4byte	.LASF60
 5969 1125 01       		.byte	0x1
 5970 1126 3F08     		.2byte	0x83f
 5971 1128 6B000000 		.4byte	0x6b
 5972 112c 4C120000 		.4byte	.LLST116
 5973 1130 1A       		.uleb128 0x1a
 5974 1131 9F0B0000 		.4byte	.LASF61
 5975 1135 01       		.byte	0x1
 5976 1136 3F08     		.2byte	0x83f
 5977 1138 6B000000 		.4byte	0x6b
 5978 113c 6D120000 		.4byte	.LLST117
 5979 1140 14       		.uleb128 0x14
 5980 1141 6900     		.ascii	"i\000"
 5981 1143 01       		.byte	0x1
 5982 1144 4208     		.2byte	0x842
 5983 1146 6B000000 		.4byte	0x6b
 5984 114a 8E120000 		.4byte	.LLST118
 5985 114e 15       		.uleb128 0x15
 5986 114f F70B0000 		.4byte	.LASF35
 5987 1153 01       		.byte	0x1
 5988 1154 4308     		.2byte	0x843
 5989 1156 6B000000 		.4byte	0x6b
 5990 115a E3120000 		.4byte	.LLST119
 5991 115e 15       		.uleb128 0x15
 5992 115f 7B000000 		.4byte	.LASF63
 5993 1163 01       		.byte	0x1
 5994 1164 4408     		.2byte	0x844
 5995 1166 6B000000 		.4byte	0x6b
 5996 116a 0C130000 		.4byte	.LLST120
 5997 116e 16       		.uleb128 0x16
 5998 116f DC0A0000 		.4byte	.LASF65
 5999 1173 01       		.byte	0x1
 6000 1174 4508     		.2byte	0x845
 6001 1176 150D0000 		.4byte	0xd15
 6002 117a 02       		.uleb128 0x2
 6003 117b 91       		.byte	0x91
 6004 117c 58       		.sleb128 -40
 6005 117d 15       		.uleb128 0x15
ARM GAS  C:\Users\charl\AppData\Local\Temp\ccxfbC9q.s 			page 174


 6006 117e 3D030000 		.4byte	.LASF66
 6007 1182 01       		.byte	0x1
 6008 1183 4608     		.2byte	0x846
 6009 1185 83000000 		.4byte	0x83
 6010 1189 23130000 		.4byte	.LLST121
 6011 118d 12       		.uleb128 0x12
 6012 118e 26000000 		.4byte	.LVL342
 6013 1192 53100000 		.4byte	0x1053
 6014 1196 10       		.uleb128 0x10
 6015 1197 01       		.uleb128 0x1
 6016 1198 50       		.byte	0x50
 6017 1199 04       		.uleb128 0x4
 6018 119a 77       		.byte	0x77
 6019 119b 00       		.sleb128 0
 6020 119c 3F       		.byte	0x3f
 6021 119d 1A       		.byte	0x1a
 6022 119e 00       		.byte	0
 6023 119f 00       		.byte	0
 6024 11a0 17       		.uleb128 0x17
 6025 11a1 34070000 		.4byte	.LASF101
 6026 11a5 01       		.byte	0x1
 6027 11a6 F308     		.2byte	0x8f3
 6028 11a8 00000000 		.4byte	.LFB30
 6029 11ac 1C000000 		.4byte	.LFE30-.LFB30
 6030 11b0 01       		.uleb128 0x1
 6031 11b1 9C       		.byte	0x9c
 6032 11b2 F0110000 		.4byte	0x11f0
 6033 11b6 1A       		.uleb128 0x1a
 6034 11b7 CA060000 		.4byte	.LASF68
 6035 11bb 01       		.byte	0x1
 6036 11bc F308     		.2byte	0x8f3
 6037 11be 6B000000 		.4byte	0x6b
 6038 11c2 41130000 		.4byte	.LLST122
 6039 11c6 1A       		.uleb128 0x1a
 6040 11c7 EE0B0000 		.4byte	.LASF34
 6041 11cb 01       		.byte	0x1
 6042 11cc F308     		.2byte	0x8f3
 6043 11ce 6B000000 		.4byte	0x6b
 6044 11d2 6D130000 		.4byte	.LLST123
 6045 11d6 15       		.uleb128 0x15
 6046 11d7 7E0A0000 		.4byte	.LASF86
 6047 11db 01       		.byte	0x1
 6048 11dc F608     		.2byte	0x8f6
 6049 11de 77000000 		.4byte	0x77
 6050 11e2 99130000 		.4byte	.LLST124
 6051 11e6 11       		.uleb128 0x11
 6052 11e7 0E000000 		.4byte	.LVL362
 6053 11eb 53100000 		.4byte	0x1053
 6054 11ef 00       		.byte	0
 6055 11f0 17       		.uleb128 0x17
 6056 11f1 1C010000 		.4byte	.LASF102
 6057 11f5 01       		.byte	0x1
 6058 11f6 1509     		.2byte	0x915
 6059 11f8 00000000 		.4byte	.LFB31
 6060 11fc 18000000 		.4byte	.LFE31-.LFB31
 6061 1200 01       		.uleb128 0x1
 6062 1201 9C       		.byte	0x9c
ARM GAS  C:\Users\charl\AppData\Local\Temp\ccxfbC9q.s 			page 175


 6063 1202 40120000 		.4byte	0x1240
 6064 1206 1A       		.uleb128 0x1a
 6065 1207 CA060000 		.4byte	.LASF68
 6066 120b 01       		.byte	0x1
 6067 120c 1509     		.2byte	0x915
 6068 120e 6B000000 		.4byte	0x6b
 6069 1212 AC130000 		.4byte	.LLST125
 6070 1216 1A       		.uleb128 0x1a
 6071 1217 EE0B0000 		.4byte	.LASF34
 6072 121b 01       		.byte	0x1
 6073 121c 1509     		.2byte	0x915
 6074 121e 6B000000 		.4byte	0x6b
 6075 1222 D8130000 		.4byte	.LLST126
 6076 1226 15       		.uleb128 0x15
 6077 1227 7E0A0000 		.4byte	.LASF86
 6078 122b 01       		.byte	0x1
 6079 122c 1809     		.2byte	0x918
 6080 122e 77000000 		.4byte	0x77
 6081 1232 04140000 		.4byte	.LLST127
 6082 1236 11       		.uleb128 0x11
 6083 1237 0A000000 		.4byte	.LVL365
 6084 123b 53100000 		.4byte	0x1053
 6085 123f 00       		.byte	0
 6086 1240 1B       		.uleb128 0x1b
 6087 1241 30060000 		.4byte	.LASF103
 6088 1245 01       		.byte	0x1
 6089 1246 6F0C     		.2byte	0xc6f
 6090 1248 77000000 		.4byte	0x77
 6091 124c 00000000 		.4byte	.LFB39
 6092 1250 2C000000 		.4byte	.LFE39-.LFB39
 6093 1254 01       		.uleb128 0x1
 6094 1255 9C       		.byte	0x9c
 6095 1256 DD120000 		.4byte	0x12dd
 6096 125a 1A       		.uleb128 0x1a
 6097 125b 00000000 		.4byte	.LASF71
 6098 125f 01       		.byte	0x1
 6099 1260 6F0C     		.2byte	0xc6f
 6100 1262 A9000000 		.4byte	0xa9
 6101 1266 17140000 		.4byte	.LLST128
 6102 126a 16       		.uleb128 0x16
 6103 126b 38040000 		.4byte	.LASF104
 6104 126f 01       		.byte	0x1
 6105 1270 730C     		.2byte	0xc73
 6106 1272 DD120000 		.4byte	0x12dd
 6107 1276 05       		.uleb128 0x5
 6108 1277 03       		.byte	0x3
 6109 1278 D0010000 		.4byte	LED_Driver_Gear_16SegASCIILow.5509
 6110 127c 16       		.uleb128 0x16
 6111 127d 91030000 		.4byte	.LASF105
 6112 1281 01       		.byte	0x1
 6113 1282 A80C     		.2byte	0xca8
 6114 1284 E2120000 		.4byte	0x12e2
 6115 1288 05       		.uleb128 0x5
 6116 1289 03       		.byte	0x3
 6117 128a 70010000 		.4byte	LED_Driver_Gear_16SegASCIIHigh.5510
 6118 128e 16       		.uleb128 0x16
 6119 128f CF0B0000 		.4byte	.LASF73
ARM GAS  C:\Users\charl\AppData\Local\Temp\ccxfbC9q.s 			page 176


 6120 1293 01       		.byte	0x1
 6121 1294 470D     		.2byte	0xd47
 6122 1296 6B000000 		.4byte	0x6b
 6123 129a 01       		.uleb128 0x1
 6124 129b 52       		.byte	0x52
 6125 129c 15       		.uleb128 0x15
 6126 129d 56040000 		.4byte	.LASF74
 6127 12a1 01       		.byte	0x1
 6128 12a2 480D     		.2byte	0xd48
 6129 12a4 6B000000 		.4byte	0x6b
 6130 12a8 38140000 		.4byte	.LLST129
 6131 12ac 15       		.uleb128 0x15
 6132 12ad B1040000 		.4byte	.LASF91
 6133 12b1 01       		.byte	0x1
 6134 12b2 490D     		.2byte	0xd49
 6135 12b4 77000000 		.4byte	0x77
 6136 12b8 63140000 		.4byte	.LLST130
 6137 12bc 15       		.uleb128 0x15
 6138 12bd 4D090000 		.4byte	.LASF92
 6139 12c1 01       		.byte	0x1
 6140 12c2 4A0D     		.2byte	0xd4a
 6141 12c4 77000000 		.4byte	0x77
 6142 12c8 76140000 		.4byte	.LLST131
 6143 12cc 15       		.uleb128 0x15
 6144 12cd DF080000 		.4byte	.LASF58
 6145 12d1 01       		.byte	0x1
 6146 12d2 4B0D     		.2byte	0xd4b
 6147 12d4 77000000 		.4byte	0x77
 6148 12d8 8D140000 		.4byte	.LLST132
 6149 12dc 00       		.byte	0
 6150 12dd 0A       		.uleb128 0xa
 6151 12de BB090000 		.4byte	0x9bb
 6152 12e2 0A       		.uleb128 0xa
 6153 12e3 BB090000 		.4byte	0x9bb
 6154 12e7 17       		.uleb128 0x17
 6155 12e8 0D000000 		.4byte	.LASF106
 6156 12ec 01       		.byte	0x1
 6157 12ed A507     		.2byte	0x7a5
 6158 12ef 00000000 		.4byte	.LFB26
 6159 12f3 34010000 		.4byte	.LFE26-.LFB26
 6160 12f7 01       		.uleb128 0x1
 6161 12f8 9C       		.byte	0x9c
 6162 12f9 EC130000 		.4byte	0x13ec
 6163 12fd 1A       		.uleb128 0x1a
 6164 12fe 07090000 		.4byte	.LASF55
 6165 1302 01       		.byte	0x1
 6166 1303 A507     		.2byte	0x7a5
 6167 1305 8F000000 		.4byte	0x8f
 6168 1309 AB140000 		.4byte	.LLST133
 6169 130d 1A       		.uleb128 0x1a
 6170 130e EE0B0000 		.4byte	.LASF34
 6171 1312 01       		.byte	0x1
 6172 1313 A507     		.2byte	0x7a5
 6173 1315 6B000000 		.4byte	0x6b
 6174 1319 CC140000 		.4byte	.LLST134
 6175 131d 1A       		.uleb128 0x1a
 6176 131e 92020000 		.4byte	.LASF60
ARM GAS  C:\Users\charl\AppData\Local\Temp\ccxfbC9q.s 			page 177


 6177 1322 01       		.byte	0x1
 6178 1323 A507     		.2byte	0x7a5
 6179 1325 6B000000 		.4byte	0x6b
 6180 1329 ED140000 		.4byte	.LLST135
 6181 132d 1A       		.uleb128 0x1a
 6182 132e 9F0B0000 		.4byte	.LASF61
 6183 1332 01       		.byte	0x1
 6184 1333 A507     		.2byte	0x7a5
 6185 1335 6B000000 		.4byte	0x6b
 6186 1339 27150000 		.4byte	.LLST136
 6187 133d 14       		.uleb128 0x14
 6188 133e 6900     		.ascii	"i\000"
 6189 1340 01       		.byte	0x1
 6190 1341 A807     		.2byte	0x7a8
 6191 1343 6B000000 		.4byte	0x6b
 6192 1347 48150000 		.4byte	.LLST137
 6193 134b 15       		.uleb128 0x15
 6194 134c F70B0000 		.4byte	.LASF35
 6195 1350 01       		.byte	0x1
 6196 1351 A907     		.2byte	0x7a9
 6197 1353 6B000000 		.4byte	0x6b
 6198 1357 D4150000 		.4byte	.LLST138
 6199 135b 15       		.uleb128 0x15
 6200 135c 8A0A0000 		.4byte	.LASF76
 6201 1360 01       		.byte	0x1
 6202 1361 AA07     		.2byte	0x7aa
 6203 1363 6B000000 		.4byte	0x6b
 6204 1367 FD150000 		.4byte	.LLST139
 6205 136b 15       		.uleb128 0x15
 6206 136c 7B000000 		.4byte	.LASF63
 6207 1370 01       		.byte	0x1
 6208 1371 AB07     		.2byte	0x7ab
 6209 1373 6B000000 		.4byte	0x6b
 6210 1377 33160000 		.4byte	.LLST140
 6211 137b 15       		.uleb128 0x15
 6212 137c A90B0000 		.4byte	.LASF64
 6213 1380 01       		.byte	0x1
 6214 1381 AC07     		.2byte	0x7ac
 6215 1383 6B000000 		.4byte	0x6b
 6216 1387 46160000 		.4byte	.LLST141
 6217 138b 16       		.uleb128 0x16
 6218 138c DC0A0000 		.4byte	.LASF65
 6219 1390 01       		.byte	0x1
 6220 1391 AD07     		.2byte	0x7ad
 6221 1393 150D0000 		.4byte	0xd15
 6222 1397 02       		.uleb128 0x2
 6223 1398 91       		.byte	0x91
 6224 1399 50       		.sleb128 -48
 6225 139a 15       		.uleb128 0x15
 6226 139b 3D030000 		.4byte	.LASF66
 6227 139f 01       		.byte	0x1
 6228 13a0 AE07     		.2byte	0x7ae
 6229 13a2 83000000 		.4byte	0x83
 6230 13a6 9D160000 		.4byte	.LLST142
 6231 13aa 11       		.uleb128 0x11
 6232 13ab 44000000 		.4byte	.LVL388
 6233 13af 53100000 		.4byte	0x1053
ARM GAS  C:\Users\charl\AppData\Local\Temp\ccxfbC9q.s 			page 178


 6234 13b3 0F       		.uleb128 0xf
 6235 13b4 64000000 		.4byte	.LVL391
 6236 13b8 40120000 		.4byte	0x1240
 6237 13bc C7130000 		.4byte	0x13c7
 6238 13c0 10       		.uleb128 0x10
 6239 13c1 01       		.uleb128 0x1
 6240 13c2 50       		.byte	0x50
 6241 13c3 02       		.uleb128 0x2
 6242 13c4 08       		.byte	0x8
 6243 13c5 2D       		.byte	0x2d
 6244 13c6 00       		.byte	0
 6245 13c7 0F       		.uleb128 0xf
 6246 13c8 88000000 		.4byte	.LVL393
 6247 13cc 40120000 		.4byte	0x1240
 6248 13d0 DB130000 		.4byte	0x13db
 6249 13d4 10       		.uleb128 0x10
 6250 13d5 01       		.uleb128 0x1
 6251 13d6 50       		.byte	0x50
 6252 13d7 02       		.uleb128 0x2
 6253 13d8 08       		.byte	0x8
 6254 13d9 2D       		.byte	0x2d
 6255 13da 00       		.byte	0
 6256 13db 12       		.uleb128 0x12
 6257 13dc 9C000000 		.4byte	.LVL396
 6258 13e0 40120000 		.4byte	0x1240
 6259 13e4 10       		.uleb128 0x10
 6260 13e5 01       		.uleb128 0x1
 6261 13e6 50       		.byte	0x50
 6262 13e7 02       		.uleb128 0x2
 6263 13e8 08       		.byte	0x8
 6264 13e9 2D       		.byte	0x2d
 6265 13ea 00       		.byte	0
 6266 13eb 00       		.byte	0
 6267 13ec 17       		.uleb128 0x17
 6268 13ed 950A0000 		.4byte	.LASF107
 6269 13f1 01       		.byte	0x1
 6270 13f2 A508     		.2byte	0x8a5
 6271 13f4 00000000 		.4byte	.LFB28
 6272 13f8 34000000 		.4byte	.LFE28-.LFB28
 6273 13fc 01       		.uleb128 0x1
 6274 13fd 9C       		.byte	0x9c
 6275 13fe 7E140000 		.4byte	0x147e
 6276 1402 1A       		.uleb128 0x1a
 6277 1403 5F030000 		.4byte	.LASF78
 6278 1407 01       		.byte	0x1
 6279 1408 A508     		.2byte	0x8a5
 6280 140a 6D0B0000 		.4byte	0xb6d
 6281 140e D1160000 		.4byte	.LLST143
 6282 1412 1A       		.uleb128 0x1a
 6283 1413 EE0B0000 		.4byte	.LASF34
 6284 1417 01       		.byte	0x1
 6285 1418 A508     		.2byte	0x8a5
 6286 141a 6B000000 		.4byte	0x6b
 6287 141e FD160000 		.4byte	.LLST144
 6288 1422 15       		.uleb128 0x15
 6289 1423 30030000 		.4byte	.LASF95
 6290 1427 01       		.byte	0x1
ARM GAS  C:\Users\charl\AppData\Local\Temp\ccxfbC9q.s 			page 179


 6291 1428 A808     		.2byte	0x8a8
 6292 142a 6B000000 		.4byte	0x6b
 6293 142e 1E170000 		.4byte	.LLST145
 6294 1432 15       		.uleb128 0x15
 6295 1433 66080000 		.4byte	.LASF79
 6296 1437 01       		.byte	0x1
 6297 1438 A908     		.2byte	0x8a9
 6298 143a 6B000000 		.4byte	0x6b
 6299 143e 3C170000 		.4byte	.LLST146
 6300 1442 14       		.uleb128 0x14
 6301 1443 6900     		.ascii	"i\000"
 6302 1445 01       		.byte	0x1
 6303 1446 AA08     		.2byte	0x8aa
 6304 1448 6B000000 		.4byte	0x6b
 6305 144c 4F170000 		.4byte	.LLST147
 6306 1450 15       		.uleb128 0x15
 6307 1451 7E0A0000 		.4byte	.LASF86
 6308 1455 01       		.byte	0x1
 6309 1456 AB08     		.2byte	0x8ab
 6310 1458 77000000 		.4byte	0x77
 6311 145c 79170000 		.4byte	.LLST148
 6312 1460 0F       		.uleb128 0xf
 6313 1461 0A000000 		.4byte	.LVL423
 6314 1465 40170000 		.4byte	0x1740
 6315 1469 74140000 		.4byte	0x1474
 6316 146d 10       		.uleb128 0x10
 6317 146e 01       		.uleb128 0x1
 6318 146f 50       		.byte	0x50
 6319 1470 02       		.uleb128 0x2
 6320 1471 77       		.byte	0x77
 6321 1472 00       		.sleb128 0
 6322 1473 00       		.byte	0
 6323 1474 11       		.uleb128 0x11
 6324 1475 1E000000 		.4byte	.LVL426
 6325 1479 40120000 		.4byte	0x1240
 6326 147d 00       		.byte	0
 6327 147e 17       		.uleb128 0x17
 6328 147f 73040000 		.4byte	.LASF108
 6329 1483 01       		.byte	0x1
 6330 1484 D108     		.2byte	0x8d1
 6331 1486 00000000 		.4byte	.LFB29
 6332 148a 18000000 		.4byte	.LFE29-.LFB29
 6333 148e 01       		.uleb128 0x1
 6334 148f 9C       		.byte	0x9c
 6335 1490 CE140000 		.4byte	0x14ce
 6336 1494 1A       		.uleb128 0x1a
 6337 1495 5F030000 		.4byte	.LASF78
 6338 1499 01       		.byte	0x1
 6339 149a D108     		.2byte	0x8d1
 6340 149c A9000000 		.4byte	0xa9
 6341 14a0 8C170000 		.4byte	.LLST149
 6342 14a4 1A       		.uleb128 0x1a
 6343 14a5 EE0B0000 		.4byte	.LASF34
 6344 14a9 01       		.byte	0x1
 6345 14aa D108     		.2byte	0x8d1
 6346 14ac 6B000000 		.4byte	0x6b
 6347 14b0 B8170000 		.4byte	.LLST150
ARM GAS  C:\Users\charl\AppData\Local\Temp\ccxfbC9q.s 			page 180


 6348 14b4 15       		.uleb128 0x15
 6349 14b5 7E0A0000 		.4byte	.LASF86
 6350 14b9 01       		.byte	0x1
 6351 14ba D408     		.2byte	0x8d4
 6352 14bc 77000000 		.4byte	0x77
 6353 14c0 E4170000 		.4byte	.LLST151
 6354 14c4 11       		.uleb128 0x11
 6355 14c5 0A000000 		.4byte	.LVL433
 6356 14c9 40120000 		.4byte	0x1240
 6357 14cd 00       		.byte	0
 6358 14ce 17       		.uleb128 0x17
 6359 14cf CB030000 		.4byte	.LASF109
 6360 14d3 01       		.byte	0x1
 6361 14d4 7D0D     		.2byte	0xd7d
 6362 14d6 00000000 		.4byte	.LFB40
 6363 14da 3C000000 		.4byte	.LFE40-.LFB40
 6364 14de 01       		.uleb128 0x1
 6365 14df 9C       		.byte	0x9c
 6366 14e0 17150000 		.4byte	0x1517
 6367 14e4 1A       		.uleb128 0x1a
 6368 14e5 8E050000 		.4byte	.LASF110
 6369 14e9 01       		.byte	0x1
 6370 14ea 7D0D     		.2byte	0xd7d
 6371 14ec 6B000000 		.4byte	0x6b
 6372 14f0 F7170000 		.4byte	.LLST152
 6373 14f4 1A       		.uleb128 0x1a
 6374 14f5 EE0B0000 		.4byte	.LASF34
 6375 14f9 01       		.byte	0x1
 6376 14fa 7D0D     		.2byte	0xd7d
 6377 14fc 6B000000 		.4byte	0x6b
 6378 1500 18180000 		.4byte	.LLST153
 6379 1504 16       		.uleb128 0x16
 6380 1505 EF050000 		.4byte	.LASF111
 6381 1509 01       		.byte	0x1
 6382 150a 850D     		.2byte	0xd85
 6383 150c 17150000 		.4byte	0x1517
 6384 1510 05       		.uleb128 0x5
 6385 1511 03       		.byte	0x3
 6386 1512 30020000 		.4byte	LED_Driver_Gear_tempCom.5520
 6387 1516 00       		.byte	0
 6388 1517 0A       		.uleb128 0xa
 6389 1518 B3070000 		.4byte	0x7b3
 6390 151c 1B       		.uleb128 0x1b
 6391 151d 70050000 		.4byte	.LASF112
 6392 1521 01       		.byte	0x1
 6393 1522 AC0D     		.2byte	0xdac
 6394 1524 6B000000 		.4byte	0x6b
 6395 1528 00000000 		.4byte	.LFB41
 6396 152c 0C000000 		.4byte	.LFE41-.LFB41
 6397 1530 01       		.uleb128 0x1
 6398 1531 9C       		.byte	0x9c
 6399 1532 47150000 		.4byte	0x1547
 6400 1536 1A       		.uleb128 0x1a
 6401 1537 EE0B0000 		.4byte	.LASF34
 6402 153b 01       		.byte	0x1
 6403 153c AC0D     		.2byte	0xdac
 6404 153e 6B000000 		.4byte	0x6b
ARM GAS  C:\Users\charl\AppData\Local\Temp\ccxfbC9q.s 			page 181


 6405 1542 39180000 		.4byte	.LLST154
 6406 1546 00       		.byte	0
 6407 1547 1E       		.uleb128 0x1e
 6408 1548 AF080000 		.4byte	.LASF113
 6409 154c 01       		.byte	0x1
 6410 154d 24       		.byte	0x24
 6411 154e B3070000 		.4byte	0x7b3
 6412 1552 05       		.uleb128 0x5
 6413 1553 03       		.byte	0x3
 6414 1554 00000000 		.4byte	LED_Driver_Gear_comBuffer
 6415 1558 1E       		.uleb128 0x1e
 6416 1559 360B0000 		.4byte	.LASF114
 6417 155d 01       		.byte	0x1
 6418 155e 33       		.byte	0x33
 6419 155f D9000000 		.4byte	0xd9
 6420 1563 05       		.uleb128 0x5
 6421 1564 03       		.byte	0x3
 6422 1565 0C000000 		.4byte	LED_Driver_Gear_brightnessReg
 6423 1569 1E       		.uleb128 0x1e
 6424 156a 9D090000 		.4byte	.LASF115
 6425 156e 01       		.byte	0x1
 6426 156f 37       		.byte	0x37
 6427 1570 6B000000 		.4byte	0x6b
 6428 1574 05       		.uleb128 0x5
 6429 1575 03       		.byte	0x3
 6430 1576 00000000 		.4byte	LED_Driver_Gear_dmaComChannel
 6431 157a 06       		.uleb128 0x6
 6432 157b 6B000000 		.4byte	0x6b
 6433 157f 8A150000 		.4byte	0x158a
 6434 1583 07       		.uleb128 0x7
 6435 1584 E9000000 		.4byte	0xe9
 6436 1588 01       		.byte	0x1
 6437 1589 00       		.byte	0
 6438 158a 1E       		.uleb128 0x1e
 6439 158b B3020000 		.4byte	.LASF116
 6440 158f 01       		.byte	0x1
 6441 1590 38       		.byte	0x38
 6442 1591 7A150000 		.4byte	0x157a
 6443 1595 05       		.uleb128 0x5
 6444 1596 03       		.byte	0x3
 6445 1597 04000000 		.4byte	LED_Driver_Gear_dmaComTd
 6446 159b 1E       		.uleb128 0x1e
 6447 159c F2060000 		.4byte	.LASF117
 6448 15a0 01       		.byte	0x1
 6449 15a1 3A       		.byte	0x3a
 6450 15a2 6B000000 		.4byte	0x6b
 6451 15a6 05       		.uleb128 0x5
 6452 15a7 03       		.byte	0x3
 6453 15a8 06000000 		.4byte	LED_Driver_Gear_dmaSegChannel
 6454 15ac 1E       		.uleb128 0x1e
 6455 15ad B0060000 		.4byte	.LASF118
 6456 15b1 01       		.byte	0x1
 6457 15b2 3B       		.byte	0x3b
 6458 15b3 D9000000 		.4byte	0xd9
 6459 15b7 05       		.uleb128 0x5
 6460 15b8 03       		.byte	0x3
 6461 15b9 08000000 		.4byte	LED_Driver_Gear_dmaSegLTd
ARM GAS  C:\Users\charl\AppData\Local\Temp\ccxfbC9q.s 			page 182


 6462 15bd 1E       		.uleb128 0x1e
 6463 15be 57070000 		.4byte	.LASF119
 6464 15c2 01       		.byte	0x1
 6465 15c3 3E       		.byte	0x3e
 6466 15c4 6B000000 		.4byte	0x6b
 6467 15c8 05       		.uleb128 0x5
 6468 15c9 03       		.byte	0x3
 6469 15ca 09000000 		.4byte	LED_Driver_Gear_dmaBCChannel
 6470 15ce 1E       		.uleb128 0x1e
 6471 15cf 47030000 		.4byte	.LASF120
 6472 15d3 01       		.byte	0x1
 6473 15d4 3F       		.byte	0x3f
 6474 15d5 6B000000 		.4byte	0x6b
 6475 15d9 05       		.uleb128 0x5
 6476 15da 03       		.byte	0x3
 6477 15db 0A000000 		.4byte	LED_Driver_Gear_dmaBCTd
 6478 15df 1F       		.uleb128 0x1f
 6479 15e0 FD000000 		.4byte	.LASF121
 6480 15e4 01       		.byte	0x1
 6481 15e5 42       		.byte	0x42
 6482 15e6 6B000000 		.4byte	0x6b
 6483 15ea 05       		.uleb128 0x5
 6484 15eb 03       		.byte	0x3
 6485 15ec 00000000 		.4byte	LED_Driver_Gear_initVar
 6486 15f0 1F       		.uleb128 0x1f
 6487 15f1 B6050000 		.4byte	.LASF122
 6488 15f5 01       		.byte	0x1
 6489 15f6 43       		.byte	0x43
 6490 15f7 6B000000 		.4byte	0x6b
 6491 15fb 05       		.uleb128 0x5
 6492 15fc 03       		.byte	0x3
 6493 15fd 00000000 		.4byte	LED_Driver_Gear_enableVar
 6494 1601 1F       		.uleb128 0x1f
 6495 1602 15060000 		.4byte	.LASF123
 6496 1606 01       		.byte	0x1
 6497 1607 29       		.byte	0x29
 6498 1608 D9000000 		.4byte	0xd9
 6499 160c 05       		.uleb128 0x5
 6500 160d 03       		.byte	0x3
 6501 160e 00000000 		.4byte	LED_Driver_Gear_segLBuffer
 6502 1612 20       		.uleb128 0x20
 6503 1613 B60A0000 		.4byte	.LASF124
 6504 1617 05       		.byte	0x5
 6505 1618 1E       		.byte	0x1e
 6506 1619 6B000000 		.4byte	0x6b
 6507 161d 36160000 		.4byte	0x1636
 6508 1621 21       		.uleb128 0x21
 6509 1622 6B000000 		.4byte	0x6b
 6510 1626 21       		.uleb128 0x21
 6511 1627 6B000000 		.4byte	0x6b
 6512 162b 21       		.uleb128 0x21
 6513 162c 77000000 		.4byte	0x77
 6514 1630 21       		.uleb128 0x21
 6515 1631 77000000 		.4byte	0x77
 6516 1635 00       		.byte	0
 6517 1636 22       		.uleb128 0x22
 6518 1637 09040000 		.4byte	.LASF139
ARM GAS  C:\Users\charl\AppData\Local\Temp\ccxfbC9q.s 			page 183


 6519 163b 04       		.byte	0x4
 6520 163c 38       		.byte	0x38
 6521 163d 6B000000 		.4byte	0x6b
 6522 1641 20       		.uleb128 0x20
 6523 1642 D9000000 		.4byte	.LASF125
 6524 1646 04       		.byte	0x4
 6525 1647 3B       		.byte	0x3b
 6526 1648 BC000000 		.4byte	0xbc
 6527 164c 65160000 		.4byte	0x1665
 6528 1650 21       		.uleb128 0x21
 6529 1651 6B000000 		.4byte	0x6b
 6530 1655 21       		.uleb128 0x21
 6531 1656 77000000 		.4byte	0x77
 6532 165a 21       		.uleb128 0x21
 6533 165b 6B000000 		.4byte	0x6b
 6534 165f 21       		.uleb128 0x21
 6535 1660 6B000000 		.4byte	0x6b
 6536 1664 00       		.byte	0
 6537 1665 20       		.uleb128 0x20
 6538 1666 D9070000 		.4byte	.LASF126
 6539 166a 04       		.byte	0x4
 6540 166b 3F       		.byte	0x3f
 6541 166c BC000000 		.4byte	0xbc
 6542 1670 84160000 		.4byte	0x1684
 6543 1674 21       		.uleb128 0x21
 6544 1675 6B000000 		.4byte	0x6b
 6545 1679 21       		.uleb128 0x21
 6546 167a 77000000 		.4byte	0x77
 6547 167e 21       		.uleb128 0x21
 6548 167f 77000000 		.4byte	0x77
 6549 1683 00       		.byte	0
 6550 1684 20       		.uleb128 0x20
 6551 1685 58090000 		.4byte	.LASF127
 6552 1689 06       		.byte	0x6
 6553 168a 1E       		.byte	0x1e
 6554 168b 6B000000 		.4byte	0x6b
 6555 168f A8160000 		.4byte	0x16a8
 6556 1693 21       		.uleb128 0x21
 6557 1694 6B000000 		.4byte	0x6b
 6558 1698 21       		.uleb128 0x21
 6559 1699 6B000000 		.4byte	0x6b
 6560 169d 21       		.uleb128 0x21
 6561 169e 77000000 		.4byte	0x77
 6562 16a2 21       		.uleb128 0x21
 6563 16a3 77000000 		.4byte	0x77
 6564 16a7 00       		.byte	0
 6565 16a8 20       		.uleb128 0x20
 6566 16a9 4B050000 		.4byte	.LASF128
 6567 16ad 07       		.byte	0x7
 6568 16ae 1E       		.byte	0x1e
 6569 16af 6B000000 		.4byte	0x6b
 6570 16b3 CC160000 		.4byte	0x16cc
 6571 16b7 21       		.uleb128 0x21
 6572 16b8 6B000000 		.4byte	0x6b
 6573 16bc 21       		.uleb128 0x21
 6574 16bd 6B000000 		.4byte	0x6b
 6575 16c1 21       		.uleb128 0x21
ARM GAS  C:\Users\charl\AppData\Local\Temp\ccxfbC9q.s 			page 184


 6576 16c2 77000000 		.4byte	0x77
 6577 16c6 21       		.uleb128 0x21
 6578 16c7 77000000 		.4byte	0x77
 6579 16cb 00       		.byte	0
 6580 16cc 20       		.uleb128 0x20
 6581 16cd 31000000 		.4byte	.LASF129
 6582 16d1 04       		.byte	0x4
 6583 16d2 2F       		.byte	0x2f
 6584 16d3 BC000000 		.4byte	0xbc
 6585 16d7 E6160000 		.4byte	0x16e6
 6586 16db 21       		.uleb128 0x21
 6587 16dc 6B000000 		.4byte	0x6b
 6588 16e0 21       		.uleb128 0x21
 6589 16e1 6B000000 		.4byte	0x6b
 6590 16e5 00       		.byte	0
 6591 16e6 20       		.uleb128 0x20
 6592 16e7 93080000 		.4byte	.LASF130
 6593 16eb 04       		.byte	0x4
 6594 16ec 29       		.byte	0x29
 6595 16ed BC000000 		.4byte	0xbc
 6596 16f1 00170000 		.4byte	0x1700
 6597 16f5 21       		.uleb128 0x21
 6598 16f6 6B000000 		.4byte	0x6b
 6599 16fa 21       		.uleb128 0x21
 6600 16fb 6B000000 		.4byte	0x6b
 6601 16ff 00       		.byte	0
 6602 1700 20       		.uleb128 0x20
 6603 1701 5F010000 		.4byte	.LASF131
 6604 1705 04       		.byte	0x4
 6605 1706 2A       		.byte	0x2a
 6606 1707 BC000000 		.4byte	0xbc
 6607 170b 15170000 		.4byte	0x1715
 6608 170f 21       		.uleb128 0x21
 6609 1710 6B000000 		.4byte	0x6b
 6610 1714 00       		.byte	0
 6611 1715 23       		.uleb128 0x23
 6612 1716 90040000 		.4byte	.LASF133
 6613 171a 08       		.byte	0x8
 6614 171b 27       		.byte	0x27
 6615 171c 26170000 		.4byte	0x1726
 6616 1720 21       		.uleb128 0x21
 6617 1721 6B000000 		.4byte	0x6b
 6618 1725 00       		.byte	0
 6619 1726 20       		.uleb128 0x20
 6620 1727 F1020000 		.4byte	.LASF132
 6621 172b 04       		.byte	0x4
 6622 172c 30       		.byte	0x30
 6623 172d BC000000 		.4byte	0xbc
 6624 1731 40170000 		.4byte	0x1740
 6625 1735 21       		.uleb128 0x21
 6626 1736 6B000000 		.4byte	0x6b
 6627 173a 21       		.uleb128 0x21
 6628 173b 6B000000 		.4byte	0x6b
 6629 173f 00       		.byte	0
 6630 1740 24       		.uleb128 0x24
 6631 1741 06000000 		.4byte	.LASF134
 6632 1745 09       		.byte	0x9
ARM GAS  C:\Users\charl\AppData\Local\Temp\ccxfbC9q.s 			page 185


 6633 1746 21       		.byte	0x21
 6634 1747 F0000000 		.4byte	0xf0
 6635 174b 21       		.uleb128 0x21
 6636 174c FB000000 		.4byte	0xfb
 6637 1750 00       		.byte	0
 6638 1751 00       		.byte	0
 6639              		.section	.debug_abbrev,"",%progbits
 6640              	.Ldebug_abbrev0:
 6641 0000 01       		.uleb128 0x1
 6642 0001 11       		.uleb128 0x11
 6643 0002 01       		.byte	0x1
 6644 0003 25       		.uleb128 0x25
 6645 0004 0E       		.uleb128 0xe
 6646 0005 13       		.uleb128 0x13
 6647 0006 0B       		.uleb128 0xb
 6648 0007 03       		.uleb128 0x3
 6649 0008 0E       		.uleb128 0xe
 6650 0009 1B       		.uleb128 0x1b
 6651 000a 0E       		.uleb128 0xe
 6652 000b 55       		.uleb128 0x55
 6653 000c 17       		.uleb128 0x17
 6654 000d 11       		.uleb128 0x11
 6655 000e 01       		.uleb128 0x1
 6656 000f 10       		.uleb128 0x10
 6657 0010 17       		.uleb128 0x17
 6658 0011 00       		.byte	0
 6659 0012 00       		.byte	0
 6660 0013 02       		.uleb128 0x2
 6661 0014 24       		.uleb128 0x24
 6662 0015 00       		.byte	0
 6663 0016 0B       		.uleb128 0xb
 6664 0017 0B       		.uleb128 0xb
 6665 0018 3E       		.uleb128 0x3e
 6666 0019 0B       		.uleb128 0xb
 6667 001a 03       		.uleb128 0x3
 6668 001b 0E       		.uleb128 0xe
 6669 001c 00       		.byte	0
 6670 001d 00       		.byte	0
 6671 001e 03       		.uleb128 0x3
 6672 001f 24       		.uleb128 0x24
 6673 0020 00       		.byte	0
 6674 0021 0B       		.uleb128 0xb
 6675 0022 0B       		.uleb128 0xb
 6676 0023 3E       		.uleb128 0x3e
 6677 0024 0B       		.uleb128 0xb
 6678 0025 03       		.uleb128 0x3
 6679 0026 08       		.uleb128 0x8
 6680 0027 00       		.byte	0
 6681 0028 00       		.byte	0
 6682 0029 04       		.uleb128 0x4
 6683 002a 16       		.uleb128 0x16
 6684 002b 00       		.byte	0
 6685 002c 03       		.uleb128 0x3
 6686 002d 0E       		.uleb128 0xe
 6687 002e 3A       		.uleb128 0x3a
 6688 002f 0B       		.uleb128 0xb
 6689 0030 3B       		.uleb128 0x3b
ARM GAS  C:\Users\charl\AppData\Local\Temp\ccxfbC9q.s 			page 186


 6690 0031 05       		.uleb128 0x5
 6691 0032 49       		.uleb128 0x49
 6692 0033 13       		.uleb128 0x13
 6693 0034 00       		.byte	0
 6694 0035 00       		.byte	0
 6695 0036 05       		.uleb128 0x5
 6696 0037 35       		.uleb128 0x35
 6697 0038 00       		.byte	0
 6698 0039 49       		.uleb128 0x49
 6699 003a 13       		.uleb128 0x13
 6700 003b 00       		.byte	0
 6701 003c 00       		.byte	0
 6702 003d 06       		.uleb128 0x6
 6703 003e 01       		.uleb128 0x1
 6704 003f 01       		.byte	0x1
 6705 0040 49       		.uleb128 0x49
 6706 0041 13       		.uleb128 0x13
 6707 0042 01       		.uleb128 0x1
 6708 0043 13       		.uleb128 0x13
 6709 0044 00       		.byte	0
 6710 0045 00       		.byte	0
 6711 0046 07       		.uleb128 0x7
 6712 0047 21       		.uleb128 0x21
 6713 0048 00       		.byte	0
 6714 0049 49       		.uleb128 0x49
 6715 004a 13       		.uleb128 0x13
 6716 004b 2F       		.uleb128 0x2f
 6717 004c 0B       		.uleb128 0xb
 6718 004d 00       		.byte	0
 6719 004e 00       		.byte	0
 6720 004f 08       		.uleb128 0x8
 6721 0050 16       		.uleb128 0x16
 6722 0051 00       		.byte	0
 6723 0052 03       		.uleb128 0x3
 6724 0053 0E       		.uleb128 0xe
 6725 0054 3A       		.uleb128 0x3a
 6726 0055 0B       		.uleb128 0xb
 6727 0056 3B       		.uleb128 0x3b
 6728 0057 0B       		.uleb128 0xb
 6729 0058 49       		.uleb128 0x49
 6730 0059 13       		.uleb128 0x13
 6731 005a 00       		.byte	0
 6732 005b 00       		.byte	0
 6733 005c 09       		.uleb128 0x9
 6734 005d 0F       		.uleb128 0xf
 6735 005e 00       		.byte	0
 6736 005f 0B       		.uleb128 0xb
 6737 0060 0B       		.uleb128 0xb
 6738 0061 49       		.uleb128 0x49
 6739 0062 13       		.uleb128 0x13
 6740 0063 00       		.byte	0
 6741 0064 00       		.byte	0
 6742 0065 0A       		.uleb128 0xa
 6743 0066 26       		.uleb128 0x26
 6744 0067 00       		.byte	0
 6745 0068 49       		.uleb128 0x49
 6746 0069 13       		.uleb128 0x13
ARM GAS  C:\Users\charl\AppData\Local\Temp\ccxfbC9q.s 			page 187


 6747 006a 00       		.byte	0
 6748 006b 00       		.byte	0
 6749 006c 0B       		.uleb128 0xb
 6750 006d 13       		.uleb128 0x13
 6751 006e 01       		.byte	0x1
 6752 006f 03       		.uleb128 0x3
 6753 0070 0E       		.uleb128 0xe
 6754 0071 0B       		.uleb128 0xb
 6755 0072 0B       		.uleb128 0xb
 6756 0073 3A       		.uleb128 0x3a
 6757 0074 0B       		.uleb128 0xb
 6758 0075 3B       		.uleb128 0x3b
 6759 0076 0B       		.uleb128 0xb
 6760 0077 01       		.uleb128 0x1
 6761 0078 13       		.uleb128 0x13
 6762 0079 00       		.byte	0
 6763 007a 00       		.byte	0
 6764 007b 0C       		.uleb128 0xc
 6765 007c 0D       		.uleb128 0xd
 6766 007d 00       		.byte	0
 6767 007e 03       		.uleb128 0x3
 6768 007f 0E       		.uleb128 0xe
 6769 0080 3A       		.uleb128 0x3a
 6770 0081 0B       		.uleb128 0xb
 6771 0082 3B       		.uleb128 0x3b
 6772 0083 0B       		.uleb128 0xb
 6773 0084 49       		.uleb128 0x49
 6774 0085 13       		.uleb128 0x13
 6775 0086 38       		.uleb128 0x38
 6776 0087 0B       		.uleb128 0xb
 6777 0088 00       		.byte	0
 6778 0089 00       		.byte	0
 6779 008a 0D       		.uleb128 0xd
 6780 008b 2E       		.uleb128 0x2e
 6781 008c 01       		.byte	0x1
 6782 008d 03       		.uleb128 0x3
 6783 008e 0E       		.uleb128 0xe
 6784 008f 3A       		.uleb128 0x3a
 6785 0090 0B       		.uleb128 0xb
 6786 0091 3B       		.uleb128 0x3b
 6787 0092 0B       		.uleb128 0xb
 6788 0093 27       		.uleb128 0x27
 6789 0094 19       		.uleb128 0x19
 6790 0095 11       		.uleb128 0x11
 6791 0096 01       		.uleb128 0x1
 6792 0097 12       		.uleb128 0x12
 6793 0098 06       		.uleb128 0x6
 6794 0099 40       		.uleb128 0x40
 6795 009a 18       		.uleb128 0x18
 6796 009b 9742     		.uleb128 0x2117
 6797 009d 19       		.uleb128 0x19
 6798 009e 01       		.uleb128 0x1
 6799 009f 13       		.uleb128 0x13
 6800 00a0 00       		.byte	0
 6801 00a1 00       		.byte	0
 6802 00a2 0E       		.uleb128 0xe
 6803 00a3 34       		.uleb128 0x34
ARM GAS  C:\Users\charl\AppData\Local\Temp\ccxfbC9q.s 			page 188


 6804 00a4 00       		.byte	0
 6805 00a5 03       		.uleb128 0x3
 6806 00a6 08       		.uleb128 0x8
 6807 00a7 3A       		.uleb128 0x3a
 6808 00a8 0B       		.uleb128 0xb
 6809 00a9 3B       		.uleb128 0x3b
 6810 00aa 0B       		.uleb128 0xb
 6811 00ab 49       		.uleb128 0x49
 6812 00ac 13       		.uleb128 0x13
 6813 00ad 02       		.uleb128 0x2
 6814 00ae 17       		.uleb128 0x17
 6815 00af 00       		.byte	0
 6816 00b0 00       		.byte	0
 6817 00b1 0F       		.uleb128 0xf
 6818 00b2 898201   		.uleb128 0x4109
 6819 00b5 01       		.byte	0x1
 6820 00b6 11       		.uleb128 0x11
 6821 00b7 01       		.uleb128 0x1
 6822 00b8 31       		.uleb128 0x31
 6823 00b9 13       		.uleb128 0x13
 6824 00ba 01       		.uleb128 0x1
 6825 00bb 13       		.uleb128 0x13
 6826 00bc 00       		.byte	0
 6827 00bd 00       		.byte	0
 6828 00be 10       		.uleb128 0x10
 6829 00bf 8A8201   		.uleb128 0x410a
 6830 00c2 00       		.byte	0
 6831 00c3 02       		.uleb128 0x2
 6832 00c4 18       		.uleb128 0x18
 6833 00c5 9142     		.uleb128 0x2111
 6834 00c7 18       		.uleb128 0x18
 6835 00c8 00       		.byte	0
 6836 00c9 00       		.byte	0
 6837 00ca 11       		.uleb128 0x11
 6838 00cb 898201   		.uleb128 0x4109
 6839 00ce 00       		.byte	0
 6840 00cf 11       		.uleb128 0x11
 6841 00d0 01       		.uleb128 0x1
 6842 00d1 31       		.uleb128 0x31
 6843 00d2 13       		.uleb128 0x13
 6844 00d3 00       		.byte	0
 6845 00d4 00       		.byte	0
 6846 00d5 12       		.uleb128 0x12
 6847 00d6 898201   		.uleb128 0x4109
 6848 00d9 01       		.byte	0x1
 6849 00da 11       		.uleb128 0x11
 6850 00db 01       		.uleb128 0x1
 6851 00dc 31       		.uleb128 0x31
 6852 00dd 13       		.uleb128 0x13
 6853 00de 00       		.byte	0
 6854 00df 00       		.byte	0
 6855 00e0 13       		.uleb128 0x13
 6856 00e1 2E       		.uleb128 0x2e
 6857 00e2 01       		.byte	0x1
 6858 00e3 03       		.uleb128 0x3
 6859 00e4 0E       		.uleb128 0xe
 6860 00e5 3A       		.uleb128 0x3a
ARM GAS  C:\Users\charl\AppData\Local\Temp\ccxfbC9q.s 			page 189


 6861 00e6 0B       		.uleb128 0xb
 6862 00e7 3B       		.uleb128 0x3b
 6863 00e8 05       		.uleb128 0x5
 6864 00e9 27       		.uleb128 0x27
 6865 00ea 19       		.uleb128 0x19
 6866 00eb 11       		.uleb128 0x11
 6867 00ec 01       		.uleb128 0x1
 6868 00ed 12       		.uleb128 0x12
 6869 00ee 06       		.uleb128 0x6
 6870 00ef 40       		.uleb128 0x40
 6871 00f0 18       		.uleb128 0x18
 6872 00f1 9742     		.uleb128 0x2117
 6873 00f3 19       		.uleb128 0x19
 6874 00f4 01       		.uleb128 0x1
 6875 00f5 13       		.uleb128 0x13
 6876 00f6 00       		.byte	0
 6877 00f7 00       		.byte	0
 6878 00f8 14       		.uleb128 0x14
 6879 00f9 34       		.uleb128 0x34
 6880 00fa 00       		.byte	0
 6881 00fb 03       		.uleb128 0x3
 6882 00fc 08       		.uleb128 0x8
 6883 00fd 3A       		.uleb128 0x3a
 6884 00fe 0B       		.uleb128 0xb
 6885 00ff 3B       		.uleb128 0x3b
 6886 0100 05       		.uleb128 0x5
 6887 0101 49       		.uleb128 0x49
 6888 0102 13       		.uleb128 0x13
 6889 0103 02       		.uleb128 0x2
 6890 0104 17       		.uleb128 0x17
 6891 0105 00       		.byte	0
 6892 0106 00       		.byte	0
 6893 0107 15       		.uleb128 0x15
 6894 0108 34       		.uleb128 0x34
 6895 0109 00       		.byte	0
 6896 010a 03       		.uleb128 0x3
 6897 010b 0E       		.uleb128 0xe
 6898 010c 3A       		.uleb128 0x3a
 6899 010d 0B       		.uleb128 0xb
 6900 010e 3B       		.uleb128 0x3b
 6901 010f 05       		.uleb128 0x5
 6902 0110 49       		.uleb128 0x49
 6903 0111 13       		.uleb128 0x13
 6904 0112 02       		.uleb128 0x2
 6905 0113 17       		.uleb128 0x17
 6906 0114 00       		.byte	0
 6907 0115 00       		.byte	0
 6908 0116 16       		.uleb128 0x16
 6909 0117 34       		.uleb128 0x34
 6910 0118 00       		.byte	0
 6911 0119 03       		.uleb128 0x3
 6912 011a 0E       		.uleb128 0xe
 6913 011b 3A       		.uleb128 0x3a
 6914 011c 0B       		.uleb128 0xb
 6915 011d 3B       		.uleb128 0x3b
 6916 011e 05       		.uleb128 0x5
 6917 011f 49       		.uleb128 0x49
ARM GAS  C:\Users\charl\AppData\Local\Temp\ccxfbC9q.s 			page 190


 6918 0120 13       		.uleb128 0x13
 6919 0121 02       		.uleb128 0x2
 6920 0122 18       		.uleb128 0x18
 6921 0123 00       		.byte	0
 6922 0124 00       		.byte	0
 6923 0125 17       		.uleb128 0x17
 6924 0126 2E       		.uleb128 0x2e
 6925 0127 01       		.byte	0x1
 6926 0128 3F       		.uleb128 0x3f
 6927 0129 19       		.uleb128 0x19
 6928 012a 03       		.uleb128 0x3
 6929 012b 0E       		.uleb128 0xe
 6930 012c 3A       		.uleb128 0x3a
 6931 012d 0B       		.uleb128 0xb
 6932 012e 3B       		.uleb128 0x3b
 6933 012f 05       		.uleb128 0x5
 6934 0130 27       		.uleb128 0x27
 6935 0131 19       		.uleb128 0x19
 6936 0132 11       		.uleb128 0x11
 6937 0133 01       		.uleb128 0x1
 6938 0134 12       		.uleb128 0x12
 6939 0135 06       		.uleb128 0x6
 6940 0136 40       		.uleb128 0x40
 6941 0137 18       		.uleb128 0x18
 6942 0138 9742     		.uleb128 0x2117
 6943 013a 19       		.uleb128 0x19
 6944 013b 01       		.uleb128 0x1
 6945 013c 13       		.uleb128 0x13
 6946 013d 00       		.byte	0
 6947 013e 00       		.byte	0
 6948 013f 18       		.uleb128 0x18
 6949 0140 05       		.uleb128 0x5
 6950 0141 00       		.byte	0
 6951 0142 03       		.uleb128 0x3
 6952 0143 0E       		.uleb128 0xe
 6953 0144 3A       		.uleb128 0x3a
 6954 0145 0B       		.uleb128 0xb
 6955 0146 3B       		.uleb128 0x3b
 6956 0147 05       		.uleb128 0x5
 6957 0148 49       		.uleb128 0x49
 6958 0149 13       		.uleb128 0x13
 6959 014a 02       		.uleb128 0x2
 6960 014b 18       		.uleb128 0x18
 6961 014c 00       		.byte	0
 6962 014d 00       		.byte	0
 6963 014e 19       		.uleb128 0x19
 6964 014f 05       		.uleb128 0x5
 6965 0150 00       		.byte	0
 6966 0151 03       		.uleb128 0x3
 6967 0152 08       		.uleb128 0x8
 6968 0153 3A       		.uleb128 0x3a
 6969 0154 0B       		.uleb128 0xb
 6970 0155 3B       		.uleb128 0x3b
 6971 0156 05       		.uleb128 0x5
 6972 0157 49       		.uleb128 0x49
 6973 0158 13       		.uleb128 0x13
 6974 0159 02       		.uleb128 0x2
ARM GAS  C:\Users\charl\AppData\Local\Temp\ccxfbC9q.s 			page 191


 6975 015a 17       		.uleb128 0x17
 6976 015b 00       		.byte	0
 6977 015c 00       		.byte	0
 6978 015d 1A       		.uleb128 0x1a
 6979 015e 05       		.uleb128 0x5
 6980 015f 00       		.byte	0
 6981 0160 03       		.uleb128 0x3
 6982 0161 0E       		.uleb128 0xe
 6983 0162 3A       		.uleb128 0x3a
 6984 0163 0B       		.uleb128 0xb
 6985 0164 3B       		.uleb128 0x3b
 6986 0165 05       		.uleb128 0x5
 6987 0166 49       		.uleb128 0x49
 6988 0167 13       		.uleb128 0x13
 6989 0168 02       		.uleb128 0x2
 6990 0169 17       		.uleb128 0x17
 6991 016a 00       		.byte	0
 6992 016b 00       		.byte	0
 6993 016c 1B       		.uleb128 0x1b
 6994 016d 2E       		.uleb128 0x2e
 6995 016e 01       		.byte	0x1
 6996 016f 3F       		.uleb128 0x3f
 6997 0170 19       		.uleb128 0x19
 6998 0171 03       		.uleb128 0x3
 6999 0172 0E       		.uleb128 0xe
 7000 0173 3A       		.uleb128 0x3a
 7001 0174 0B       		.uleb128 0xb
 7002 0175 3B       		.uleb128 0x3b
 7003 0176 05       		.uleb128 0x5
 7004 0177 27       		.uleb128 0x27
 7005 0178 19       		.uleb128 0x19
 7006 0179 49       		.uleb128 0x49
 7007 017a 13       		.uleb128 0x13
 7008 017b 11       		.uleb128 0x11
 7009 017c 01       		.uleb128 0x1
 7010 017d 12       		.uleb128 0x12
 7011 017e 06       		.uleb128 0x6
 7012 017f 40       		.uleb128 0x40
 7013 0180 18       		.uleb128 0x18
 7014 0181 9742     		.uleb128 0x2117
 7015 0183 19       		.uleb128 0x19
 7016 0184 01       		.uleb128 0x1
 7017 0185 13       		.uleb128 0x13
 7018 0186 00       		.byte	0
 7019 0187 00       		.byte	0
 7020 0188 1C       		.uleb128 0x1c
 7021 0189 05       		.uleb128 0x5
 7022 018a 00       		.byte	0
 7023 018b 03       		.uleb128 0x3
 7024 018c 08       		.uleb128 0x8
 7025 018d 3A       		.uleb128 0x3a
 7026 018e 0B       		.uleb128 0xb
 7027 018f 3B       		.uleb128 0x3b
 7028 0190 05       		.uleb128 0x5
 7029 0191 49       		.uleb128 0x49
 7030 0192 13       		.uleb128 0x13
 7031 0193 02       		.uleb128 0x2
ARM GAS  C:\Users\charl\AppData\Local\Temp\ccxfbC9q.s 			page 192


 7032 0194 18       		.uleb128 0x18
 7033 0195 00       		.byte	0
 7034 0196 00       		.byte	0
 7035 0197 1D       		.uleb128 0x1d
 7036 0198 34       		.uleb128 0x34
 7037 0199 00       		.byte	0
 7038 019a 03       		.uleb128 0x3
 7039 019b 0E       		.uleb128 0xe
 7040 019c 3A       		.uleb128 0x3a
 7041 019d 0B       		.uleb128 0xb
 7042 019e 3B       		.uleb128 0x3b
 7043 019f 05       		.uleb128 0x5
 7044 01a0 49       		.uleb128 0x49
 7045 01a1 13       		.uleb128 0x13
 7046 01a2 1C       		.uleb128 0x1c
 7047 01a3 0D       		.uleb128 0xd
 7048 01a4 00       		.byte	0
 7049 01a5 00       		.byte	0
 7050 01a6 1E       		.uleb128 0x1e
 7051 01a7 34       		.uleb128 0x34
 7052 01a8 00       		.byte	0
 7053 01a9 03       		.uleb128 0x3
 7054 01aa 0E       		.uleb128 0xe
 7055 01ab 3A       		.uleb128 0x3a
 7056 01ac 0B       		.uleb128 0xb
 7057 01ad 3B       		.uleb128 0x3b
 7058 01ae 0B       		.uleb128 0xb
 7059 01af 49       		.uleb128 0x49
 7060 01b0 13       		.uleb128 0x13
 7061 01b1 02       		.uleb128 0x2
 7062 01b2 18       		.uleb128 0x18
 7063 01b3 00       		.byte	0
 7064 01b4 00       		.byte	0
 7065 01b5 1F       		.uleb128 0x1f
 7066 01b6 34       		.uleb128 0x34
 7067 01b7 00       		.byte	0
 7068 01b8 03       		.uleb128 0x3
 7069 01b9 0E       		.uleb128 0xe
 7070 01ba 3A       		.uleb128 0x3a
 7071 01bb 0B       		.uleb128 0xb
 7072 01bc 3B       		.uleb128 0x3b
 7073 01bd 0B       		.uleb128 0xb
 7074 01be 49       		.uleb128 0x49
 7075 01bf 13       		.uleb128 0x13
 7076 01c0 3F       		.uleb128 0x3f
 7077 01c1 19       		.uleb128 0x19
 7078 01c2 02       		.uleb128 0x2
 7079 01c3 18       		.uleb128 0x18
 7080 01c4 00       		.byte	0
 7081 01c5 00       		.byte	0
 7082 01c6 20       		.uleb128 0x20
 7083 01c7 2E       		.uleb128 0x2e
 7084 01c8 01       		.byte	0x1
 7085 01c9 3F       		.uleb128 0x3f
 7086 01ca 19       		.uleb128 0x19
 7087 01cb 03       		.uleb128 0x3
 7088 01cc 0E       		.uleb128 0xe
ARM GAS  C:\Users\charl\AppData\Local\Temp\ccxfbC9q.s 			page 193


 7089 01cd 3A       		.uleb128 0x3a
 7090 01ce 0B       		.uleb128 0xb
 7091 01cf 3B       		.uleb128 0x3b
 7092 01d0 0B       		.uleb128 0xb
 7093 01d1 27       		.uleb128 0x27
 7094 01d2 19       		.uleb128 0x19
 7095 01d3 49       		.uleb128 0x49
 7096 01d4 13       		.uleb128 0x13
 7097 01d5 3C       		.uleb128 0x3c
 7098 01d6 19       		.uleb128 0x19
 7099 01d7 01       		.uleb128 0x1
 7100 01d8 13       		.uleb128 0x13
 7101 01d9 00       		.byte	0
 7102 01da 00       		.byte	0
 7103 01db 21       		.uleb128 0x21
 7104 01dc 05       		.uleb128 0x5
 7105 01dd 00       		.byte	0
 7106 01de 49       		.uleb128 0x49
 7107 01df 13       		.uleb128 0x13
 7108 01e0 00       		.byte	0
 7109 01e1 00       		.byte	0
 7110 01e2 22       		.uleb128 0x22
 7111 01e3 2E       		.uleb128 0x2e
 7112 01e4 00       		.byte	0
 7113 01e5 3F       		.uleb128 0x3f
 7114 01e6 19       		.uleb128 0x19
 7115 01e7 03       		.uleb128 0x3
 7116 01e8 0E       		.uleb128 0xe
 7117 01e9 3A       		.uleb128 0x3a
 7118 01ea 0B       		.uleb128 0xb
 7119 01eb 3B       		.uleb128 0x3b
 7120 01ec 0B       		.uleb128 0xb
 7121 01ed 27       		.uleb128 0x27
 7122 01ee 19       		.uleb128 0x19
 7123 01ef 49       		.uleb128 0x49
 7124 01f0 13       		.uleb128 0x13
 7125 01f1 3C       		.uleb128 0x3c
 7126 01f2 19       		.uleb128 0x19
 7127 01f3 00       		.byte	0
 7128 01f4 00       		.byte	0
 7129 01f5 23       		.uleb128 0x23
 7130 01f6 2E       		.uleb128 0x2e
 7131 01f7 01       		.byte	0x1
 7132 01f8 3F       		.uleb128 0x3f
 7133 01f9 19       		.uleb128 0x19
 7134 01fa 03       		.uleb128 0x3
 7135 01fb 0E       		.uleb128 0xe
 7136 01fc 3A       		.uleb128 0x3a
 7137 01fd 0B       		.uleb128 0xb
 7138 01fe 3B       		.uleb128 0x3b
 7139 01ff 0B       		.uleb128 0xb
 7140 0200 27       		.uleb128 0x27
 7141 0201 19       		.uleb128 0x19
 7142 0202 3C       		.uleb128 0x3c
 7143 0203 19       		.uleb128 0x19
 7144 0204 01       		.uleb128 0x1
 7145 0205 13       		.uleb128 0x13
ARM GAS  C:\Users\charl\AppData\Local\Temp\ccxfbC9q.s 			page 194


 7146 0206 00       		.byte	0
 7147 0207 00       		.byte	0
 7148 0208 24       		.uleb128 0x24
 7149 0209 2E       		.uleb128 0x2e
 7150 020a 01       		.byte	0x1
 7151 020b 3F       		.uleb128 0x3f
 7152 020c 19       		.uleb128 0x19
 7153 020d 03       		.uleb128 0x3
 7154 020e 0E       		.uleb128 0xe
 7155 020f 3A       		.uleb128 0x3a
 7156 0210 0B       		.uleb128 0xb
 7157 0211 3B       		.uleb128 0x3b
 7158 0212 0B       		.uleb128 0xb
 7159 0213 27       		.uleb128 0x27
 7160 0214 19       		.uleb128 0x19
 7161 0215 49       		.uleb128 0x49
 7162 0216 13       		.uleb128 0x13
 7163 0217 3C       		.uleb128 0x3c
 7164 0218 19       		.uleb128 0x19
 7165 0219 00       		.byte	0
 7166 021a 00       		.byte	0
 7167 021b 00       		.byte	0
 7168              		.section	.debug_loc,"",%progbits
 7169              	.Ldebug_loc0:
 7170              	.LLST0:
 7171 0000 1C000000 		.4byte	.LVL1
 7172 0004 28000000 		.4byte	.LVL3
 7173 0008 0100     		.2byte	0x1
 7174 000a 54       		.byte	0x54
 7175 000b 2A000000 		.4byte	.LVL4
 7176 000f 2C000000 		.4byte	.LVL5
 7177 0013 0100     		.2byte	0x1
 7178 0015 54       		.byte	0x54
 7179 0016 2E000000 		.4byte	.LVL6
 7180 001a 34000000 		.4byte	.LVL7
 7181 001e 0100     		.2byte	0x1
 7182 0020 54       		.byte	0x54
 7183 0021 36000000 		.4byte	.LVL8
 7184 0025 60000000 		.4byte	.LVL11
 7185 0029 0100     		.2byte	0x1
 7186 002b 54       		.byte	0x54
 7187 002c 62000000 		.4byte	.LVL12
 7188 0030 74000000 		.4byte	.LVL13
 7189 0034 0100     		.2byte	0x1
 7190 0036 54       		.byte	0x54
 7191 0037 74000000 		.4byte	.LVL13
 7192 003b 78000000 		.4byte	.LVL14
 7193 003f 0200     		.2byte	0x2
 7194 0041 30       		.byte	0x30
 7195 0042 9F       		.byte	0x9f
 7196 0043 78000000 		.4byte	.LVL14
 7197 0047 8E000000 		.4byte	.LVL16
 7198 004b 0100     		.2byte	0x1
 7199 004d 54       		.byte	0x54
 7200 004e 90000000 		.4byte	.LVL17
 7201 0052 94000000 		.4byte	.LVL18
 7202 0056 0100     		.2byte	0x1
ARM GAS  C:\Users\charl\AppData\Local\Temp\ccxfbC9q.s 			page 195


 7203 0058 54       		.byte	0x54
 7204 0059 AE000000 		.4byte	.LVL20
 7205 005d BA000000 		.4byte	.LVL22
 7206 0061 0100     		.2byte	0x1
 7207 0063 54       		.byte	0x54
 7208 0064 BC000000 		.4byte	.LVL23
 7209 0068 BE000000 		.4byte	.LVL24
 7210 006c 0100     		.2byte	0x1
 7211 006e 54       		.byte	0x54
 7212 006f C0000000 		.4byte	.LVL25
 7213 0073 C4000000 		.4byte	.LVL26
 7214 0077 0100     		.2byte	0x1
 7215 0079 54       		.byte	0x54
 7216 007a C4000000 		.4byte	.LVL26
 7217 007e D6000000 		.4byte	.LVL28
 7218 0082 0200     		.2byte	0x2
 7219 0084 30       		.byte	0x30
 7220 0085 9F       		.byte	0x9f
 7221 0086 D6000000 		.4byte	.LVL28
 7222 008a EC000000 		.4byte	.LVL30
 7223 008e 0100     		.2byte	0x1
 7224 0090 54       		.byte	0x54
 7225 0091 EE000000 		.4byte	.LVL31
 7226 0095 F2000000 		.4byte	.LVL32
 7227 0099 0100     		.2byte	0x1
 7228 009b 54       		.byte	0x54
 7229 009c 00000000 		.4byte	0
 7230 00a0 00000000 		.4byte	0
 7231              	.LLST1:
 7232 00a4 18000000 		.4byte	.LVL43
 7233 00a8 1C000000 		.4byte	.LVL44
 7234 00ac 0200     		.2byte	0x2
 7235 00ae 30       		.byte	0x30
 7236 00af 9F       		.byte	0x9f
 7237 00b0 1C000000 		.4byte	.LVL44
 7238 00b4 58000000 		.4byte	.LVL50
 7239 00b8 0100     		.2byte	0x1
 7240 00ba 56       		.byte	0x56
 7241 00bb 5A000000 		.4byte	.LVL51
 7242 00bf 62000000 		.4byte	.LVL52
 7243 00c3 0100     		.2byte	0x1
 7244 00c5 56       		.byte	0x56
 7245 00c6 00000000 		.4byte	0
 7246 00ca 00000000 		.4byte	0
 7247              	.LLST2:
 7248 00ce 24000000 		.4byte	.LVL45
 7249 00d2 5A000000 		.4byte	.LVL51
 7250 00d6 0100     		.2byte	0x1
 7251 00d8 55       		.byte	0x55
 7252 00d9 00000000 		.4byte	0
 7253 00dd 00000000 		.4byte	0
 7254              	.LLST3:
 7255 00e1 02000000 		.4byte	.LVL55
 7256 00e5 06000000 		.4byte	.LVL56
 7257 00e9 0100     		.2byte	0x1
 7258 00eb 51       		.byte	0x51
 7259 00ec 00000000 		.4byte	0
ARM GAS  C:\Users\charl\AppData\Local\Temp\ccxfbC9q.s 			page 196


 7260 00f0 00000000 		.4byte	0
 7261              	.LLST4:
 7262 00f4 00000000 		.4byte	.LVL57
 7263 00f8 0E000000 		.4byte	.LVL59
 7264 00fc 0100     		.2byte	0x1
 7265 00fe 50       		.byte	0x50
 7266 00ff 0E000000 		.4byte	.LVL59
 7267 0103 1C000000 		.4byte	.LFE8
 7268 0107 0400     		.2byte	0x4
 7269 0109 F3       		.byte	0xf3
 7270 010a 01       		.uleb128 0x1
 7271 010b 50       		.byte	0x50
 7272 010c 9F       		.byte	0x9f
 7273 010d 00000000 		.4byte	0
 7274 0111 00000000 		.4byte	0
 7275              	.LLST5:
 7276 0115 00000000 		.4byte	.LVL57
 7277 0119 10000000 		.4byte	.LVL60
 7278 011d 0100     		.2byte	0x1
 7279 011f 51       		.byte	0x51
 7280 0120 10000000 		.4byte	.LVL60
 7281 0124 1C000000 		.4byte	.LFE8
 7282 0128 0400     		.2byte	0x4
 7283 012a F3       		.byte	0xf3
 7284 012b 01       		.uleb128 0x1
 7285 012c 51       		.byte	0x51
 7286 012d 9F       		.byte	0x9f
 7287 012e 00000000 		.4byte	0
 7288 0132 00000000 		.4byte	0
 7289              	.LLST6:
 7290 0136 08000000 		.4byte	.LVL58
 7291 013a 0E000000 		.4byte	.LVL59
 7292 013e 0100     		.2byte	0x1
 7293 0140 50       		.byte	0x50
 7294 0141 0E000000 		.4byte	.LVL59
 7295 0145 14000000 		.4byte	.LVL61
 7296 0149 0400     		.2byte	0x4
 7297 014b F3       		.byte	0xf3
 7298 014c 01       		.uleb128 0x1
 7299 014d 50       		.byte	0x50
 7300 014e 9F       		.byte	0x9f
 7301 014f 00000000 		.4byte	0
 7302 0153 00000000 		.4byte	0
 7303              	.LLST7:
 7304 0157 00000000 		.4byte	.LVL62
 7305 015b 0E000000 		.4byte	.LVL65
 7306 015f 0100     		.2byte	0x1
 7307 0161 50       		.byte	0x50
 7308 0162 0E000000 		.4byte	.LVL65
 7309 0166 1C000000 		.4byte	.LFE9
 7310 016a 0400     		.2byte	0x4
 7311 016c F3       		.byte	0xf3
 7312 016d 01       		.uleb128 0x1
 7313 016e 50       		.byte	0x50
 7314 016f 9F       		.byte	0x9f
 7315 0170 00000000 		.4byte	0
 7316 0174 00000000 		.4byte	0
ARM GAS  C:\Users\charl\AppData\Local\Temp\ccxfbC9q.s 			page 197


 7317              	.LLST8:
 7318 0178 00000000 		.4byte	.LVL62
 7319 017c 10000000 		.4byte	.LVL66
 7320 0180 0100     		.2byte	0x1
 7321 0182 51       		.byte	0x51
 7322 0183 10000000 		.4byte	.LVL66
 7323 0187 1C000000 		.4byte	.LFE9
 7324 018b 0400     		.2byte	0x4
 7325 018d F3       		.byte	0xf3
 7326 018e 01       		.uleb128 0x1
 7327 018f 51       		.byte	0x51
 7328 0190 9F       		.byte	0x9f
 7329 0191 00000000 		.4byte	0
 7330 0195 00000000 		.4byte	0
 7331              	.LLST9:
 7332 0199 08000000 		.4byte	.LVL63
 7333 019d 0E000000 		.4byte	.LVL65
 7334 01a1 0100     		.2byte	0x1
 7335 01a3 50       		.byte	0x50
 7336 01a4 0E000000 		.4byte	.LVL65
 7337 01a8 16000000 		.4byte	.LVL68
 7338 01ac 0400     		.2byte	0x4
 7339 01ae F3       		.byte	0xf3
 7340 01af 01       		.uleb128 0x1
 7341 01b0 50       		.byte	0x50
 7342 01b1 9F       		.byte	0x9f
 7343 01b2 00000000 		.4byte	0
 7344 01b6 00000000 		.4byte	0
 7345              	.LLST10:
 7346 01ba 0C000000 		.4byte	.LVL64
 7347 01be 14000000 		.4byte	.LVL67
 7348 01c2 0100     		.2byte	0x1
 7349 01c4 52       		.byte	0x52
 7350 01c5 00000000 		.4byte	0
 7351 01c9 00000000 		.4byte	0
 7352              	.LLST11:
 7353 01cd 00000000 		.4byte	.LVL69
 7354 01d1 0E000000 		.4byte	.LVL71
 7355 01d5 0100     		.2byte	0x1
 7356 01d7 50       		.byte	0x50
 7357 01d8 0E000000 		.4byte	.LVL71
 7358 01dc 1C000000 		.4byte	.LFE10
 7359 01e0 0400     		.2byte	0x4
 7360 01e2 F3       		.byte	0xf3
 7361 01e3 01       		.uleb128 0x1
 7362 01e4 50       		.byte	0x50
 7363 01e5 9F       		.byte	0x9f
 7364 01e6 00000000 		.4byte	0
 7365 01ea 00000000 		.4byte	0
 7366              	.LLST12:
 7367 01ee 00000000 		.4byte	.LVL69
 7368 01f2 10000000 		.4byte	.LVL72
 7369 01f6 0100     		.2byte	0x1
 7370 01f8 51       		.byte	0x51
 7371 01f9 10000000 		.4byte	.LVL72
 7372 01fd 1C000000 		.4byte	.LFE10
 7373 0201 0400     		.2byte	0x4
ARM GAS  C:\Users\charl\AppData\Local\Temp\ccxfbC9q.s 			page 198


 7374 0203 F3       		.byte	0xf3
 7375 0204 01       		.uleb128 0x1
 7376 0205 51       		.byte	0x51
 7377 0206 9F       		.byte	0x9f
 7378 0207 00000000 		.4byte	0
 7379 020b 00000000 		.4byte	0
 7380              	.LLST13:
 7381 020f 08000000 		.4byte	.LVL70
 7382 0213 0E000000 		.4byte	.LVL71
 7383 0217 0100     		.2byte	0x1
 7384 0219 50       		.byte	0x50
 7385 021a 0E000000 		.4byte	.LVL71
 7386 021e 14000000 		.4byte	.LVL73
 7387 0222 0400     		.2byte	0x4
 7388 0224 F3       		.byte	0xf3
 7389 0225 01       		.uleb128 0x1
 7390 0226 50       		.byte	0x50
 7391 0227 9F       		.byte	0x9f
 7392 0228 00000000 		.4byte	0
 7393 022c 00000000 		.4byte	0
 7394              	.LLST14:
 7395 0230 00000000 		.4byte	.LVL74
 7396 0234 0E000000 		.4byte	.LVL76
 7397 0238 0100     		.2byte	0x1
 7398 023a 50       		.byte	0x50
 7399 023b 0E000000 		.4byte	.LVL76
 7400 023f 12000000 		.4byte	.LVL78
 7401 0243 0400     		.2byte	0x4
 7402 0245 F3       		.byte	0xf3
 7403 0246 01       		.uleb128 0x1
 7404 0247 50       		.byte	0x50
 7405 0248 9F       		.byte	0x9f
 7406 0249 12000000 		.4byte	.LVL78
 7407 024d 14000000 		.4byte	.LVL79
 7408 0251 0100     		.2byte	0x1
 7409 0253 50       		.byte	0x50
 7410 0254 14000000 		.4byte	.LVL79
 7411 0258 1A000000 		.4byte	.LVL81
 7412 025c 0400     		.2byte	0x4
 7413 025e F3       		.byte	0xf3
 7414 025f 01       		.uleb128 0x1
 7415 0260 50       		.byte	0x50
 7416 0261 9F       		.byte	0x9f
 7417 0262 1A000000 		.4byte	.LVL81
 7418 0266 1C000000 		.4byte	.LVL82
 7419 026a 0100     		.2byte	0x1
 7420 026c 50       		.byte	0x50
 7421 026d 1C000000 		.4byte	.LVL82
 7422 0271 24000000 		.4byte	.LFE11
 7423 0275 0400     		.2byte	0x4
 7424 0277 F3       		.byte	0xf3
 7425 0278 01       		.uleb128 0x1
 7426 0279 50       		.byte	0x50
 7427 027a 9F       		.byte	0x9f
 7428 027b 00000000 		.4byte	0
 7429 027f 00000000 		.4byte	0
 7430              	.LLST15:
ARM GAS  C:\Users\charl\AppData\Local\Temp\ccxfbC9q.s 			page 199


 7431 0283 00000000 		.4byte	.LVL74
 7432 0287 18000000 		.4byte	.LVL80
 7433 028b 0200     		.2byte	0x2
 7434 028d 30       		.byte	0x30
 7435 028e 9F       		.byte	0x9f
 7436 028f 18000000 		.4byte	.LVL80
 7437 0293 1A000000 		.4byte	.LVL81
 7438 0297 0100     		.2byte	0x1
 7439 0299 50       		.byte	0x50
 7440 029a 1A000000 		.4byte	.LVL81
 7441 029e 1C000000 		.4byte	.LVL82
 7442 02a2 0200     		.2byte	0x2
 7443 02a4 30       		.byte	0x30
 7444 02a5 9F       		.byte	0x9f
 7445 02a6 1C000000 		.4byte	.LVL82
 7446 02aa 24000000 		.4byte	.LFE11
 7447 02ae 0100     		.2byte	0x1
 7448 02b0 50       		.byte	0x50
 7449 02b1 00000000 		.4byte	0
 7450 02b5 00000000 		.4byte	0
 7451              	.LLST16:
 7452 02b9 06000000 		.4byte	.LVL75
 7453 02bd 0E000000 		.4byte	.LVL76
 7454 02c1 0100     		.2byte	0x1
 7455 02c3 50       		.byte	0x50
 7456 02c4 0E000000 		.4byte	.LVL76
 7457 02c8 12000000 		.4byte	.LVL78
 7458 02cc 0400     		.2byte	0x4
 7459 02ce F3       		.byte	0xf3
 7460 02cf 01       		.uleb128 0x1
 7461 02d0 50       		.byte	0x50
 7462 02d1 9F       		.byte	0x9f
 7463 02d2 00000000 		.4byte	0
 7464 02d6 00000000 		.4byte	0
 7465              	.LLST17:
 7466 02da 00000000 		.4byte	.LVL74
 7467 02de 10000000 		.4byte	.LVL77
 7468 02e2 0200     		.2byte	0x2
 7469 02e4 30       		.byte	0x30
 7470 02e5 9F       		.byte	0x9f
 7471 02e6 10000000 		.4byte	.LVL77
 7472 02ea 12000000 		.4byte	.LVL78
 7473 02ee 0100     		.2byte	0x1
 7474 02f0 50       		.byte	0x50
 7475 02f1 12000000 		.4byte	.LVL78
 7476 02f5 14000000 		.4byte	.LVL79
 7477 02f9 0200     		.2byte	0x2
 7478 02fb 30       		.byte	0x30
 7479 02fc 9F       		.byte	0x9f
 7480 02fd 14000000 		.4byte	.LVL79
 7481 0301 18000000 		.4byte	.LVL80
 7482 0305 0100     		.2byte	0x1
 7483 0307 50       		.byte	0x50
 7484 0308 1A000000 		.4byte	.LVL81
 7485 030c 24000000 		.4byte	.LFE11
 7486 0310 0200     		.2byte	0x2
 7487 0312 30       		.byte	0x30
ARM GAS  C:\Users\charl\AppData\Local\Temp\ccxfbC9q.s 			page 200


 7488 0313 9F       		.byte	0x9f
 7489 0314 00000000 		.4byte	0
 7490 0318 00000000 		.4byte	0
 7491              	.LLST18:
 7492 031c 02000000 		.4byte	.LVL84
 7493 0320 08000000 		.4byte	.LVL85
 7494 0324 0100     		.2byte	0x1
 7495 0326 50       		.byte	0x50
 7496 0327 00000000 		.4byte	0
 7497 032b 00000000 		.4byte	0
 7498              	.LLST19:
 7499 032f 00000000 		.4byte	.LVL86
 7500 0333 04000000 		.4byte	.LVL87
 7501 0337 0200     		.2byte	0x2
 7502 0339 30       		.byte	0x30
 7503 033a 9F       		.byte	0x9f
 7504 033b 04000000 		.4byte	.LVL87
 7505 033f 0C000000 		.4byte	.LVL88
 7506 0343 0100     		.2byte	0x1
 7507 0345 53       		.byte	0x53
 7508 0346 0E000000 		.4byte	.LVL89
 7509 034a 18000000 		.4byte	.LFE13
 7510 034e 0100     		.2byte	0x1
 7511 0350 53       		.byte	0x53
 7512 0351 00000000 		.4byte	0
 7513 0355 00000000 		.4byte	0
 7514              	.LLST20:
 7515 0359 1A000000 		.4byte	.LVL92
 7516 035d 24000000 		.4byte	.LVL93
 7517 0361 0100     		.2byte	0x1
 7518 0363 53       		.byte	0x53
 7519 0364 26000000 		.4byte	.LVL94
 7520 0368 2C000000 		.4byte	.LVL95
 7521 036c 0100     		.2byte	0x1
 7522 036e 53       		.byte	0x53
 7523 036f 00000000 		.4byte	0
 7524 0373 00000000 		.4byte	0
 7525              	.LLST21:
 7526 0377 00000000 		.4byte	.LVL100
 7527 037b 08000000 		.4byte	.LVL102
 7528 037f 0100     		.2byte	0x1
 7529 0381 51       		.byte	0x51
 7530 0382 08000000 		.4byte	.LVL102
 7531 0386 12000000 		.4byte	.LVL103
 7532 038a 0400     		.2byte	0x4
 7533 038c F3       		.byte	0xf3
 7534 038d 01       		.uleb128 0x1
 7535 038e 51       		.byte	0x51
 7536 038f 9F       		.byte	0x9f
 7537 0390 12000000 		.4byte	.LVL103
 7538 0394 14000000 		.4byte	.LVL104
 7539 0398 0100     		.2byte	0x1
 7540 039a 51       		.byte	0x51
 7541 039b 14000000 		.4byte	.LVL104
 7542 039f 24000000 		.4byte	.LFE32
 7543 03a3 0400     		.2byte	0x4
 7544 03a5 F3       		.byte	0xf3
ARM GAS  C:\Users\charl\AppData\Local\Temp\ccxfbC9q.s 			page 201


 7545 03a6 01       		.uleb128 0x1
 7546 03a7 51       		.byte	0x51
 7547 03a8 9F       		.byte	0x9f
 7548 03a9 00000000 		.4byte	0
 7549 03ad 00000000 		.4byte	0
 7550              	.LLST22:
 7551 03b1 04000000 		.4byte	.LVL101
 7552 03b5 1C000000 		.4byte	.LVL105
 7553 03b9 0100     		.2byte	0x1
 7554 03bb 53       		.byte	0x53
 7555 03bc 00000000 		.4byte	0
 7556 03c0 00000000 		.4byte	0
 7557              	.LLST23:
 7558 03c4 00000000 		.4byte	.LVL106
 7559 03c8 06000000 		.4byte	.LVL108
 7560 03cc 0100     		.2byte	0x1
 7561 03ce 50       		.byte	0x50
 7562 03cf 06000000 		.4byte	.LVL108
 7563 03d3 0A000000 		.4byte	.LVL110
 7564 03d7 0400     		.2byte	0x4
 7565 03d9 F3       		.byte	0xf3
 7566 03da 01       		.uleb128 0x1
 7567 03db 50       		.byte	0x50
 7568 03dc 9F       		.byte	0x9f
 7569 03dd 0A000000 		.4byte	.LVL110
 7570 03e1 0C000000 		.4byte	.LVL111
 7571 03e5 0100     		.2byte	0x1
 7572 03e7 50       		.byte	0x50
 7573 03e8 0C000000 		.4byte	.LVL111
 7574 03ec 14000000 		.4byte	.LFE33
 7575 03f0 0400     		.2byte	0x4
 7576 03f2 F3       		.byte	0xf3
 7577 03f3 01       		.uleb128 0x1
 7578 03f4 50       		.byte	0x50
 7579 03f5 9F       		.byte	0x9f
 7580 03f6 00000000 		.4byte	0
 7581 03fa 00000000 		.4byte	0
 7582              	.LLST24:
 7583 03fe 02000000 		.4byte	.LVL107
 7584 0402 06000000 		.4byte	.LVL108
 7585 0406 0100     		.2byte	0x1
 7586 0408 50       		.byte	0x50
 7587 0409 06000000 		.4byte	.LVL108
 7588 040d 0A000000 		.4byte	.LVL110
 7589 0411 0400     		.2byte	0x4
 7590 0413 F3       		.byte	0xf3
 7591 0414 01       		.uleb128 0x1
 7592 0415 50       		.byte	0x50
 7593 0416 9F       		.byte	0x9f
 7594 0417 00000000 		.4byte	0
 7595 041b 00000000 		.4byte	0
 7596              	.LLST25:
 7597 041f 00000000 		.4byte	.LVL106
 7598 0423 08000000 		.4byte	.LVL109
 7599 0427 0200     		.2byte	0x2
 7600 0429 30       		.byte	0x30
 7601 042a 9F       		.byte	0x9f
ARM GAS  C:\Users\charl\AppData\Local\Temp\ccxfbC9q.s 			page 202


 7602 042b 08000000 		.4byte	.LVL109
 7603 042f 0A000000 		.4byte	.LVL110
 7604 0433 0100     		.2byte	0x1
 7605 0435 50       		.byte	0x50
 7606 0436 0A000000 		.4byte	.LVL110
 7607 043a 0C000000 		.4byte	.LVL111
 7608 043e 0200     		.2byte	0x2
 7609 0440 30       		.byte	0x30
 7610 0441 9F       		.byte	0x9f
 7611 0442 0C000000 		.4byte	.LVL111
 7612 0446 14000000 		.4byte	.LFE33
 7613 044a 0100     		.2byte	0x1
 7614 044c 50       		.byte	0x50
 7615 044d 00000000 		.4byte	0
 7616 0451 00000000 		.4byte	0
 7617              	.LLST26:
 7618 0455 00000000 		.4byte	.LVL112
 7619 0459 04000000 		.4byte	.LVL113
 7620 045d 0100     		.2byte	0x1
 7621 045f 50       		.byte	0x50
 7622 0460 04000000 		.4byte	.LVL113
 7623 0464 10000000 		.4byte	.LFE34
 7624 0468 0400     		.2byte	0x4
 7625 046a F3       		.byte	0xf3
 7626 046b 01       		.uleb128 0x1
 7627 046c 50       		.byte	0x50
 7628 046d 9F       		.byte	0x9f
 7629 046e 00000000 		.4byte	0
 7630 0472 00000000 		.4byte	0
 7631              	.LLST27:
 7632 0476 04000000 		.4byte	.LVL113
 7633 047a 08000000 		.4byte	.LVL114
 7634 047e 0100     		.2byte	0x1
 7635 0480 50       		.byte	0x50
 7636 0481 00000000 		.4byte	0
 7637 0485 00000000 		.4byte	0
 7638              	.LLST28:
 7639 0489 04000000 		.4byte	.LVL113
 7640 048d 08000000 		.4byte	.LVL114
 7641 0491 0800     		.2byte	0x8
 7642 0493 70       		.byte	0x70
 7643 0494 00       		.sleb128 0
 7644 0495 03       		.byte	0x3
 7645 0496 00000000 		.4byte	.LANCHOR2
 7646 049a 22       		.byte	0x22
 7647 049b 08000000 		.4byte	.LVL114
 7648 049f 10000000 		.4byte	.LFE34
 7649 04a3 0100     		.2byte	0x1
 7650 04a5 50       		.byte	0x50
 7651 04a6 00000000 		.4byte	0
 7652 04aa 00000000 		.4byte	0
 7653              	.LLST29:
 7654 04ae 00000000 		.4byte	.LVL115
 7655 04b2 30000000 		.4byte	.LVL125
 7656 04b6 0100     		.2byte	0x1
 7657 04b8 50       		.byte	0x50
 7658 04b9 30000000 		.4byte	.LVL125
ARM GAS  C:\Users\charl\AppData\Local\Temp\ccxfbC9q.s 			page 203


 7659 04bd 1C010000 		.4byte	.LFE15
 7660 04c1 0400     		.2byte	0x4
 7661 04c3 F3       		.byte	0xf3
 7662 04c4 01       		.uleb128 0x1
 7663 04c5 50       		.byte	0x50
 7664 04c6 9F       		.byte	0x9f
 7665 04c7 00000000 		.4byte	0
 7666 04cb 00000000 		.4byte	0
 7667              	.LLST30:
 7668 04cf 00000000 		.4byte	.LVL115
 7669 04d3 30000000 		.4byte	.LVL125
 7670 04d7 0100     		.2byte	0x1
 7671 04d9 51       		.byte	0x51
 7672 04da 30000000 		.4byte	.LVL125
 7673 04de 1C010000 		.4byte	.LFE15
 7674 04e2 0400     		.2byte	0x4
 7675 04e4 F3       		.byte	0xf3
 7676 04e5 01       		.uleb128 0x1
 7677 04e6 51       		.byte	0x51
 7678 04e7 9F       		.byte	0x9f
 7679 04e8 00000000 		.4byte	0
 7680 04ec 00000000 		.4byte	0
 7681              	.LLST31:
 7682 04f0 00000000 		.4byte	.LVL115
 7683 04f4 30000000 		.4byte	.LVL125
 7684 04f8 0100     		.2byte	0x1
 7685 04fa 52       		.byte	0x52
 7686 04fb 30000000 		.4byte	.LVL125
 7687 04ff 1C010000 		.4byte	.LFE15
 7688 0503 0400     		.2byte	0x4
 7689 0505 F3       		.byte	0xf3
 7690 0506 01       		.uleb128 0x1
 7691 0507 52       		.byte	0x52
 7692 0508 9F       		.byte	0x9f
 7693 0509 00000000 		.4byte	0
 7694 050d 00000000 		.4byte	0
 7695              	.LLST32:
 7696 0511 00000000 		.4byte	.LVL115
 7697 0515 0E000000 		.4byte	.LVL117
 7698 0519 0100     		.2byte	0x1
 7699 051b 53       		.byte	0x53
 7700 051c 0E000000 		.4byte	.LVL117
 7701 0520 1C010000 		.4byte	.LFE15
 7702 0524 0400     		.2byte	0x4
 7703 0526 F3       		.byte	0xf3
 7704 0527 01       		.uleb128 0x1
 7705 0528 53       		.byte	0x53
 7706 0529 9F       		.byte	0x9f
 7707 052a 00000000 		.4byte	0
 7708 052e 00000000 		.4byte	0
 7709              	.LLST33:
 7710 0532 2C000000 		.4byte	.LVL124
 7711 0536 30000000 		.4byte	.LVL125
 7712 053a 0100     		.2byte	0x1
 7713 053c 54       		.byte	0x54
 7714 053d 30000000 		.4byte	.LVL125
 7715 0541 39000000 		.4byte	.LVL126-1
ARM GAS  C:\Users\charl\AppData\Local\Temp\ccxfbC9q.s 			page 204


 7716 0545 0100     		.2byte	0x1
 7717 0547 53       		.byte	0x53
 7718 0548 48000000 		.4byte	.LVL128
 7719 054c 78000000 		.4byte	.LVL132
 7720 0550 0100     		.2byte	0x1
 7721 0552 53       		.byte	0x53
 7722 0553 7A000000 		.4byte	.LVL133
 7723 0557 B0000000 		.4byte	.LVL139
 7724 055b 0100     		.2byte	0x1
 7725 055d 53       		.byte	0x53
 7726 055e B2000000 		.4byte	.LVL140
 7727 0562 BC000000 		.4byte	.LVL142
 7728 0566 0100     		.2byte	0x1
 7729 0568 53       		.byte	0x53
 7730 0569 DC000000 		.4byte	.LVL145
 7731 056d 0A010000 		.4byte	.LVL146
 7732 0571 0100     		.2byte	0x1
 7733 0573 54       		.byte	0x54
 7734 0574 0C010000 		.4byte	.LVL147
 7735 0578 10010000 		.4byte	.LVL148
 7736 057c 0100     		.2byte	0x1
 7737 057e 54       		.byte	0x54
 7738 057f 00000000 		.4byte	0
 7739 0583 00000000 		.4byte	0
 7740              	.LLST34:
 7741 0587 1E000000 		.4byte	.LVL120
 7742 058b 22000000 		.4byte	.LVL121
 7743 058f 0100     		.2byte	0x1
 7744 0591 56       		.byte	0x56
 7745 0592 26000000 		.4byte	.LVL122
 7746 0596 2A000000 		.4byte	.LVL123
 7747 059a 0100     		.2byte	0x1
 7748 059c 56       		.byte	0x56
 7749 059d 2C000000 		.4byte	.LVL124
 7750 05a1 AC000000 		.4byte	.LVL137
 7751 05a5 0100     		.2byte	0x1
 7752 05a7 56       		.byte	0x56
 7753 05a8 AE000000 		.4byte	.LVL138
 7754 05ac D4000000 		.4byte	.LVL143
 7755 05b0 0100     		.2byte	0x1
 7756 05b2 56       		.byte	0x56
 7757 05b3 D6000000 		.4byte	.LVL144
 7758 05b7 16010000 		.4byte	.LVL149
 7759 05bb 0100     		.2byte	0x1
 7760 05bd 56       		.byte	0x56
 7761 05be 00000000 		.4byte	0
 7762 05c2 00000000 		.4byte	0
 7763              	.LLST35:
 7764 05c6 1A000000 		.4byte	.LVL119
 7765 05ca 22000000 		.4byte	.LVL121
 7766 05ce 0200     		.2byte	0x2
 7767 05d0 31       		.byte	0x31
 7768 05d1 9F       		.byte	0x9f
 7769 05d2 22000000 		.4byte	.LVL121
 7770 05d6 2A000000 		.4byte	.LVL123
 7771 05da 0200     		.2byte	0x2
 7772 05dc 32       		.byte	0x32
ARM GAS  C:\Users\charl\AppData\Local\Temp\ccxfbC9q.s 			page 205


 7773 05dd 9F       		.byte	0x9f
 7774 05de 2C000000 		.4byte	.LVL124
 7775 05e2 16010000 		.4byte	.LVL149
 7776 05e6 0100     		.2byte	0x1
 7777 05e8 57       		.byte	0x57
 7778 05e9 00000000 		.4byte	0
 7779 05ed 00000000 		.4byte	0
 7780              	.LLST36:
 7781 05f1 30000000 		.4byte	.LVL125
 7782 05f5 46000000 		.4byte	.LVL127
 7783 05f9 0500     		.2byte	0x5
 7784 05fb 79       		.byte	0x79
 7785 05fc 00       		.sleb128 0
 7786 05fd 3F       		.byte	0x3f
 7787 05fe 1A       		.byte	0x1a
 7788 05ff 9F       		.byte	0x9f
 7789 0600 00000000 		.4byte	0
 7790 0604 00000000 		.4byte	0
 7791              	.LLST37:
 7792 0608 0C000000 		.4byte	.LVL116
 7793 060c 54000000 		.4byte	.LVL129
 7794 0610 0200     		.2byte	0x2
 7795 0612 30       		.byte	0x30
 7796 0613 9F       		.byte	0x9f
 7797 0614 54000000 		.4byte	.LVL129
 7798 0618 74000000 		.4byte	.LVL130
 7799 061c 0100     		.2byte	0x1
 7800 061e 52       		.byte	0x52
 7801 061f 76000000 		.4byte	.LVL131
 7802 0623 7C000000 		.4byte	.LVL134
 7803 0627 0100     		.2byte	0x1
 7804 0629 52       		.byte	0x52
 7805 062a 7C000000 		.4byte	.LVL134
 7806 062e 80000000 		.4byte	.LVL135
 7807 0632 0200     		.2byte	0x2
 7808 0634 30       		.byte	0x30
 7809 0635 9F       		.byte	0x9f
 7810 0636 80000000 		.4byte	.LVL135
 7811 063a 84000000 		.4byte	.LVL136
 7812 063e 0100     		.2byte	0x1
 7813 0640 52       		.byte	0x52
 7814 0641 00000000 		.4byte	0
 7815 0645 00000000 		.4byte	0
 7816              	.LLST38:
 7817 0649 12000000 		.4byte	.LVL118
 7818 064d 30000000 		.4byte	.LVL125
 7819 0651 0100     		.2byte	0x1
 7820 0653 50       		.byte	0x50
 7821 0654 30000000 		.4byte	.LVL125
 7822 0658 16010000 		.4byte	.LVL149
 7823 065c 0100     		.2byte	0x1
 7824 065e 59       		.byte	0x59
 7825 065f 00000000 		.4byte	0
 7826 0663 00000000 		.4byte	0
 7827              	.LLST39:
 7828 0667 00000000 		.4byte	.LVL150
 7829 066b 0D000000 		.4byte	.LVL152-1
ARM GAS  C:\Users\charl\AppData\Local\Temp\ccxfbC9q.s 			page 206


 7830 066f 0100     		.2byte	0x1
 7831 0671 50       		.byte	0x50
 7832 0672 0D000000 		.4byte	.LVL152-1
 7833 0676 14000000 		.4byte	.LVL153
 7834 067a 0400     		.2byte	0x4
 7835 067c F3       		.byte	0xf3
 7836 067d 01       		.uleb128 0x1
 7837 067e 50       		.byte	0x50
 7838 067f 9F       		.byte	0x9f
 7839 0680 14000000 		.4byte	.LVL153
 7840 0684 1C000000 		.4byte	.LFE18
 7841 0688 0100     		.2byte	0x1
 7842 068a 50       		.byte	0x50
 7843 068b 00000000 		.4byte	0
 7844 068f 00000000 		.4byte	0
 7845              	.LLST40:
 7846 0693 00000000 		.4byte	.LVL150
 7847 0697 0D000000 		.4byte	.LVL152-1
 7848 069b 0100     		.2byte	0x1
 7849 069d 51       		.byte	0x51
 7850 069e 0D000000 		.4byte	.LVL152-1
 7851 06a2 14000000 		.4byte	.LVL153
 7852 06a6 0400     		.2byte	0x4
 7853 06a8 F3       		.byte	0xf3
 7854 06a9 01       		.uleb128 0x1
 7855 06aa 51       		.byte	0x51
 7856 06ab 9F       		.byte	0x9f
 7857 06ac 14000000 		.4byte	.LVL153
 7858 06b0 1C000000 		.4byte	.LFE18
 7859 06b4 0100     		.2byte	0x1
 7860 06b6 51       		.byte	0x51
 7861 06b7 00000000 		.4byte	0
 7862 06bb 00000000 		.4byte	0
 7863              	.LLST41:
 7864 06bf 0A000000 		.4byte	.LVL151
 7865 06c3 14000000 		.4byte	.LVL153
 7866 06c7 0100     		.2byte	0x1
 7867 06c9 54       		.byte	0x54
 7868 06ca 00000000 		.4byte	0
 7869 06ce 00000000 		.4byte	0
 7870              	.LLST42:
 7871 06d2 00000000 		.4byte	.LVL154
 7872 06d6 09000000 		.4byte	.LVL156-1
 7873 06da 0100     		.2byte	0x1
 7874 06dc 50       		.byte	0x50
 7875 06dd 09000000 		.4byte	.LVL156-1
 7876 06e1 10000000 		.4byte	.LVL157
 7877 06e5 0400     		.2byte	0x4
 7878 06e7 F3       		.byte	0xf3
 7879 06e8 01       		.uleb128 0x1
 7880 06e9 50       		.byte	0x50
 7881 06ea 9F       		.byte	0x9f
 7882 06eb 10000000 		.4byte	.LVL157
 7883 06ef 18000000 		.4byte	.LFE19
 7884 06f3 0100     		.2byte	0x1
 7885 06f5 50       		.byte	0x50
 7886 06f6 00000000 		.4byte	0
ARM GAS  C:\Users\charl\AppData\Local\Temp\ccxfbC9q.s 			page 207


 7887 06fa 00000000 		.4byte	0
 7888              	.LLST43:
 7889 06fe 00000000 		.4byte	.LVL154
 7890 0702 09000000 		.4byte	.LVL156-1
 7891 0706 0100     		.2byte	0x1
 7892 0708 51       		.byte	0x51
 7893 0709 09000000 		.4byte	.LVL156-1
 7894 070d 10000000 		.4byte	.LVL157
 7895 0711 0400     		.2byte	0x4
 7896 0713 F3       		.byte	0xf3
 7897 0714 01       		.uleb128 0x1
 7898 0715 51       		.byte	0x51
 7899 0716 9F       		.byte	0x9f
 7900 0717 10000000 		.4byte	.LVL157
 7901 071b 18000000 		.4byte	.LFE19
 7902 071f 0100     		.2byte	0x1
 7903 0721 51       		.byte	0x51
 7904 0722 00000000 		.4byte	0
 7905 0726 00000000 		.4byte	0
 7906              	.LLST44:
 7907 072a 06000000 		.4byte	.LVL155
 7908 072e 10000000 		.4byte	.LVL157
 7909 0732 0100     		.2byte	0x1
 7910 0734 54       		.byte	0x54
 7911 0735 00000000 		.4byte	0
 7912 0739 00000000 		.4byte	0
 7913              	.LLST45:
 7914 073d 00000000 		.4byte	.LVL158
 7915 0741 06000000 		.4byte	.LVL160
 7916 0745 0100     		.2byte	0x1
 7917 0747 50       		.byte	0x50
 7918 0748 06000000 		.4byte	.LVL160
 7919 074c 24000000 		.4byte	.LFE35
 7920 0750 0400     		.2byte	0x4
 7921 0752 F3       		.byte	0xf3
 7922 0753 01       		.uleb128 0x1
 7923 0754 50       		.byte	0x50
 7924 0755 9F       		.byte	0x9f
 7925 0756 00000000 		.4byte	0
 7926 075a 00000000 		.4byte	0
 7927              	.LLST46:
 7928 075e 04000000 		.4byte	.LVL159
 7929 0762 16000000 		.4byte	.LVL165
 7930 0766 0100     		.2byte	0x1
 7931 0768 53       		.byte	0x53
 7932 0769 1A000000 		.4byte	.LVL167
 7933 076d 24000000 		.4byte	.LFE35
 7934 0771 0100     		.2byte	0x1
 7935 0773 53       		.byte	0x53
 7936 0774 00000000 		.4byte	0
 7937 0778 00000000 		.4byte	0
 7938              	.LLST47:
 7939 077c 06000000 		.4byte	.LVL160
 7940 0780 08000000 		.4byte	.LVL161
 7941 0784 0100     		.2byte	0x1
 7942 0786 50       		.byte	0x50
 7943 0787 08000000 		.4byte	.LVL161
ARM GAS  C:\Users\charl\AppData\Local\Temp\ccxfbC9q.s 			page 208


 7944 078b 0A000000 		.4byte	.LVL162
 7945 078f 0300     		.2byte	0x3
 7946 0791 70       		.byte	0x70
 7947 0792 02       		.sleb128 2
 7948 0793 9F       		.byte	0x9f
 7949 0794 0E000000 		.4byte	.LVL163
 7950 0798 14000000 		.4byte	.LVL164
 7951 079c 0100     		.2byte	0x1
 7952 079e 50       		.byte	0x50
 7953 079f 00000000 		.4byte	0
 7954 07a3 00000000 		.4byte	0
 7955              	.LLST48:
 7956 07a7 18000000 		.4byte	.LVL166
 7957 07ab 1A000000 		.4byte	.LVL167
 7958 07af 0100     		.2byte	0x1
 7959 07b1 50       		.byte	0x50
 7960 07b2 1C000000 		.4byte	.LVL168
 7961 07b6 24000000 		.4byte	.LFE35
 7962 07ba 0100     		.2byte	0x1
 7963 07bc 50       		.byte	0x50
 7964 07bd 00000000 		.4byte	0
 7965 07c1 00000000 		.4byte	0
 7966              	.LLST49:
 7967 07c5 00000000 		.4byte	.LVL169
 7968 07c9 40000000 		.4byte	.LVL182
 7969 07cd 0100     		.2byte	0x1
 7970 07cf 50       		.byte	0x50
 7971 07d0 40000000 		.4byte	.LVL182
 7972 07d4 78010000 		.4byte	.LFE14
 7973 07d8 0400     		.2byte	0x4
 7974 07da F3       		.byte	0xf3
 7975 07db 01       		.uleb128 0x1
 7976 07dc 50       		.byte	0x50
 7977 07dd 9F       		.byte	0x9f
 7978 07de 00000000 		.4byte	0
 7979 07e2 00000000 		.4byte	0
 7980              	.LLST50:
 7981 07e6 00000000 		.4byte	.LVL169
 7982 07ea 40000000 		.4byte	.LVL182
 7983 07ee 0100     		.2byte	0x1
 7984 07f0 51       		.byte	0x51
 7985 07f1 40000000 		.4byte	.LVL182
 7986 07f5 78010000 		.4byte	.LFE14
 7987 07f9 0400     		.2byte	0x4
 7988 07fb F3       		.byte	0xf3
 7989 07fc 01       		.uleb128 0x1
 7990 07fd 51       		.byte	0x51
 7991 07fe 9F       		.byte	0x9f
 7992 07ff 00000000 		.4byte	0
 7993 0803 00000000 		.4byte	0
 7994              	.LLST51:
 7995 0807 00000000 		.4byte	.LVL169
 7996 080b 30000000 		.4byte	.LVL178
 7997 080f 0100     		.2byte	0x1
 7998 0811 52       		.byte	0x52
 7999 0812 30000000 		.4byte	.LVL178
 8000 0816 36000000 		.4byte	.LVL179
ARM GAS  C:\Users\charl\AppData\Local\Temp\ccxfbC9q.s 			page 209


 8001 081a 0400     		.2byte	0x4
 8002 081c F3       		.byte	0xf3
 8003 081d 01       		.uleb128 0x1
 8004 081e 52       		.byte	0x52
 8005 081f 9F       		.byte	0x9f
 8006 0820 36000000 		.4byte	.LVL179
 8007 0824 38000000 		.4byte	.LVL180
 8008 0828 0100     		.2byte	0x1
 8009 082a 52       		.byte	0x52
 8010 082b 38000000 		.4byte	.LVL180
 8011 082f 78010000 		.4byte	.LFE14
 8012 0833 0400     		.2byte	0x4
 8013 0835 F3       		.byte	0xf3
 8014 0836 01       		.uleb128 0x1
 8015 0837 52       		.byte	0x52
 8016 0838 9F       		.byte	0x9f
 8017 0839 00000000 		.4byte	0
 8018 083d 00000000 		.4byte	0
 8019              	.LLST52:
 8020 0841 00000000 		.4byte	.LVL169
 8021 0845 0C000000 		.4byte	.LVL171
 8022 0849 0100     		.2byte	0x1
 8023 084b 53       		.byte	0x53
 8024 084c 0C000000 		.4byte	.LVL171
 8025 0850 78010000 		.4byte	.LFE14
 8026 0854 0400     		.2byte	0x4
 8027 0856 F3       		.byte	0xf3
 8028 0857 01       		.uleb128 0x1
 8029 0858 53       		.byte	0x53
 8030 0859 9F       		.byte	0x9f
 8031 085a 00000000 		.4byte	0
 8032 085e 00000000 		.4byte	0
 8033              	.LLST53:
 8034 0862 3C000000 		.4byte	.LVL181
 8035 0866 40000000 		.4byte	.LVL182
 8036 086a 0100     		.2byte	0x1
 8037 086c 54       		.byte	0x54
 8038 086d 40000000 		.4byte	.LVL182
 8039 0871 5B000000 		.4byte	.LVL184-1
 8040 0875 0100     		.2byte	0x1
 8041 0877 53       		.byte	0x53
 8042 0878 6A000000 		.4byte	.LVL186
 8043 087c 7D000000 		.4byte	.LVL187-1
 8044 0880 0100     		.2byte	0x1
 8045 0882 53       		.byte	0x53
 8046 0883 84000000 		.4byte	.LVL188
 8047 0887 9F000000 		.4byte	.LVL189-1
 8048 088b 0100     		.2byte	0x1
 8049 088d 53       		.byte	0x53
 8050 088e AA000000 		.4byte	.LVL190
 8051 0892 B3000000 		.4byte	.LVL192-1
 8052 0896 0100     		.2byte	0x1
 8053 0898 53       		.byte	0x53
 8054 0899 BE000000 		.4byte	.LVL193
 8055 089d D4000000 		.4byte	.LVL196
 8056 08a1 0100     		.2byte	0x1
 8057 08a3 53       		.byte	0x53
ARM GAS  C:\Users\charl\AppData\Local\Temp\ccxfbC9q.s 			page 210


 8058 08a4 D6000000 		.4byte	.LVL197
 8059 08a8 E0000000 		.4byte	.LVL201
 8060 08ac 0100     		.2byte	0x1
 8061 08ae 53       		.byte	0x53
 8062 08af E6000000 		.4byte	.LVL202
 8063 08b3 0A010000 		.4byte	.LVL205
 8064 08b7 0100     		.2byte	0x1
 8065 08b9 53       		.byte	0x53
 8066 08ba 0C010000 		.4byte	.LVL206
 8067 08be 0E010000 		.4byte	.LVL207
 8068 08c2 0100     		.2byte	0x1
 8069 08c4 53       		.byte	0x53
 8070 08c5 10010000 		.4byte	.LVL208
 8071 08c9 16010000 		.4byte	.LVL209
 8072 08cd 0100     		.2byte	0x1
 8073 08cf 53       		.byte	0x53
 8074 08d0 36010000 		.4byte	.LVL212
 8075 08d4 64010000 		.4byte	.LVL213
 8076 08d8 0100     		.2byte	0x1
 8077 08da 54       		.byte	0x54
 8078 08db 66010000 		.4byte	.LVL214
 8079 08df 6A010000 		.4byte	.LVL215
 8080 08e3 0100     		.2byte	0x1
 8081 08e5 54       		.byte	0x54
 8082 08e6 00000000 		.4byte	0
 8083 08ea 00000000 		.4byte	0
 8084              	.LLST54:
 8085 08ee 1C000000 		.4byte	.LVL173
 8086 08f2 20000000 		.4byte	.LVL174
 8087 08f6 0100     		.2byte	0x1
 8088 08f8 55       		.byte	0x55
 8089 08f9 24000000 		.4byte	.LVL175
 8090 08fd 28000000 		.4byte	.LVL176
 8091 0901 0100     		.2byte	0x1
 8092 0903 55       		.byte	0x55
 8093 0904 2A000000 		.4byte	.LVL177
 8094 0908 06010000 		.4byte	.LVL203
 8095 090c 0100     		.2byte	0x1
 8096 090e 55       		.byte	0x55
 8097 090f 08010000 		.4byte	.LVL204
 8098 0913 2E010000 		.4byte	.LVL210
 8099 0917 0100     		.2byte	0x1
 8100 0919 55       		.byte	0x55
 8101 091a 30010000 		.4byte	.LVL211
 8102 091e 70010000 		.4byte	.LVL216
 8103 0922 0100     		.2byte	0x1
 8104 0924 55       		.byte	0x55
 8105 0925 00000000 		.4byte	0
 8106 0929 00000000 		.4byte	0
 8107              	.LLST55:
 8108 092d 18000000 		.4byte	.LVL172
 8109 0931 20000000 		.4byte	.LVL174
 8110 0935 0200     		.2byte	0x2
 8111 0937 31       		.byte	0x31
 8112 0938 9F       		.byte	0x9f
 8113 0939 20000000 		.4byte	.LVL174
 8114 093d 28000000 		.4byte	.LVL176
ARM GAS  C:\Users\charl\AppData\Local\Temp\ccxfbC9q.s 			page 211


 8115 0941 0200     		.2byte	0x2
 8116 0943 32       		.byte	0x32
 8117 0944 9F       		.byte	0x9f
 8118 0945 2A000000 		.4byte	.LVL177
 8119 0949 70010000 		.4byte	.LVL216
 8120 094d 0100     		.2byte	0x1
 8121 094f 56       		.byte	0x56
 8122 0950 00000000 		.4byte	0
 8123 0954 00000000 		.4byte	0
 8124              	.LLST56:
 8125 0958 30000000 		.4byte	.LVL178
 8126 095c 36000000 		.4byte	.LVL179
 8127 0960 0200     		.2byte	0x2
 8128 0962 30       		.byte	0x30
 8129 0963 9F       		.byte	0x9f
 8130 0964 38000000 		.4byte	.LVL180
 8131 0968 3C000000 		.4byte	.LVL181
 8132 096c 0200     		.2byte	0x2
 8133 096e 31       		.byte	0x31
 8134 096f 9F       		.byte	0x9f
 8135 0970 3C000000 		.4byte	.LVL181
 8136 0974 AE000000 		.4byte	.LVL191
 8137 0978 0100     		.2byte	0x1
 8138 097a 58       		.byte	0x58
 8139 097b BE000000 		.4byte	.LVL193
 8140 097f E0000000 		.4byte	.LVL201
 8141 0983 0100     		.2byte	0x1
 8142 0985 58       		.byte	0x58
 8143 0986 00000000 		.4byte	0
 8144 098a 00000000 		.4byte	0
 8145              	.LLST57:
 8146 098e 52000000 		.4byte	.LVL183
 8147 0992 5B000000 		.4byte	.LVL184-1
 8148 0996 0100     		.2byte	0x1
 8149 0998 50       		.byte	0x50
 8150 0999 00000000 		.4byte	0
 8151 099d 00000000 		.4byte	0
 8152              	.LLST58:
 8153 09a1 0A000000 		.4byte	.LVL170
 8154 09a5 84000000 		.4byte	.LVL188
 8155 09a9 0200     		.2byte	0x2
 8156 09ab 30       		.byte	0x30
 8157 09ac 9F       		.byte	0x9f
 8158 09ad 84000000 		.4byte	.LVL188
 8159 09b1 9F000000 		.4byte	.LVL189-1
 8160 09b5 0100     		.2byte	0x1
 8161 09b7 52       		.byte	0x52
 8162 09b8 AA000000 		.4byte	.LVL190
 8163 09bc B3000000 		.4byte	.LVL192-1
 8164 09c0 0100     		.2byte	0x1
 8165 09c2 52       		.byte	0x52
 8166 09c3 BE000000 		.4byte	.LVL193
 8167 09c7 D0000000 		.4byte	.LVL194
 8168 09cb 0100     		.2byte	0x1
 8169 09cd 52       		.byte	0x52
 8170 09ce D2000000 		.4byte	.LVL195
 8171 09d2 D8000000 		.4byte	.LVL198
ARM GAS  C:\Users\charl\AppData\Local\Temp\ccxfbC9q.s 			page 212


 8172 09d6 0100     		.2byte	0x1
 8173 09d8 52       		.byte	0x52
 8174 09d9 D8000000 		.4byte	.LVL198
 8175 09dd DC000000 		.4byte	.LVL200
 8176 09e1 0200     		.2byte	0x2
 8177 09e3 30       		.byte	0x30
 8178 09e4 9F       		.byte	0x9f
 8179 09e5 DC000000 		.4byte	.LVL200
 8180 09e9 E0000000 		.4byte	.LVL201
 8181 09ed 0100     		.2byte	0x1
 8182 09ef 52       		.byte	0x52
 8183 09f0 00000000 		.4byte	0
 8184 09f4 00000000 		.4byte	0
 8185              	.LLST59:
 8186 09f8 30000000 		.4byte	.LVL178
 8187 09fc 36000000 		.4byte	.LVL179
 8188 0a00 0100     		.2byte	0x1
 8189 0a02 52       		.byte	0x52
 8190 0a03 38000000 		.4byte	.LVL180
 8191 0a07 5B000000 		.4byte	.LVL184-1
 8192 0a0b 0100     		.2byte	0x1
 8193 0a0d 52       		.byte	0x52
 8194 0a0e 66000000 		.4byte	.LVL185
 8195 0a12 7D000000 		.4byte	.LVL187-1
 8196 0a16 0100     		.2byte	0x1
 8197 0a18 52       		.byte	0x52
 8198 0a19 D8000000 		.4byte	.LVL198
 8199 0a1d DA000000 		.4byte	.LVL199
 8200 0a21 0100     		.2byte	0x1
 8201 0a23 52       		.byte	0x52
 8202 0a24 00000000 		.4byte	0
 8203 0a28 00000000 		.4byte	0
 8204              	.LLST60:
 8205 0a2c 00000000 		.4byte	.LVL217
 8206 0a30 0B000000 		.4byte	.LVL218-1
 8207 0a34 0100     		.2byte	0x1
 8208 0a36 50       		.byte	0x50
 8209 0a37 0B000000 		.4byte	.LVL218-1
 8210 0a3b 32000000 		.4byte	.LVL226
 8211 0a3f 0100     		.2byte	0x1
 8212 0a41 57       		.byte	0x57
 8213 0a42 32000000 		.4byte	.LVL226
 8214 0a46 38000000 		.4byte	.LFE16
 8215 0a4a 0100     		.2byte	0x1
 8216 0a4c 50       		.byte	0x50
 8217 0a4d 00000000 		.4byte	0
 8218 0a51 00000000 		.4byte	0
 8219              	.LLST61:
 8220 0a55 00000000 		.4byte	.LVL217
 8221 0a59 0B000000 		.4byte	.LVL218-1
 8222 0a5d 0100     		.2byte	0x1
 8223 0a5f 51       		.byte	0x51
 8224 0a60 0B000000 		.4byte	.LVL218-1
 8225 0a64 32000000 		.4byte	.LVL226
 8226 0a68 0400     		.2byte	0x4
 8227 0a6a F3       		.byte	0xf3
 8228 0a6b 01       		.uleb128 0x1
ARM GAS  C:\Users\charl\AppData\Local\Temp\ccxfbC9q.s 			page 213


 8229 0a6c 51       		.byte	0x51
 8230 0a6d 9F       		.byte	0x9f
 8231 0a6e 32000000 		.4byte	.LVL226
 8232 0a72 38000000 		.4byte	.LFE16
 8233 0a76 0100     		.2byte	0x1
 8234 0a78 51       		.byte	0x51
 8235 0a79 00000000 		.4byte	0
 8236 0a7d 00000000 		.4byte	0
 8237              	.LLST62:
 8238 0a81 12000000 		.4byte	.LVL219
 8239 0a85 2A000000 		.4byte	.LVL224
 8240 0a89 0100     		.2byte	0x1
 8241 0a8b 54       		.byte	0x54
 8242 0a8c 2C000000 		.4byte	.LVL225
 8243 0a90 32000000 		.4byte	.LVL226
 8244 0a94 0100     		.2byte	0x1
 8245 0a96 54       		.byte	0x54
 8246 0a97 00000000 		.4byte	0
 8247 0a9b 00000000 		.4byte	0
 8248              	.LLST63:
 8249 0a9f 12000000 		.4byte	.LVL219
 8250 0aa3 32000000 		.4byte	.LVL226
 8251 0aa7 0100     		.2byte	0x1
 8252 0aa9 56       		.byte	0x56
 8253 0aaa 00000000 		.4byte	0
 8254 0aae 00000000 		.4byte	0
 8255              	.LLST64:
 8256 0ab2 00000000 		.4byte	.LVL217
 8257 0ab6 16000000 		.4byte	.LVL220
 8258 0aba 0200     		.2byte	0x2
 8259 0abc 30       		.byte	0x30
 8260 0abd 9F       		.byte	0x9f
 8261 0abe 16000000 		.4byte	.LVL220
 8262 0ac2 26000000 		.4byte	.LVL222
 8263 0ac6 0100     		.2byte	0x1
 8264 0ac8 55       		.byte	0x55
 8265 0ac9 28000000 		.4byte	.LVL223
 8266 0acd 32000000 		.4byte	.LVL226
 8267 0ad1 0100     		.2byte	0x1
 8268 0ad3 55       		.byte	0x55
 8269 0ad4 32000000 		.4byte	.LVL226
 8270 0ad8 38000000 		.4byte	.LFE16
 8271 0adc 0200     		.2byte	0x2
 8272 0ade 30       		.byte	0x30
 8273 0adf 9F       		.byte	0x9f
 8274 0ae0 00000000 		.4byte	0
 8275 0ae4 00000000 		.4byte	0
 8276              	.LLST65:
 8277 0ae8 00000000 		.4byte	.LVL227
 8278 0aec 09000000 		.4byte	.LVL229-1
 8279 0af0 0100     		.2byte	0x1
 8280 0af2 50       		.byte	0x50
 8281 0af3 09000000 		.4byte	.LVL229-1
 8282 0af7 10000000 		.4byte	.LVL230
 8283 0afb 0400     		.2byte	0x4
 8284 0afd F3       		.byte	0xf3
 8285 0afe 01       		.uleb128 0x1
ARM GAS  C:\Users\charl\AppData\Local\Temp\ccxfbC9q.s 			page 214


 8286 0aff 50       		.byte	0x50
 8287 0b00 9F       		.byte	0x9f
 8288 0b01 10000000 		.4byte	.LVL230
 8289 0b05 18000000 		.4byte	.LFE17
 8290 0b09 0100     		.2byte	0x1
 8291 0b0b 50       		.byte	0x50
 8292 0b0c 00000000 		.4byte	0
 8293 0b10 00000000 		.4byte	0
 8294              	.LLST66:
 8295 0b14 00000000 		.4byte	.LVL227
 8296 0b18 09000000 		.4byte	.LVL229-1
 8297 0b1c 0100     		.2byte	0x1
 8298 0b1e 51       		.byte	0x51
 8299 0b1f 09000000 		.4byte	.LVL229-1
 8300 0b23 10000000 		.4byte	.LVL230
 8301 0b27 0400     		.2byte	0x4
 8302 0b29 F3       		.byte	0xf3
 8303 0b2a 01       		.uleb128 0x1
 8304 0b2b 51       		.byte	0x51
 8305 0b2c 9F       		.byte	0x9f
 8306 0b2d 10000000 		.4byte	.LVL230
 8307 0b31 18000000 		.4byte	.LFE17
 8308 0b35 0100     		.2byte	0x1
 8309 0b37 51       		.byte	0x51
 8310 0b38 00000000 		.4byte	0
 8311 0b3c 00000000 		.4byte	0
 8312              	.LLST67:
 8313 0b40 06000000 		.4byte	.LVL228
 8314 0b44 10000000 		.4byte	.LVL230
 8315 0b48 0100     		.2byte	0x1
 8316 0b4a 54       		.byte	0x54
 8317 0b4b 00000000 		.4byte	0
 8318 0b4f 00000000 		.4byte	0
 8319              	.LLST68:
 8320 0b53 00000000 		.4byte	.LVL231
 8321 0b57 04000000 		.4byte	.LVL232
 8322 0b5b 0100     		.2byte	0x1
 8323 0b5d 50       		.byte	0x50
 8324 0b5e 04000000 		.4byte	.LVL232
 8325 0b62 1C000000 		.4byte	.LFE36
 8326 0b66 0400     		.2byte	0x4
 8327 0b68 F3       		.byte	0xf3
 8328 0b69 01       		.uleb128 0x1
 8329 0b6a 50       		.byte	0x50
 8330 0b6b 9F       		.byte	0x9f
 8331 0b6c 00000000 		.4byte	0
 8332 0b70 00000000 		.4byte	0
 8333              	.LLST69:
 8334 0b74 04000000 		.4byte	.LVL232
 8335 0b78 0C000000 		.4byte	.LVL233
 8336 0b7c 0100     		.2byte	0x1
 8337 0b7e 50       		.byte	0x50
 8338 0b7f 00000000 		.4byte	0
 8339 0b83 00000000 		.4byte	0
 8340              	.LLST70:
 8341 0b87 0C000000 		.4byte	.LVL233
 8342 0b8b 14000000 		.4byte	.LVL235
ARM GAS  C:\Users\charl\AppData\Local\Temp\ccxfbC9q.s 			page 215


 8343 0b8f 0500     		.2byte	0x5
 8344 0b91 70       		.byte	0x70
 8345 0b92 00       		.sleb128 0
 8346 0b93 38       		.byte	0x38
 8347 0b94 24       		.byte	0x24
 8348 0b95 9F       		.byte	0x9f
 8349 0b96 00000000 		.4byte	0
 8350 0b9a 00000000 		.4byte	0
 8351              	.LLST71:
 8352 0b9e 10000000 		.4byte	.LVL234
 8353 0ba2 14000000 		.4byte	.LVL235
 8354 0ba6 0800     		.2byte	0x8
 8355 0ba8 70       		.byte	0x70
 8356 0ba9 00       		.sleb128 0
 8357 0baa 38       		.byte	0x38
 8358 0bab 24       		.byte	0x24
 8359 0bac 73       		.byte	0x73
 8360 0bad 00       		.sleb128 0
 8361 0bae 21       		.byte	0x21
 8362 0baf 9F       		.byte	0x9f
 8363 0bb0 00000000 		.4byte	0
 8364 0bb4 00000000 		.4byte	0
 8365              	.LLST72:
 8366 0bb8 00000000 		.4byte	.LVL236
 8367 0bbc 1C000000 		.4byte	.LVL239
 8368 0bc0 0100     		.2byte	0x1
 8369 0bc2 50       		.byte	0x50
 8370 0bc3 1C000000 		.4byte	.LVL239
 8371 0bc7 C4000000 		.4byte	.LFE21
 8372 0bcb 0400     		.2byte	0x4
 8373 0bcd F3       		.byte	0xf3
 8374 0bce 01       		.uleb128 0x1
 8375 0bcf 50       		.byte	0x50
 8376 0bd0 9F       		.byte	0x9f
 8377 0bd1 00000000 		.4byte	0
 8378 0bd5 00000000 		.4byte	0
 8379              	.LLST73:
 8380 0bd9 00000000 		.4byte	.LVL236
 8381 0bdd 1C000000 		.4byte	.LVL239
 8382 0be1 0100     		.2byte	0x1
 8383 0be3 51       		.byte	0x51
 8384 0be4 1C000000 		.4byte	.LVL239
 8385 0be8 C4000000 		.4byte	.LFE21
 8386 0bec 0400     		.2byte	0x4
 8387 0bee F3       		.byte	0xf3
 8388 0bef 01       		.uleb128 0x1
 8389 0bf0 51       		.byte	0x51
 8390 0bf1 9F       		.byte	0x9f
 8391 0bf2 00000000 		.4byte	0
 8392 0bf6 00000000 		.4byte	0
 8393              	.LLST74:
 8394 0bfa 00000000 		.4byte	.LVL236
 8395 0bfe 1C000000 		.4byte	.LVL239
 8396 0c02 0100     		.2byte	0x1
 8397 0c04 52       		.byte	0x52
 8398 0c05 1C000000 		.4byte	.LVL239
 8399 0c09 C4000000 		.4byte	.LFE21
ARM GAS  C:\Users\charl\AppData\Local\Temp\ccxfbC9q.s 			page 216


 8400 0c0d 0400     		.2byte	0x4
 8401 0c0f F3       		.byte	0xf3
 8402 0c10 01       		.uleb128 0x1
 8403 0c11 52       		.byte	0x52
 8404 0c12 9F       		.byte	0x9f
 8405 0c13 00000000 		.4byte	0
 8406 0c17 00000000 		.4byte	0
 8407              	.LLST75:
 8408 0c1b 00000000 		.4byte	.LVL236
 8409 0c1f 10000000 		.4byte	.LVL237
 8410 0c23 0100     		.2byte	0x1
 8411 0c25 53       		.byte	0x53
 8412 0c26 10000000 		.4byte	.LVL237
 8413 0c2a C4000000 		.4byte	.LFE21
 8414 0c2e 0400     		.2byte	0x4
 8415 0c30 F3       		.byte	0xf3
 8416 0c31 01       		.uleb128 0x1
 8417 0c32 53       		.byte	0x53
 8418 0c33 9F       		.byte	0x9f
 8419 0c34 00000000 		.4byte	0
 8420 0c38 00000000 		.4byte	0
 8421              	.LLST76:
 8422 0c3c 18000000 		.4byte	.LVL238
 8423 0c40 1C000000 		.4byte	.LVL239
 8424 0c44 0100     		.2byte	0x1
 8425 0c46 52       		.byte	0x52
 8426 0c47 1C000000 		.4byte	.LVL239
 8427 0c4b 25000000 		.4byte	.LVL240-1
 8428 0c4f 0100     		.2byte	0x1
 8429 0c51 53       		.byte	0x53
 8430 0c52 34000000 		.4byte	.LVL242
 8431 0c56 5A000000 		.4byte	.LVL243
 8432 0c5a 0100     		.2byte	0x1
 8433 0c5c 53       		.byte	0x53
 8434 0c5d 5C000000 		.4byte	.LVL244
 8435 0c61 80000000 		.4byte	.LVL248
 8436 0c65 0100     		.2byte	0x1
 8437 0c67 53       		.byte	0x53
 8438 0c68 82000000 		.4byte	.LVL249
 8439 0c6c 8C000000 		.4byte	.LVL251
 8440 0c70 0100     		.2byte	0x1
 8441 0c72 53       		.byte	0x53
 8442 0c73 9C000000 		.4byte	.LVL254
 8443 0c77 B4000000 		.4byte	.LVL255
 8444 0c7b 0100     		.2byte	0x1
 8445 0c7d 54       		.byte	0x54
 8446 0c7e B6000000 		.4byte	.LVL256
 8447 0c82 BA000000 		.4byte	.LVL257
 8448 0c86 0100     		.2byte	0x1
 8449 0c88 54       		.byte	0x54
 8450 0c89 00000000 		.4byte	0
 8451 0c8d 00000000 		.4byte	0
 8452              	.LLST77:
 8453 0c91 60000000 		.4byte	.LVL245
 8454 0c95 7C000000 		.4byte	.LVL246
 8455 0c99 0100     		.2byte	0x1
 8456 0c9b 56       		.byte	0x56
ARM GAS  C:\Users\charl\AppData\Local\Temp\ccxfbC9q.s 			page 217


 8457 0c9c 7E000000 		.4byte	.LVL247
 8458 0ca0 94000000 		.4byte	.LVL252
 8459 0ca4 0100     		.2byte	0x1
 8460 0ca6 56       		.byte	0x56
 8461 0ca7 96000000 		.4byte	.LVL253
 8462 0cab C0000000 		.4byte	.LVL258
 8463 0caf 0100     		.2byte	0x1
 8464 0cb1 56       		.byte	0x56
 8465 0cb2 00000000 		.4byte	0
 8466 0cb6 00000000 		.4byte	0
 8467              	.LLST78:
 8468 0cba 1C000000 		.4byte	.LVL239
 8469 0cbe 32000000 		.4byte	.LVL241
 8470 0cc2 0500     		.2byte	0x5
 8471 0cc4 77       		.byte	0x77
 8472 0cc5 00       		.sleb128 0
 8473 0cc6 3F       		.byte	0x3f
 8474 0cc7 1A       		.byte	0x1a
 8475 0cc8 9F       		.byte	0x9f
 8476 0cc9 00000000 		.4byte	0
 8477 0ccd 00000000 		.4byte	0
 8478              	.LLST79:
 8479 0cd1 18000000 		.4byte	.LVL238
 8480 0cd5 1C000000 		.4byte	.LVL239
 8481 0cd9 0100     		.2byte	0x1
 8482 0cdb 50       		.byte	0x50
 8483 0cdc 1C000000 		.4byte	.LVL239
 8484 0ce0 C0000000 		.4byte	.LVL258
 8485 0ce4 0100     		.2byte	0x1
 8486 0ce6 57       		.byte	0x57
 8487 0ce7 00000000 		.4byte	0
 8488 0ceb 00000000 		.4byte	0
 8489              	.LLST80:
 8490 0cef 00000000 		.4byte	.LVL259
 8491 0cf3 0D000000 		.4byte	.LVL260-1
 8492 0cf7 0100     		.2byte	0x1
 8493 0cf9 50       		.byte	0x50
 8494 0cfa 0D000000 		.4byte	.LVL260-1
 8495 0cfe 14000000 		.4byte	.LVL261
 8496 0d02 0400     		.2byte	0x4
 8497 0d04 F3       		.byte	0xf3
 8498 0d05 01       		.uleb128 0x1
 8499 0d06 50       		.byte	0x50
 8500 0d07 9F       		.byte	0x9f
 8501 0d08 14000000 		.4byte	.LVL261
 8502 0d0c 1C000000 		.4byte	.LFE24
 8503 0d10 0100     		.2byte	0x1
 8504 0d12 50       		.byte	0x50
 8505 0d13 00000000 		.4byte	0
 8506 0d17 00000000 		.4byte	0
 8507              	.LLST81:
 8508 0d1b 00000000 		.4byte	.LVL259
 8509 0d1f 0D000000 		.4byte	.LVL260-1
 8510 0d23 0100     		.2byte	0x1
 8511 0d25 51       		.byte	0x51
 8512 0d26 0D000000 		.4byte	.LVL260-1
 8513 0d2a 14000000 		.4byte	.LVL261
ARM GAS  C:\Users\charl\AppData\Local\Temp\ccxfbC9q.s 			page 218


 8514 0d2e 0400     		.2byte	0x4
 8515 0d30 F3       		.byte	0xf3
 8516 0d31 01       		.uleb128 0x1
 8517 0d32 51       		.byte	0x51
 8518 0d33 9F       		.byte	0x9f
 8519 0d34 14000000 		.4byte	.LVL261
 8520 0d38 1C000000 		.4byte	.LFE24
 8521 0d3c 0100     		.2byte	0x1
 8522 0d3e 51       		.byte	0x51
 8523 0d3f 00000000 		.4byte	0
 8524 0d43 00000000 		.4byte	0
 8525              	.LLST82:
 8526 0d47 0E000000 		.4byte	.LVL260
 8527 0d4b 14000000 		.4byte	.LVL261
 8528 0d4f 0100     		.2byte	0x1
 8529 0d51 50       		.byte	0x50
 8530 0d52 00000000 		.4byte	0
 8531 0d56 00000000 		.4byte	0
 8532              	.LLST83:
 8533 0d5a 00000000 		.4byte	.LVL262
 8534 0d5e 09000000 		.4byte	.LVL263-1
 8535 0d62 0100     		.2byte	0x1
 8536 0d64 50       		.byte	0x50
 8537 0d65 09000000 		.4byte	.LVL263-1
 8538 0d69 10000000 		.4byte	.LVL264
 8539 0d6d 0400     		.2byte	0x4
 8540 0d6f F3       		.byte	0xf3
 8541 0d70 01       		.uleb128 0x1
 8542 0d71 50       		.byte	0x50
 8543 0d72 9F       		.byte	0x9f
 8544 0d73 10000000 		.4byte	.LVL264
 8545 0d77 18000000 		.4byte	.LFE25
 8546 0d7b 0100     		.2byte	0x1
 8547 0d7d 50       		.byte	0x50
 8548 0d7e 00000000 		.4byte	0
 8549 0d82 00000000 		.4byte	0
 8550              	.LLST84:
 8551 0d86 00000000 		.4byte	.LVL262
 8552 0d8a 09000000 		.4byte	.LVL263-1
 8553 0d8e 0100     		.2byte	0x1
 8554 0d90 51       		.byte	0x51
 8555 0d91 09000000 		.4byte	.LVL263-1
 8556 0d95 10000000 		.4byte	.LVL264
 8557 0d99 0400     		.2byte	0x4
 8558 0d9b F3       		.byte	0xf3
 8559 0d9c 01       		.uleb128 0x1
 8560 0d9d 51       		.byte	0x51
 8561 0d9e 9F       		.byte	0x9f
 8562 0d9f 10000000 		.4byte	.LVL264
 8563 0da3 18000000 		.4byte	.LFE25
 8564 0da7 0100     		.2byte	0x1
 8565 0da9 51       		.byte	0x51
 8566 0daa 00000000 		.4byte	0
 8567 0dae 00000000 		.4byte	0
 8568              	.LLST85:
 8569 0db2 0A000000 		.4byte	.LVL263
 8570 0db6 10000000 		.4byte	.LVL264
ARM GAS  C:\Users\charl\AppData\Local\Temp\ccxfbC9q.s 			page 219


 8571 0dba 0100     		.2byte	0x1
 8572 0dbc 50       		.byte	0x50
 8573 0dbd 00000000 		.4byte	0
 8574 0dc1 00000000 		.4byte	0
 8575              	.LLST86:
 8576 0dc5 00000000 		.4byte	.LVL265
 8577 0dc9 06000000 		.4byte	.LVL267
 8578 0dcd 0100     		.2byte	0x1
 8579 0dcf 50       		.byte	0x50
 8580 0dd0 06000000 		.4byte	.LVL267
 8581 0dd4 2C000000 		.4byte	.LFE37
 8582 0dd8 0400     		.2byte	0x4
 8583 0dda F3       		.byte	0xf3
 8584 0ddb 01       		.uleb128 0x1
 8585 0ddc 50       		.byte	0x50
 8586 0ddd 9F       		.byte	0x9f
 8587 0dde 00000000 		.4byte	0
 8588 0de2 00000000 		.4byte	0
 8589              	.LLST87:
 8590 0de6 06000000 		.4byte	.LVL267
 8591 0dea 08000000 		.4byte	.LVL268
 8592 0dee 0100     		.2byte	0x1
 8593 0df0 50       		.byte	0x50
 8594 0df1 08000000 		.4byte	.LVL268
 8595 0df5 0A000000 		.4byte	.LVL269
 8596 0df9 0300     		.2byte	0x3
 8597 0dfb 70       		.byte	0x70
 8598 0dfc 02       		.sleb128 2
 8599 0dfd 9F       		.byte	0x9f
 8600 0dfe 0E000000 		.4byte	.LVL270
 8601 0e02 14000000 		.4byte	.LVL271
 8602 0e06 0100     		.2byte	0x1
 8603 0e08 50       		.byte	0x50
 8604 0e09 00000000 		.4byte	0
 8605 0e0d 00000000 		.4byte	0
 8606              	.LLST88:
 8607 0e11 1E000000 		.4byte	.LVL273
 8608 0e15 24000000 		.4byte	.LVL275
 8609 0e19 0100     		.2byte	0x1
 8610 0e1b 53       		.byte	0x53
 8611 0e1c 00000000 		.4byte	0
 8612 0e20 00000000 		.4byte	0
 8613              	.LLST89:
 8614 0e24 1A000000 		.4byte	.LVL272
 8615 0e28 22000000 		.4byte	.LVL274
 8616 0e2c 0500     		.2byte	0x5
 8617 0e2e 70       		.byte	0x70
 8618 0e2f 00       		.sleb128 0
 8619 0e30 38       		.byte	0x38
 8620 0e31 24       		.byte	0x24
 8621 0e32 9F       		.byte	0x9f
 8622 0e33 00000000 		.4byte	0
 8623 0e37 00000000 		.4byte	0
 8624              	.LLST90:
 8625 0e3b 22000000 		.4byte	.LVL274
 8626 0e3f 24000000 		.4byte	.LVL275
 8627 0e43 0100     		.2byte	0x1
ARM GAS  C:\Users\charl\AppData\Local\Temp\ccxfbC9q.s 			page 220


 8628 0e45 50       		.byte	0x50
 8629 0e46 26000000 		.4byte	.LVL276
 8630 0e4a 2C000000 		.4byte	.LFE37
 8631 0e4e 0100     		.2byte	0x1
 8632 0e50 50       		.byte	0x50
 8633 0e51 00000000 		.4byte	0
 8634 0e55 00000000 		.4byte	0
 8635              	.LLST91:
 8636 0e59 00000000 		.4byte	.LVL277
 8637 0e5d 28000000 		.4byte	.LVL284
 8638 0e61 0100     		.2byte	0x1
 8639 0e63 50       		.byte	0x50
 8640 0e64 28000000 		.4byte	.LVL284
 8641 0e68 34010000 		.4byte	.LFE20
 8642 0e6c 0400     		.2byte	0x4
 8643 0e6e F3       		.byte	0xf3
 8644 0e6f 01       		.uleb128 0x1
 8645 0e70 50       		.byte	0x50
 8646 0e71 9F       		.byte	0x9f
 8647 0e72 00000000 		.4byte	0
 8648 0e76 00000000 		.4byte	0
 8649              	.LLST92:
 8650 0e7a 00000000 		.4byte	.LVL277
 8651 0e7e 28000000 		.4byte	.LVL284
 8652 0e82 0100     		.2byte	0x1
 8653 0e84 51       		.byte	0x51
 8654 0e85 28000000 		.4byte	.LVL284
 8655 0e89 34010000 		.4byte	.LFE20
 8656 0e8d 0400     		.2byte	0x4
 8657 0e8f F3       		.byte	0xf3
 8658 0e90 01       		.uleb128 0x1
 8659 0e91 51       		.byte	0x51
 8660 0e92 9F       		.byte	0x9f
 8661 0e93 00000000 		.4byte	0
 8662 0e97 00000000 		.4byte	0
 8663              	.LLST93:
 8664 0e9b 00000000 		.4byte	.LVL277
 8665 0e9f 1C000000 		.4byte	.LVL280
 8666 0ea3 0100     		.2byte	0x1
 8667 0ea5 52       		.byte	0x52
 8668 0ea6 1C000000 		.4byte	.LVL280
 8669 0eaa 20000000 		.4byte	.LVL281
 8670 0eae 0400     		.2byte	0x4
 8671 0eb0 F3       		.byte	0xf3
 8672 0eb1 01       		.uleb128 0x1
 8673 0eb2 52       		.byte	0x52
 8674 0eb3 9F       		.byte	0x9f
 8675 0eb4 20000000 		.4byte	.LVL281
 8676 0eb8 22000000 		.4byte	.LVL282
 8677 0ebc 0100     		.2byte	0x1
 8678 0ebe 52       		.byte	0x52
 8679 0ebf 22000000 		.4byte	.LVL282
 8680 0ec3 34010000 		.4byte	.LFE20
 8681 0ec7 0400     		.2byte	0x4
 8682 0ec9 F3       		.byte	0xf3
 8683 0eca 01       		.uleb128 0x1
 8684 0ecb 52       		.byte	0x52
ARM GAS  C:\Users\charl\AppData\Local\Temp\ccxfbC9q.s 			page 221


 8685 0ecc 9F       		.byte	0x9f
 8686 0ecd 00000000 		.4byte	0
 8687 0ed1 00000000 		.4byte	0
 8688              	.LLST94:
 8689 0ed5 00000000 		.4byte	.LVL277
 8690 0ed9 0E000000 		.4byte	.LVL279
 8691 0edd 0100     		.2byte	0x1
 8692 0edf 53       		.byte	0x53
 8693 0ee0 0E000000 		.4byte	.LVL279
 8694 0ee4 34010000 		.4byte	.LFE20
 8695 0ee8 0400     		.2byte	0x4
 8696 0eea F3       		.byte	0xf3
 8697 0eeb 01       		.uleb128 0x1
 8698 0eec 53       		.byte	0x53
 8699 0eed 9F       		.byte	0x9f
 8700 0eee 00000000 		.4byte	0
 8701 0ef2 00000000 		.4byte	0
 8702              	.LLST95:
 8703 0ef6 24000000 		.4byte	.LVL283
 8704 0efa 28000000 		.4byte	.LVL284
 8705 0efe 0100     		.2byte	0x1
 8706 0f00 54       		.byte	0x54
 8707 0f01 28000000 		.4byte	.LVL284
 8708 0f05 43000000 		.4byte	.LVL286-1
 8709 0f09 0100     		.2byte	0x1
 8710 0f0b 53       		.byte	0x53
 8711 0f0c 54000000 		.4byte	.LVL288
 8712 0f10 63000000 		.4byte	.LVL289-1
 8713 0f14 0100     		.2byte	0x1
 8714 0f16 53       		.byte	0x53
 8715 0f17 6A000000 		.4byte	.LVL290
 8716 0f1b 87000000 		.4byte	.LVL291-1
 8717 0f1f 0100     		.2byte	0x1
 8718 0f21 53       		.byte	0x53
 8719 0f22 94000000 		.4byte	.LVL292
 8720 0f26 9B000000 		.4byte	.LVL294-1
 8721 0f2a 0100     		.2byte	0x1
 8722 0f2c 53       		.byte	0x53
 8723 0f2d A8000000 		.4byte	.LVL295
 8724 0f31 C0000000 		.4byte	.LVL298
 8725 0f35 0100     		.2byte	0x1
 8726 0f37 53       		.byte	0x53
 8727 0f38 C2000000 		.4byte	.LVL299
 8728 0f3c CC000000 		.4byte	.LVL303
 8729 0f40 0100     		.2byte	0x1
 8730 0f42 53       		.byte	0x53
 8731 0f43 D2000000 		.4byte	.LVL304
 8732 0f47 EA000000 		.4byte	.LVL307
 8733 0f4b 0100     		.2byte	0x1
 8734 0f4d 53       		.byte	0x53
 8735 0f4e EC000000 		.4byte	.LVL308
 8736 0f52 EE000000 		.4byte	.LVL309
 8737 0f56 0100     		.2byte	0x1
 8738 0f58 53       		.byte	0x53
 8739 0f59 F0000000 		.4byte	.LVL310
 8740 0f5d F6000000 		.4byte	.LVL311
 8741 0f61 0100     		.2byte	0x1
ARM GAS  C:\Users\charl\AppData\Local\Temp\ccxfbC9q.s 			page 222


 8742 0f63 53       		.byte	0x53
 8743 0f64 06010000 		.4byte	.LVL314
 8744 0f68 1E010000 		.4byte	.LVL315
 8745 0f6c 0100     		.2byte	0x1
 8746 0f6e 54       		.byte	0x54
 8747 0f6f 20010000 		.4byte	.LVL316
 8748 0f73 24010000 		.4byte	.LVL317
 8749 0f77 0100     		.2byte	0x1
 8750 0f79 54       		.byte	0x54
 8751 0f7a 00000000 		.4byte	0
 8752 0f7e 00000000 		.4byte	0
 8753              	.LLST96:
 8754 0f82 CC000000 		.4byte	.LVL303
 8755 0f86 E6000000 		.4byte	.LVL305
 8756 0f8a 0100     		.2byte	0x1
 8757 0f8c 55       		.byte	0x55
 8758 0f8d E8000000 		.4byte	.LVL306
 8759 0f91 FE000000 		.4byte	.LVL312
 8760 0f95 0100     		.2byte	0x1
 8761 0f97 55       		.byte	0x55
 8762 0f98 00010000 		.4byte	.LVL313
 8763 0f9c 2A010000 		.4byte	.LVL318
 8764 0fa0 0100     		.2byte	0x1
 8765 0fa2 55       		.byte	0x55
 8766 0fa3 00000000 		.4byte	0
 8767 0fa7 00000000 		.4byte	0
 8768              	.LLST97:
 8769 0fab 1C000000 		.4byte	.LVL280
 8770 0faf 20000000 		.4byte	.LVL281
 8771 0fb3 0200     		.2byte	0x2
 8772 0fb5 30       		.byte	0x30
 8773 0fb6 9F       		.byte	0x9f
 8774 0fb7 22000000 		.4byte	.LVL282
 8775 0fbb 24000000 		.4byte	.LVL283
 8776 0fbf 0200     		.2byte	0x2
 8777 0fc1 31       		.byte	0x31
 8778 0fc2 9F       		.byte	0x9f
 8779 0fc3 24000000 		.4byte	.LVL283
 8780 0fc7 96000000 		.4byte	.LVL293
 8781 0fcb 0100     		.2byte	0x1
 8782 0fcd 57       		.byte	0x57
 8783 0fce A8000000 		.4byte	.LVL295
 8784 0fd2 CC000000 		.4byte	.LVL303
 8785 0fd6 0100     		.2byte	0x1
 8786 0fd8 57       		.byte	0x57
 8787 0fd9 00000000 		.4byte	0
 8788 0fdd 00000000 		.4byte	0
 8789              	.LLST98:
 8790 0fe1 3A000000 		.4byte	.LVL285
 8791 0fe5 43000000 		.4byte	.LVL286-1
 8792 0fe9 0100     		.2byte	0x1
 8793 0feb 50       		.byte	0x50
 8794 0fec 00000000 		.4byte	0
 8795 0ff0 00000000 		.4byte	0
 8796              	.LLST99:
 8797 0ff4 0C000000 		.4byte	.LVL278
 8798 0ff8 6A000000 		.4byte	.LVL290
ARM GAS  C:\Users\charl\AppData\Local\Temp\ccxfbC9q.s 			page 223


 8799 0ffc 0200     		.2byte	0x2
 8800 0ffe 30       		.byte	0x30
 8801 0fff 9F       		.byte	0x9f
 8802 1000 6A000000 		.4byte	.LVL290
 8803 1004 87000000 		.4byte	.LVL291-1
 8804 1008 0100     		.2byte	0x1
 8805 100a 52       		.byte	0x52
 8806 100b 94000000 		.4byte	.LVL292
 8807 100f 9B000000 		.4byte	.LVL294-1
 8808 1013 0100     		.2byte	0x1
 8809 1015 52       		.byte	0x52
 8810 1016 A8000000 		.4byte	.LVL295
 8811 101a BC000000 		.4byte	.LVL296
 8812 101e 0100     		.2byte	0x1
 8813 1020 52       		.byte	0x52
 8814 1021 BE000000 		.4byte	.LVL297
 8815 1025 C4000000 		.4byte	.LVL300
 8816 1029 0100     		.2byte	0x1
 8817 102b 52       		.byte	0x52
 8818 102c C4000000 		.4byte	.LVL300
 8819 1030 C8000000 		.4byte	.LVL302
 8820 1034 0200     		.2byte	0x2
 8821 1036 30       		.byte	0x30
 8822 1037 9F       		.byte	0x9f
 8823 1038 C8000000 		.4byte	.LVL302
 8824 103c CC000000 		.4byte	.LVL303
 8825 1040 0100     		.2byte	0x1
 8826 1042 52       		.byte	0x52
 8827 1043 00000000 		.4byte	0
 8828 1047 00000000 		.4byte	0
 8829              	.LLST100:
 8830 104b 1C000000 		.4byte	.LVL280
 8831 104f 20000000 		.4byte	.LVL281
 8832 1053 0100     		.2byte	0x1
 8833 1055 50       		.byte	0x50
 8834 1056 22000000 		.4byte	.LVL282
 8835 105a 43000000 		.4byte	.LVL286-1
 8836 105e 0100     		.2byte	0x1
 8837 1060 52       		.byte	0x52
 8838 1061 50000000 		.4byte	.LVL287
 8839 1065 63000000 		.4byte	.LVL289-1
 8840 1069 0100     		.2byte	0x1
 8841 106b 52       		.byte	0x52
 8842 106c C4000000 		.4byte	.LVL300
 8843 1070 C6000000 		.4byte	.LVL301
 8844 1074 0100     		.2byte	0x1
 8845 1076 52       		.byte	0x52
 8846 1077 00000000 		.4byte	0
 8847 107b 00000000 		.4byte	0
 8848              	.LLST101:
 8849 107f 00000000 		.4byte	.LVL319
 8850 1083 09000000 		.4byte	.LVL321-1
 8851 1087 0100     		.2byte	0x1
 8852 1089 50       		.byte	0x50
 8853 108a 09000000 		.4byte	.LVL321-1
 8854 108e 30000000 		.4byte	.LVL329
 8855 1092 0100     		.2byte	0x1
ARM GAS  C:\Users\charl\AppData\Local\Temp\ccxfbC9q.s 			page 224


 8856 1094 57       		.byte	0x57
 8857 1095 30000000 		.4byte	.LVL329
 8858 1099 34000000 		.4byte	.LFE22
 8859 109d 0400     		.2byte	0x4
 8860 109f F3       		.byte	0xf3
 8861 10a0 01       		.uleb128 0x1
 8862 10a1 50       		.byte	0x50
 8863 10a2 9F       		.byte	0x9f
 8864 10a3 00000000 		.4byte	0
 8865 10a7 00000000 		.4byte	0
 8866              	.LLST102:
 8867 10ab 00000000 		.4byte	.LVL319
 8868 10af 09000000 		.4byte	.LVL321-1
 8869 10b3 0100     		.2byte	0x1
 8870 10b5 51       		.byte	0x51
 8871 10b6 09000000 		.4byte	.LVL321-1
 8872 10ba 34000000 		.4byte	.LFE22
 8873 10be 0400     		.2byte	0x4
 8874 10c0 F3       		.byte	0xf3
 8875 10c1 01       		.uleb128 0x1
 8876 10c2 51       		.byte	0x51
 8877 10c3 9F       		.byte	0x9f
 8878 10c4 00000000 		.4byte	0
 8879 10c8 00000000 		.4byte	0
 8880              	.LLST103:
 8881 10cc 10000000 		.4byte	.LVL322
 8882 10d0 28000000 		.4byte	.LVL327
 8883 10d4 0100     		.2byte	0x1
 8884 10d6 54       		.byte	0x54
 8885 10d7 2A000000 		.4byte	.LVL328
 8886 10db 30000000 		.4byte	.LVL329
 8887 10df 0100     		.2byte	0x1
 8888 10e1 54       		.byte	0x54
 8889 10e2 00000000 		.4byte	0
 8890 10e6 00000000 		.4byte	0
 8891              	.LLST104:
 8892 10ea 10000000 		.4byte	.LVL322
 8893 10ee 30000000 		.4byte	.LVL329
 8894 10f2 0100     		.2byte	0x1
 8895 10f4 56       		.byte	0x56
 8896 10f5 00000000 		.4byte	0
 8897 10f9 00000000 		.4byte	0
 8898              	.LLST105:
 8899 10fd 06000000 		.4byte	.LVL320
 8900 1101 14000000 		.4byte	.LVL323
 8901 1105 0200     		.2byte	0x2
 8902 1107 30       		.byte	0x30
 8903 1108 9F       		.byte	0x9f
 8904 1109 14000000 		.4byte	.LVL323
 8905 110d 24000000 		.4byte	.LVL325
 8906 1111 0100     		.2byte	0x1
 8907 1113 55       		.byte	0x55
 8908 1114 26000000 		.4byte	.LVL326
 8909 1118 30000000 		.4byte	.LVL329
 8910 111c 0100     		.2byte	0x1
 8911 111e 55       		.byte	0x55
 8912 111f 00000000 		.4byte	0
ARM GAS  C:\Users\charl\AppData\Local\Temp\ccxfbC9q.s 			page 225


 8913 1123 00000000 		.4byte	0
 8914              	.LLST106:
 8915 1127 1E000000 		.4byte	.LVL324
 8916 112b 26000000 		.4byte	.LVL326
 8917 112f 0100     		.2byte	0x1
 8918 1131 50       		.byte	0x50
 8919 1132 00000000 		.4byte	0
 8920 1136 00000000 		.4byte	0
 8921              	.LLST107:
 8922 113a 00000000 		.4byte	.LVL330
 8923 113e 09000000 		.4byte	.LVL331-1
 8924 1142 0100     		.2byte	0x1
 8925 1144 50       		.byte	0x50
 8926 1145 09000000 		.4byte	.LVL331-1
 8927 1149 10000000 		.4byte	.LVL332
 8928 114d 0400     		.2byte	0x4
 8929 114f F3       		.byte	0xf3
 8930 1150 01       		.uleb128 0x1
 8931 1151 50       		.byte	0x50
 8932 1152 9F       		.byte	0x9f
 8933 1153 10000000 		.4byte	.LVL332
 8934 1157 18000000 		.4byte	.LFE23
 8935 115b 0100     		.2byte	0x1
 8936 115d 50       		.byte	0x50
 8937 115e 00000000 		.4byte	0
 8938 1162 00000000 		.4byte	0
 8939              	.LLST108:
 8940 1166 00000000 		.4byte	.LVL330
 8941 116a 09000000 		.4byte	.LVL331-1
 8942 116e 0100     		.2byte	0x1
 8943 1170 51       		.byte	0x51
 8944 1171 09000000 		.4byte	.LVL331-1
 8945 1175 10000000 		.4byte	.LVL332
 8946 1179 0400     		.2byte	0x4
 8947 117b F3       		.byte	0xf3
 8948 117c 01       		.uleb128 0x1
 8949 117d 51       		.byte	0x51
 8950 117e 9F       		.byte	0x9f
 8951 117f 10000000 		.4byte	.LVL332
 8952 1183 18000000 		.4byte	.LFE23
 8953 1187 0100     		.2byte	0x1
 8954 1189 51       		.byte	0x51
 8955 118a 00000000 		.4byte	0
 8956 118e 00000000 		.4byte	0
 8957              	.LLST109:
 8958 1192 0A000000 		.4byte	.LVL331
 8959 1196 10000000 		.4byte	.LVL332
 8960 119a 0100     		.2byte	0x1
 8961 119c 50       		.byte	0x50
 8962 119d 00000000 		.4byte	0
 8963 11a1 00000000 		.4byte	0
 8964              	.LLST110:
 8965 11a5 00000000 		.4byte	.LVL333
 8966 11a9 04000000 		.4byte	.LVL334
 8967 11ad 0100     		.2byte	0x1
 8968 11af 50       		.byte	0x50
 8969 11b0 04000000 		.4byte	.LVL334
ARM GAS  C:\Users\charl\AppData\Local\Temp\ccxfbC9q.s 			page 226


 8970 11b4 1C000000 		.4byte	.LFE38
 8971 11b8 0400     		.2byte	0x4
 8972 11ba F3       		.byte	0xf3
 8973 11bb 01       		.uleb128 0x1
 8974 11bc 50       		.byte	0x50
 8975 11bd 9F       		.byte	0x9f
 8976 11be 00000000 		.4byte	0
 8977 11c2 00000000 		.4byte	0
 8978              	.LLST111:
 8979 11c6 04000000 		.4byte	.LVL334
 8980 11ca 0C000000 		.4byte	.LVL335
 8981 11ce 0100     		.2byte	0x1
 8982 11d0 50       		.byte	0x50
 8983 11d1 00000000 		.4byte	0
 8984 11d5 00000000 		.4byte	0
 8985              	.LLST112:
 8986 11d9 0C000000 		.4byte	.LVL335
 8987 11dd 14000000 		.4byte	.LVL337
 8988 11e1 0500     		.2byte	0x5
 8989 11e3 70       		.byte	0x70
 8990 11e4 00       		.sleb128 0
 8991 11e5 38       		.byte	0x38
 8992 11e6 24       		.byte	0x24
 8993 11e7 9F       		.byte	0x9f
 8994 11e8 00000000 		.4byte	0
 8995 11ec 00000000 		.4byte	0
 8996              	.LLST113:
 8997 11f0 10000000 		.4byte	.LVL336
 8998 11f4 14000000 		.4byte	.LVL337
 8999 11f8 0800     		.2byte	0x8
 9000 11fa 70       		.byte	0x70
 9001 11fb 00       		.sleb128 0
 9002 11fc 38       		.byte	0x38
 9003 11fd 24       		.byte	0x24
 9004 11fe 73       		.byte	0x73
 9005 11ff 00       		.sleb128 0
 9006 1200 21       		.byte	0x21
 9007 1201 9F       		.byte	0x9f
 9008 1202 00000000 		.4byte	0
 9009 1206 00000000 		.4byte	0
 9010              	.LLST114:
 9011 120a 00000000 		.4byte	.LVL338
 9012 120e 1C000000 		.4byte	.LVL341
 9013 1212 0100     		.2byte	0x1
 9014 1214 50       		.byte	0x50
 9015 1215 1C000000 		.4byte	.LVL341
 9016 1219 C4000000 		.4byte	.LFE27
 9017 121d 0400     		.2byte	0x4
 9018 121f F3       		.byte	0xf3
 9019 1220 01       		.uleb128 0x1
 9020 1221 50       		.byte	0x50
 9021 1222 9F       		.byte	0x9f
 9022 1223 00000000 		.4byte	0
 9023 1227 00000000 		.4byte	0
 9024              	.LLST115:
 9025 122b 00000000 		.4byte	.LVL338
 9026 122f 1C000000 		.4byte	.LVL341
ARM GAS  C:\Users\charl\AppData\Local\Temp\ccxfbC9q.s 			page 227


 9027 1233 0100     		.2byte	0x1
 9028 1235 51       		.byte	0x51
 9029 1236 1C000000 		.4byte	.LVL341
 9030 123a C4000000 		.4byte	.LFE27
 9031 123e 0400     		.2byte	0x4
 9032 1240 F3       		.byte	0xf3
 9033 1241 01       		.uleb128 0x1
 9034 1242 51       		.byte	0x51
 9035 1243 9F       		.byte	0x9f
 9036 1244 00000000 		.4byte	0
 9037 1248 00000000 		.4byte	0
 9038              	.LLST116:
 9039 124c 00000000 		.4byte	.LVL338
 9040 1250 1C000000 		.4byte	.LVL341
 9041 1254 0100     		.2byte	0x1
 9042 1256 52       		.byte	0x52
 9043 1257 1C000000 		.4byte	.LVL341
 9044 125b C4000000 		.4byte	.LFE27
 9045 125f 0400     		.2byte	0x4
 9046 1261 F3       		.byte	0xf3
 9047 1262 01       		.uleb128 0x1
 9048 1263 52       		.byte	0x52
 9049 1264 9F       		.byte	0x9f
 9050 1265 00000000 		.4byte	0
 9051 1269 00000000 		.4byte	0
 9052              	.LLST117:
 9053 126d 00000000 		.4byte	.LVL338
 9054 1271 10000000 		.4byte	.LVL339
 9055 1275 0100     		.2byte	0x1
 9056 1277 53       		.byte	0x53
 9057 1278 10000000 		.4byte	.LVL339
 9058 127c C4000000 		.4byte	.LFE27
 9059 1280 0400     		.2byte	0x4
 9060 1282 F3       		.byte	0xf3
 9061 1283 01       		.uleb128 0x1
 9062 1284 53       		.byte	0x53
 9063 1285 9F       		.byte	0x9f
 9064 1286 00000000 		.4byte	0
 9065 128a 00000000 		.4byte	0
 9066              	.LLST118:
 9067 128e 18000000 		.4byte	.LVL340
 9068 1292 1C000000 		.4byte	.LVL341
 9069 1296 0100     		.2byte	0x1
 9070 1298 52       		.byte	0x52
 9071 1299 1C000000 		.4byte	.LVL341
 9072 129d 25000000 		.4byte	.LVL342-1
 9073 12a1 0100     		.2byte	0x1
 9074 12a3 53       		.byte	0x53
 9075 12a4 34000000 		.4byte	.LVL344
 9076 12a8 5A000000 		.4byte	.LVL345
 9077 12ac 0100     		.2byte	0x1
 9078 12ae 53       		.byte	0x53
 9079 12af 5C000000 		.4byte	.LVL346
 9080 12b3 80000000 		.4byte	.LVL350
 9081 12b7 0100     		.2byte	0x1
 9082 12b9 53       		.byte	0x53
 9083 12ba 82000000 		.4byte	.LVL351
ARM GAS  C:\Users\charl\AppData\Local\Temp\ccxfbC9q.s 			page 228


 9084 12be 8C000000 		.4byte	.LVL353
 9085 12c2 0100     		.2byte	0x1
 9086 12c4 53       		.byte	0x53
 9087 12c5 9C000000 		.4byte	.LVL356
 9088 12c9 B4000000 		.4byte	.LVL357
 9089 12cd 0100     		.2byte	0x1
 9090 12cf 54       		.byte	0x54
 9091 12d0 B6000000 		.4byte	.LVL358
 9092 12d4 BA000000 		.4byte	.LVL359
 9093 12d8 0100     		.2byte	0x1
 9094 12da 54       		.byte	0x54
 9095 12db 00000000 		.4byte	0
 9096 12df 00000000 		.4byte	0
 9097              	.LLST119:
 9098 12e3 60000000 		.4byte	.LVL347
 9099 12e7 7C000000 		.4byte	.LVL348
 9100 12eb 0100     		.2byte	0x1
 9101 12ed 56       		.byte	0x56
 9102 12ee 7E000000 		.4byte	.LVL349
 9103 12f2 94000000 		.4byte	.LVL354
 9104 12f6 0100     		.2byte	0x1
 9105 12f8 56       		.byte	0x56
 9106 12f9 96000000 		.4byte	.LVL355
 9107 12fd C0000000 		.4byte	.LVL360
 9108 1301 0100     		.2byte	0x1
 9109 1303 56       		.byte	0x56
 9110 1304 00000000 		.4byte	0
 9111 1308 00000000 		.4byte	0
 9112              	.LLST120:
 9113 130c 1C000000 		.4byte	.LVL341
 9114 1310 32000000 		.4byte	.LVL343
 9115 1314 0500     		.2byte	0x5
 9116 1316 77       		.byte	0x77
 9117 1317 00       		.sleb128 0
 9118 1318 3F       		.byte	0x3f
 9119 1319 1A       		.byte	0x1a
 9120 131a 9F       		.byte	0x9f
 9121 131b 00000000 		.4byte	0
 9122 131f 00000000 		.4byte	0
 9123              	.LLST121:
 9124 1323 18000000 		.4byte	.LVL340
 9125 1327 1C000000 		.4byte	.LVL341
 9126 132b 0100     		.2byte	0x1
 9127 132d 50       		.byte	0x50
 9128 132e 1C000000 		.4byte	.LVL341
 9129 1332 C0000000 		.4byte	.LVL360
 9130 1336 0100     		.2byte	0x1
 9131 1338 57       		.byte	0x57
 9132 1339 00000000 		.4byte	0
 9133 133d 00000000 		.4byte	0
 9134              	.LLST122:
 9135 1341 00000000 		.4byte	.LVL361
 9136 1345 0D000000 		.4byte	.LVL362-1
 9137 1349 0100     		.2byte	0x1
 9138 134b 50       		.byte	0x50
 9139 134c 0D000000 		.4byte	.LVL362-1
 9140 1350 14000000 		.4byte	.LVL363
ARM GAS  C:\Users\charl\AppData\Local\Temp\ccxfbC9q.s 			page 229


 9141 1354 0400     		.2byte	0x4
 9142 1356 F3       		.byte	0xf3
 9143 1357 01       		.uleb128 0x1
 9144 1358 50       		.byte	0x50
 9145 1359 9F       		.byte	0x9f
 9146 135a 14000000 		.4byte	.LVL363
 9147 135e 1C000000 		.4byte	.LFE30
 9148 1362 0100     		.2byte	0x1
 9149 1364 50       		.byte	0x50
 9150 1365 00000000 		.4byte	0
 9151 1369 00000000 		.4byte	0
 9152              	.LLST123:
 9153 136d 00000000 		.4byte	.LVL361
 9154 1371 0D000000 		.4byte	.LVL362-1
 9155 1375 0100     		.2byte	0x1
 9156 1377 51       		.byte	0x51
 9157 1378 0D000000 		.4byte	.LVL362-1
 9158 137c 14000000 		.4byte	.LVL363
 9159 1380 0400     		.2byte	0x4
 9160 1382 F3       		.byte	0xf3
 9161 1383 01       		.uleb128 0x1
 9162 1384 51       		.byte	0x51
 9163 1385 9F       		.byte	0x9f
 9164 1386 14000000 		.4byte	.LVL363
 9165 138a 1C000000 		.4byte	.LFE30
 9166 138e 0100     		.2byte	0x1
 9167 1390 51       		.byte	0x51
 9168 1391 00000000 		.4byte	0
 9169 1395 00000000 		.4byte	0
 9170              	.LLST124:
 9171 1399 0E000000 		.4byte	.LVL362
 9172 139d 14000000 		.4byte	.LVL363
 9173 13a1 0100     		.2byte	0x1
 9174 13a3 50       		.byte	0x50
 9175 13a4 00000000 		.4byte	0
 9176 13a8 00000000 		.4byte	0
 9177              	.LLST125:
 9178 13ac 00000000 		.4byte	.LVL364
 9179 13b0 09000000 		.4byte	.LVL365-1
 9180 13b4 0100     		.2byte	0x1
 9181 13b6 50       		.byte	0x50
 9182 13b7 09000000 		.4byte	.LVL365-1
 9183 13bb 10000000 		.4byte	.LVL366
 9184 13bf 0400     		.2byte	0x4
 9185 13c1 F3       		.byte	0xf3
 9186 13c2 01       		.uleb128 0x1
 9187 13c3 50       		.byte	0x50
 9188 13c4 9F       		.byte	0x9f
 9189 13c5 10000000 		.4byte	.LVL366
 9190 13c9 18000000 		.4byte	.LFE31
 9191 13cd 0100     		.2byte	0x1
 9192 13cf 50       		.byte	0x50
 9193 13d0 00000000 		.4byte	0
 9194 13d4 00000000 		.4byte	0
 9195              	.LLST126:
 9196 13d8 00000000 		.4byte	.LVL364
 9197 13dc 09000000 		.4byte	.LVL365-1
ARM GAS  C:\Users\charl\AppData\Local\Temp\ccxfbC9q.s 			page 230


 9198 13e0 0100     		.2byte	0x1
 9199 13e2 51       		.byte	0x51
 9200 13e3 09000000 		.4byte	.LVL365-1
 9201 13e7 10000000 		.4byte	.LVL366
 9202 13eb 0400     		.2byte	0x4
 9203 13ed F3       		.byte	0xf3
 9204 13ee 01       		.uleb128 0x1
 9205 13ef 51       		.byte	0x51
 9206 13f0 9F       		.byte	0x9f
 9207 13f1 10000000 		.4byte	.LVL366
 9208 13f5 18000000 		.4byte	.LFE31
 9209 13f9 0100     		.2byte	0x1
 9210 13fb 51       		.byte	0x51
 9211 13fc 00000000 		.4byte	0
 9212 1400 00000000 		.4byte	0
 9213              	.LLST127:
 9214 1404 0A000000 		.4byte	.LVL365
 9215 1408 10000000 		.4byte	.LVL366
 9216 140c 0100     		.2byte	0x1
 9217 140e 50       		.byte	0x50
 9218 140f 00000000 		.4byte	0
 9219 1413 00000000 		.4byte	0
 9220              	.LLST128:
 9221 1417 00000000 		.4byte	.LVL367
 9222 141b 06000000 		.4byte	.LVL369
 9223 141f 0100     		.2byte	0x1
 9224 1421 50       		.byte	0x50
 9225 1422 06000000 		.4byte	.LVL369
 9226 1426 2C000000 		.4byte	.LFE39
 9227 142a 0400     		.2byte	0x4
 9228 142c F3       		.byte	0xf3
 9229 142d 01       		.uleb128 0x1
 9230 142e 50       		.byte	0x50
 9231 142f 9F       		.byte	0x9f
 9232 1430 00000000 		.4byte	0
 9233 1434 00000000 		.4byte	0
 9234              	.LLST129:
 9235 1438 06000000 		.4byte	.LVL369
 9236 143c 08000000 		.4byte	.LVL370
 9237 1440 0100     		.2byte	0x1
 9238 1442 50       		.byte	0x50
 9239 1443 08000000 		.4byte	.LVL370
 9240 1447 0A000000 		.4byte	.LVL371
 9241 144b 0300     		.2byte	0x3
 9242 144d 70       		.byte	0x70
 9243 144e 02       		.sleb128 2
 9244 144f 9F       		.byte	0x9f
 9245 1450 0E000000 		.4byte	.LVL372
 9246 1454 14000000 		.4byte	.LVL373
 9247 1458 0100     		.2byte	0x1
 9248 145a 50       		.byte	0x50
 9249 145b 00000000 		.4byte	0
 9250 145f 00000000 		.4byte	0
 9251              	.LLST130:
 9252 1463 1E000000 		.4byte	.LVL375
 9253 1467 24000000 		.4byte	.LVL377
 9254 146b 0100     		.2byte	0x1
ARM GAS  C:\Users\charl\AppData\Local\Temp\ccxfbC9q.s 			page 231


 9255 146d 53       		.byte	0x53
 9256 146e 00000000 		.4byte	0
 9257 1472 00000000 		.4byte	0
 9258              	.LLST131:
 9259 1476 1A000000 		.4byte	.LVL374
 9260 147a 22000000 		.4byte	.LVL376
 9261 147e 0500     		.2byte	0x5
 9262 1480 70       		.byte	0x70
 9263 1481 00       		.sleb128 0
 9264 1482 38       		.byte	0x38
 9265 1483 24       		.byte	0x24
 9266 1484 9F       		.byte	0x9f
 9267 1485 00000000 		.4byte	0
 9268 1489 00000000 		.4byte	0
 9269              	.LLST132:
 9270 148d 22000000 		.4byte	.LVL376
 9271 1491 24000000 		.4byte	.LVL377
 9272 1495 0100     		.2byte	0x1
 9273 1497 50       		.byte	0x50
 9274 1498 26000000 		.4byte	.LVL378
 9275 149c 2C000000 		.4byte	.LFE39
 9276 14a0 0100     		.2byte	0x1
 9277 14a2 50       		.byte	0x50
 9278 14a3 00000000 		.4byte	0
 9279 14a7 00000000 		.4byte	0
 9280              	.LLST133:
 9281 14ab 00000000 		.4byte	.LVL379
 9282 14af 28000000 		.4byte	.LVL386
 9283 14b3 0100     		.2byte	0x1
 9284 14b5 50       		.byte	0x50
 9285 14b6 28000000 		.4byte	.LVL386
 9286 14ba 34010000 		.4byte	.LFE26
 9287 14be 0400     		.2byte	0x4
 9288 14c0 F3       		.byte	0xf3
 9289 14c1 01       		.uleb128 0x1
 9290 14c2 50       		.byte	0x50
 9291 14c3 9F       		.byte	0x9f
 9292 14c4 00000000 		.4byte	0
 9293 14c8 00000000 		.4byte	0
 9294              	.LLST134:
 9295 14cc 00000000 		.4byte	.LVL379
 9296 14d0 28000000 		.4byte	.LVL386
 9297 14d4 0100     		.2byte	0x1
 9298 14d6 51       		.byte	0x51
 9299 14d7 28000000 		.4byte	.LVL386
 9300 14db 34010000 		.4byte	.LFE26
 9301 14df 0400     		.2byte	0x4
 9302 14e1 F3       		.byte	0xf3
 9303 14e2 01       		.uleb128 0x1
 9304 14e3 51       		.byte	0x51
 9305 14e4 9F       		.byte	0x9f
 9306 14e5 00000000 		.4byte	0
 9307 14e9 00000000 		.4byte	0
 9308              	.LLST135:
 9309 14ed 00000000 		.4byte	.LVL379
 9310 14f1 1C000000 		.4byte	.LVL382
 9311 14f5 0100     		.2byte	0x1
ARM GAS  C:\Users\charl\AppData\Local\Temp\ccxfbC9q.s 			page 232


 9312 14f7 52       		.byte	0x52
 9313 14f8 1C000000 		.4byte	.LVL382
 9314 14fc 20000000 		.4byte	.LVL383
 9315 1500 0400     		.2byte	0x4
 9316 1502 F3       		.byte	0xf3
 9317 1503 01       		.uleb128 0x1
 9318 1504 52       		.byte	0x52
 9319 1505 9F       		.byte	0x9f
 9320 1506 20000000 		.4byte	.LVL383
 9321 150a 22000000 		.4byte	.LVL384
 9322 150e 0100     		.2byte	0x1
 9323 1510 52       		.byte	0x52
 9324 1511 22000000 		.4byte	.LVL384
 9325 1515 34010000 		.4byte	.LFE26
 9326 1519 0400     		.2byte	0x4
 9327 151b F3       		.byte	0xf3
 9328 151c 01       		.uleb128 0x1
 9329 151d 52       		.byte	0x52
 9330 151e 9F       		.byte	0x9f
 9331 151f 00000000 		.4byte	0
 9332 1523 00000000 		.4byte	0
 9333              	.LLST136:
 9334 1527 00000000 		.4byte	.LVL379
 9335 152b 0E000000 		.4byte	.LVL381
 9336 152f 0100     		.2byte	0x1
 9337 1531 53       		.byte	0x53
 9338 1532 0E000000 		.4byte	.LVL381
 9339 1536 34010000 		.4byte	.LFE26
 9340 153a 0400     		.2byte	0x4
 9341 153c F3       		.byte	0xf3
 9342 153d 01       		.uleb128 0x1
 9343 153e 53       		.byte	0x53
 9344 153f 9F       		.byte	0x9f
 9345 1540 00000000 		.4byte	0
 9346 1544 00000000 		.4byte	0
 9347              	.LLST137:
 9348 1548 24000000 		.4byte	.LVL385
 9349 154c 28000000 		.4byte	.LVL386
 9350 1550 0100     		.2byte	0x1
 9351 1552 54       		.byte	0x54
 9352 1553 28000000 		.4byte	.LVL386
 9353 1557 43000000 		.4byte	.LVL388-1
 9354 155b 0100     		.2byte	0x1
 9355 155d 53       		.byte	0x53
 9356 155e 54000000 		.4byte	.LVL390
 9357 1562 63000000 		.4byte	.LVL391-1
 9358 1566 0100     		.2byte	0x1
 9359 1568 53       		.byte	0x53
 9360 1569 6A000000 		.4byte	.LVL392
 9361 156d 87000000 		.4byte	.LVL393-1
 9362 1571 0100     		.2byte	0x1
 9363 1573 53       		.byte	0x53
 9364 1574 94000000 		.4byte	.LVL394
 9365 1578 9B000000 		.4byte	.LVL396-1
 9366 157c 0100     		.2byte	0x1
 9367 157e 53       		.byte	0x53
 9368 157f A8000000 		.4byte	.LVL397
ARM GAS  C:\Users\charl\AppData\Local\Temp\ccxfbC9q.s 			page 233


 9369 1583 C0000000 		.4byte	.LVL400
 9370 1587 0100     		.2byte	0x1
 9371 1589 53       		.byte	0x53
 9372 158a C2000000 		.4byte	.LVL401
 9373 158e CC000000 		.4byte	.LVL405
 9374 1592 0100     		.2byte	0x1
 9375 1594 53       		.byte	0x53
 9376 1595 D2000000 		.4byte	.LVL406
 9377 1599 EA000000 		.4byte	.LVL409
 9378 159d 0100     		.2byte	0x1
 9379 159f 53       		.byte	0x53
 9380 15a0 EC000000 		.4byte	.LVL410
 9381 15a4 EE000000 		.4byte	.LVL411
 9382 15a8 0100     		.2byte	0x1
 9383 15aa 53       		.byte	0x53
 9384 15ab F0000000 		.4byte	.LVL412
 9385 15af F6000000 		.4byte	.LVL413
 9386 15b3 0100     		.2byte	0x1
 9387 15b5 53       		.byte	0x53
 9388 15b6 06010000 		.4byte	.LVL416
 9389 15ba 1E010000 		.4byte	.LVL417
 9390 15be 0100     		.2byte	0x1
 9391 15c0 54       		.byte	0x54
 9392 15c1 20010000 		.4byte	.LVL418
 9393 15c5 24010000 		.4byte	.LVL419
 9394 15c9 0100     		.2byte	0x1
 9395 15cb 54       		.byte	0x54
 9396 15cc 00000000 		.4byte	0
 9397 15d0 00000000 		.4byte	0
 9398              	.LLST138:
 9399 15d4 CC000000 		.4byte	.LVL405
 9400 15d8 E6000000 		.4byte	.LVL407
 9401 15dc 0100     		.2byte	0x1
 9402 15de 55       		.byte	0x55
 9403 15df E8000000 		.4byte	.LVL408
 9404 15e3 FE000000 		.4byte	.LVL414
 9405 15e7 0100     		.2byte	0x1
 9406 15e9 55       		.byte	0x55
 9407 15ea 00010000 		.4byte	.LVL415
 9408 15ee 2A010000 		.4byte	.LVL420
 9409 15f2 0100     		.2byte	0x1
 9410 15f4 55       		.byte	0x55
 9411 15f5 00000000 		.4byte	0
 9412 15f9 00000000 		.4byte	0
 9413              	.LLST139:
 9414 15fd 1C000000 		.4byte	.LVL382
 9415 1601 20000000 		.4byte	.LVL383
 9416 1605 0200     		.2byte	0x2
 9417 1607 30       		.byte	0x30
 9418 1608 9F       		.byte	0x9f
 9419 1609 22000000 		.4byte	.LVL384
 9420 160d 24000000 		.4byte	.LVL385
 9421 1611 0200     		.2byte	0x2
 9422 1613 31       		.byte	0x31
 9423 1614 9F       		.byte	0x9f
 9424 1615 24000000 		.4byte	.LVL385
 9425 1619 96000000 		.4byte	.LVL395
ARM GAS  C:\Users\charl\AppData\Local\Temp\ccxfbC9q.s 			page 234


 9426 161d 0100     		.2byte	0x1
 9427 161f 57       		.byte	0x57
 9428 1620 A8000000 		.4byte	.LVL397
 9429 1624 CC000000 		.4byte	.LVL405
 9430 1628 0100     		.2byte	0x1
 9431 162a 57       		.byte	0x57
 9432 162b 00000000 		.4byte	0
 9433 162f 00000000 		.4byte	0
 9434              	.LLST140:
 9435 1633 3A000000 		.4byte	.LVL387
 9436 1637 43000000 		.4byte	.LVL388-1
 9437 163b 0100     		.2byte	0x1
 9438 163d 50       		.byte	0x50
 9439 163e 00000000 		.4byte	0
 9440 1642 00000000 		.4byte	0
 9441              	.LLST141:
 9442 1646 0C000000 		.4byte	.LVL380
 9443 164a 6A000000 		.4byte	.LVL392
 9444 164e 0200     		.2byte	0x2
 9445 1650 30       		.byte	0x30
 9446 1651 9F       		.byte	0x9f
 9447 1652 6A000000 		.4byte	.LVL392
 9448 1656 87000000 		.4byte	.LVL393-1
 9449 165a 0100     		.2byte	0x1
 9450 165c 52       		.byte	0x52
 9451 165d 94000000 		.4byte	.LVL394
 9452 1661 9B000000 		.4byte	.LVL396-1
 9453 1665 0100     		.2byte	0x1
 9454 1667 52       		.byte	0x52
 9455 1668 A8000000 		.4byte	.LVL397
 9456 166c BC000000 		.4byte	.LVL398
 9457 1670 0100     		.2byte	0x1
 9458 1672 52       		.byte	0x52
 9459 1673 BE000000 		.4byte	.LVL399
 9460 1677 C4000000 		.4byte	.LVL402
 9461 167b 0100     		.2byte	0x1
 9462 167d 52       		.byte	0x52
 9463 167e C4000000 		.4byte	.LVL402
 9464 1682 C8000000 		.4byte	.LVL404
 9465 1686 0200     		.2byte	0x2
 9466 1688 30       		.byte	0x30
 9467 1689 9F       		.byte	0x9f
 9468 168a C8000000 		.4byte	.LVL404
 9469 168e CC000000 		.4byte	.LVL405
 9470 1692 0100     		.2byte	0x1
 9471 1694 52       		.byte	0x52
 9472 1695 00000000 		.4byte	0
 9473 1699 00000000 		.4byte	0
 9474              	.LLST142:
 9475 169d 1C000000 		.4byte	.LVL382
 9476 16a1 20000000 		.4byte	.LVL383
 9477 16a5 0100     		.2byte	0x1
 9478 16a7 50       		.byte	0x50
 9479 16a8 22000000 		.4byte	.LVL384
 9480 16ac 43000000 		.4byte	.LVL388-1
 9481 16b0 0100     		.2byte	0x1
 9482 16b2 52       		.byte	0x52
ARM GAS  C:\Users\charl\AppData\Local\Temp\ccxfbC9q.s 			page 235


 9483 16b3 50000000 		.4byte	.LVL389
 9484 16b7 63000000 		.4byte	.LVL391-1
 9485 16bb 0100     		.2byte	0x1
 9486 16bd 52       		.byte	0x52
 9487 16be C4000000 		.4byte	.LVL402
 9488 16c2 C6000000 		.4byte	.LVL403
 9489 16c6 0100     		.2byte	0x1
 9490 16c8 52       		.byte	0x52
 9491 16c9 00000000 		.4byte	0
 9492 16cd 00000000 		.4byte	0
 9493              	.LLST143:
 9494 16d1 00000000 		.4byte	.LVL421
 9495 16d5 09000000 		.4byte	.LVL423-1
 9496 16d9 0100     		.2byte	0x1
 9497 16db 50       		.byte	0x50
 9498 16dc 09000000 		.4byte	.LVL423-1
 9499 16e0 30000000 		.4byte	.LVL431
 9500 16e4 0100     		.2byte	0x1
 9501 16e6 57       		.byte	0x57
 9502 16e7 30000000 		.4byte	.LVL431
 9503 16eb 34000000 		.4byte	.LFE28
 9504 16ef 0400     		.2byte	0x4
 9505 16f1 F3       		.byte	0xf3
 9506 16f2 01       		.uleb128 0x1
 9507 16f3 50       		.byte	0x50
 9508 16f4 9F       		.byte	0x9f
 9509 16f5 00000000 		.4byte	0
 9510 16f9 00000000 		.4byte	0
 9511              	.LLST144:
 9512 16fd 00000000 		.4byte	.LVL421
 9513 1701 09000000 		.4byte	.LVL423-1
 9514 1705 0100     		.2byte	0x1
 9515 1707 51       		.byte	0x51
 9516 1708 09000000 		.4byte	.LVL423-1
 9517 170c 34000000 		.4byte	.LFE28
 9518 1710 0400     		.2byte	0x4
 9519 1712 F3       		.byte	0xf3
 9520 1713 01       		.uleb128 0x1
 9521 1714 51       		.byte	0x51
 9522 1715 9F       		.byte	0x9f
 9523 1716 00000000 		.4byte	0
 9524 171a 00000000 		.4byte	0
 9525              	.LLST145:
 9526 171e 10000000 		.4byte	.LVL424
 9527 1722 28000000 		.4byte	.LVL429
 9528 1726 0100     		.2byte	0x1
 9529 1728 54       		.byte	0x54
 9530 1729 2A000000 		.4byte	.LVL430
 9531 172d 30000000 		.4byte	.LVL431
 9532 1731 0100     		.2byte	0x1
 9533 1733 54       		.byte	0x54
 9534 1734 00000000 		.4byte	0
 9535 1738 00000000 		.4byte	0
 9536              	.LLST146:
 9537 173c 10000000 		.4byte	.LVL424
 9538 1740 30000000 		.4byte	.LVL431
 9539 1744 0100     		.2byte	0x1
ARM GAS  C:\Users\charl\AppData\Local\Temp\ccxfbC9q.s 			page 236


 9540 1746 56       		.byte	0x56
 9541 1747 00000000 		.4byte	0
 9542 174b 00000000 		.4byte	0
 9543              	.LLST147:
 9544 174f 06000000 		.4byte	.LVL422
 9545 1753 14000000 		.4byte	.LVL425
 9546 1757 0200     		.2byte	0x2
 9547 1759 30       		.byte	0x30
 9548 175a 9F       		.byte	0x9f
 9549 175b 14000000 		.4byte	.LVL425
 9550 175f 24000000 		.4byte	.LVL427
 9551 1763 0100     		.2byte	0x1
 9552 1765 55       		.byte	0x55
 9553 1766 26000000 		.4byte	.LVL428
 9554 176a 30000000 		.4byte	.LVL431
 9555 176e 0100     		.2byte	0x1
 9556 1770 55       		.byte	0x55
 9557 1771 00000000 		.4byte	0
 9558 1775 00000000 		.4byte	0
 9559              	.LLST148:
 9560 1779 1E000000 		.4byte	.LVL426
 9561 177d 26000000 		.4byte	.LVL428
 9562 1781 0100     		.2byte	0x1
 9563 1783 50       		.byte	0x50
 9564 1784 00000000 		.4byte	0
 9565 1788 00000000 		.4byte	0
 9566              	.LLST149:
 9567 178c 00000000 		.4byte	.LVL432
 9568 1790 09000000 		.4byte	.LVL433-1
 9569 1794 0100     		.2byte	0x1
 9570 1796 50       		.byte	0x50
 9571 1797 09000000 		.4byte	.LVL433-1
 9572 179b 10000000 		.4byte	.LVL434
 9573 179f 0400     		.2byte	0x4
 9574 17a1 F3       		.byte	0xf3
 9575 17a2 01       		.uleb128 0x1
 9576 17a3 50       		.byte	0x50
 9577 17a4 9F       		.byte	0x9f
 9578 17a5 10000000 		.4byte	.LVL434
 9579 17a9 18000000 		.4byte	.LFE29
 9580 17ad 0100     		.2byte	0x1
 9581 17af 50       		.byte	0x50
 9582 17b0 00000000 		.4byte	0
 9583 17b4 00000000 		.4byte	0
 9584              	.LLST150:
 9585 17b8 00000000 		.4byte	.LVL432
 9586 17bc 09000000 		.4byte	.LVL433-1
 9587 17c0 0100     		.2byte	0x1
 9588 17c2 51       		.byte	0x51
 9589 17c3 09000000 		.4byte	.LVL433-1
 9590 17c7 10000000 		.4byte	.LVL434
 9591 17cb 0400     		.2byte	0x4
 9592 17cd F3       		.byte	0xf3
 9593 17ce 01       		.uleb128 0x1
 9594 17cf 51       		.byte	0x51
 9595 17d0 9F       		.byte	0x9f
 9596 17d1 10000000 		.4byte	.LVL434
ARM GAS  C:\Users\charl\AppData\Local\Temp\ccxfbC9q.s 			page 237


 9597 17d5 18000000 		.4byte	.LFE29
 9598 17d9 0100     		.2byte	0x1
 9599 17db 51       		.byte	0x51
 9600 17dc 00000000 		.4byte	0
 9601 17e0 00000000 		.4byte	0
 9602              	.LLST151:
 9603 17e4 0A000000 		.4byte	.LVL433
 9604 17e8 10000000 		.4byte	.LVL434
 9605 17ec 0100     		.2byte	0x1
 9606 17ee 50       		.byte	0x50
 9607 17ef 00000000 		.4byte	0
 9608 17f3 00000000 		.4byte	0
 9609              	.LLST152:
 9610 17f7 00000000 		.4byte	.LVL435
 9611 17fb 20000000 		.4byte	.LVL436
 9612 17ff 0100     		.2byte	0x1
 9613 1801 50       		.byte	0x50
 9614 1802 20000000 		.4byte	.LVL436
 9615 1806 3C000000 		.4byte	.LFE40
 9616 180a 0400     		.2byte	0x4
 9617 180c F3       		.byte	0xf3
 9618 180d 01       		.uleb128 0x1
 9619 180e 50       		.byte	0x50
 9620 180f 9F       		.byte	0x9f
 9621 1810 00000000 		.4byte	0
 9622 1814 00000000 		.4byte	0
 9623              	.LLST153:
 9624 1818 00000000 		.4byte	.LVL435
 9625 181c 28000000 		.4byte	.LVL437
 9626 1820 0100     		.2byte	0x1
 9627 1822 51       		.byte	0x51
 9628 1823 28000000 		.4byte	.LVL437
 9629 1827 3C000000 		.4byte	.LFE40
 9630 182b 0400     		.2byte	0x4
 9631 182d F3       		.byte	0xf3
 9632 182e 01       		.uleb128 0x1
 9633 182f 51       		.byte	0x51
 9634 1830 9F       		.byte	0x9f
 9635 1831 00000000 		.4byte	0
 9636 1835 00000000 		.4byte	0
 9637              	.LLST154:
 9638 1839 00000000 		.4byte	.LVL438
 9639 183d 04000000 		.4byte	.LVL439
 9640 1841 0100     		.2byte	0x1
 9641 1843 50       		.byte	0x50
 9642 1844 04000000 		.4byte	.LVL439
 9643 1848 0C000000 		.4byte	.LFE41
 9644 184c 0400     		.2byte	0x4
 9645 184e F3       		.byte	0xf3
 9646 184f 01       		.uleb128 0x1
 9647 1850 50       		.byte	0x50
 9648 1851 9F       		.byte	0x9f
 9649 1852 00000000 		.4byte	0
 9650 1856 00000000 		.4byte	0
 9651              		.section	.debug_aranges,"",%progbits
 9652 0000 64010000 		.4byte	0x164
 9653 0004 0200     		.2byte	0x2
ARM GAS  C:\Users\charl\AppData\Local\Temp\ccxfbC9q.s 			page 238


 9654 0006 00000000 		.4byte	.Ldebug_info0
 9655 000a 04       		.byte	0x4
 9656 000b 00       		.byte	0
 9657 000c 0000     		.2byte	0
 9658 000e 0000     		.2byte	0
 9659 0010 00000000 		.4byte	.LFB0
 9660 0014 3C010000 		.4byte	.LFE0-.LFB0
 9661 0018 00000000 		.4byte	.LFB1
 9662 001c 3C000000 		.4byte	.LFE1-.LFB1
 9663 0020 00000000 		.4byte	.LFB2
 9664 0024 6C000000 		.4byte	.LFE2-.LFB2
 9665 0028 00000000 		.4byte	.LFB4
 9666 002c 24000000 		.4byte	.LFE4-.LFB4
 9667 0030 00000000 		.4byte	.LFB7
 9668 0034 0C000000 		.4byte	.LFE7-.LFB7
 9669 0038 00000000 		.4byte	.LFB8
 9670 003c 1C000000 		.4byte	.LFE8-.LFB8
 9671 0040 00000000 		.4byte	.LFB9
 9672 0044 1C000000 		.4byte	.LFE9-.LFB9
 9673 0048 00000000 		.4byte	.LFB10
 9674 004c 1C000000 		.4byte	.LFE10-.LFB10
 9675 0050 00000000 		.4byte	.LFB11
 9676 0054 24000000 		.4byte	.LFE11-.LFB11
 9677 0058 00000000 		.4byte	.LFB12
 9678 005c 10000000 		.4byte	.LFE12-.LFB12
 9679 0060 00000000 		.4byte	.LFB13
 9680 0064 18000000 		.4byte	.LFE13-.LFB13
 9681 0068 00000000 		.4byte	.LFB3
 9682 006c 30000000 		.4byte	.LFE3-.LFB3
 9683 0070 00000000 		.4byte	.LFB5
 9684 0074 1C000000 		.4byte	.LFE5-.LFB5
 9685 0078 00000000 		.4byte	.LFB6
 9686 007c 20000000 		.4byte	.LFE6-.LFB6
 9687 0080 00000000 		.4byte	.LFB32
 9688 0084 24000000 		.4byte	.LFE32-.LFB32
 9689 0088 00000000 		.4byte	.LFB33
 9690 008c 14000000 		.4byte	.LFE33-.LFB33
 9691 0090 00000000 		.4byte	.LFB34
 9692 0094 10000000 		.4byte	.LFE34-.LFB34
 9693 0098 00000000 		.4byte	.LFB15
 9694 009c 1C010000 		.4byte	.LFE15-.LFB15
 9695 00a0 00000000 		.4byte	.LFB18
 9696 00a4 1C000000 		.4byte	.LFE18-.LFB18
 9697 00a8 00000000 		.4byte	.LFB19
 9698 00ac 18000000 		.4byte	.LFE19-.LFB19
 9699 00b0 00000000 		.4byte	.LFB35
 9700 00b4 24000000 		.4byte	.LFE35-.LFB35
 9701 00b8 00000000 		.4byte	.LFB14
 9702 00bc 78010000 		.4byte	.LFE14-.LFB14
 9703 00c0 00000000 		.4byte	.LFB16
 9704 00c4 38000000 		.4byte	.LFE16-.LFB16
 9705 00c8 00000000 		.4byte	.LFB17
 9706 00cc 18000000 		.4byte	.LFE17-.LFB17
 9707 00d0 00000000 		.4byte	.LFB36
 9708 00d4 1C000000 		.4byte	.LFE36-.LFB36
 9709 00d8 00000000 		.4byte	.LFB21
 9710 00dc C4000000 		.4byte	.LFE21-.LFB21
ARM GAS  C:\Users\charl\AppData\Local\Temp\ccxfbC9q.s 			page 239


 9711 00e0 00000000 		.4byte	.LFB24
 9712 00e4 1C000000 		.4byte	.LFE24-.LFB24
 9713 00e8 00000000 		.4byte	.LFB25
 9714 00ec 18000000 		.4byte	.LFE25-.LFB25
 9715 00f0 00000000 		.4byte	.LFB37
 9716 00f4 2C000000 		.4byte	.LFE37-.LFB37
 9717 00f8 00000000 		.4byte	.LFB20
 9718 00fc 34010000 		.4byte	.LFE20-.LFB20
 9719 0100 00000000 		.4byte	.LFB22
 9720 0104 34000000 		.4byte	.LFE22-.LFB22
 9721 0108 00000000 		.4byte	.LFB23
 9722 010c 18000000 		.4byte	.LFE23-.LFB23
 9723 0110 00000000 		.4byte	.LFB38
 9724 0114 1C000000 		.4byte	.LFE38-.LFB38
 9725 0118 00000000 		.4byte	.LFB27
 9726 011c C4000000 		.4byte	.LFE27-.LFB27
 9727 0120 00000000 		.4byte	.LFB30
 9728 0124 1C000000 		.4byte	.LFE30-.LFB30
 9729 0128 00000000 		.4byte	.LFB31
 9730 012c 18000000 		.4byte	.LFE31-.LFB31
 9731 0130 00000000 		.4byte	.LFB39
 9732 0134 2C000000 		.4byte	.LFE39-.LFB39
 9733 0138 00000000 		.4byte	.LFB26
 9734 013c 34010000 		.4byte	.LFE26-.LFB26
 9735 0140 00000000 		.4byte	.LFB28
 9736 0144 34000000 		.4byte	.LFE28-.LFB28
 9737 0148 00000000 		.4byte	.LFB29
 9738 014c 18000000 		.4byte	.LFE29-.LFB29
 9739 0150 00000000 		.4byte	.LFB40
 9740 0154 3C000000 		.4byte	.LFE40-.LFB40
 9741 0158 00000000 		.4byte	.LFB41
 9742 015c 0C000000 		.4byte	.LFE41-.LFB41
 9743 0160 00000000 		.4byte	0
 9744 0164 00000000 		.4byte	0
 9745              		.section	.debug_ranges,"",%progbits
 9746              	.Ldebug_ranges0:
 9747 0000 00000000 		.4byte	.LFB0
 9748 0004 3C010000 		.4byte	.LFE0
 9749 0008 00000000 		.4byte	.LFB1
 9750 000c 3C000000 		.4byte	.LFE1
 9751 0010 00000000 		.4byte	.LFB2
 9752 0014 6C000000 		.4byte	.LFE2
 9753 0018 00000000 		.4byte	.LFB4
 9754 001c 24000000 		.4byte	.LFE4
 9755 0020 00000000 		.4byte	.LFB7
 9756 0024 0C000000 		.4byte	.LFE7
 9757 0028 00000000 		.4byte	.LFB8
 9758 002c 1C000000 		.4byte	.LFE8
 9759 0030 00000000 		.4byte	.LFB9
 9760 0034 1C000000 		.4byte	.LFE9
 9761 0038 00000000 		.4byte	.LFB10
 9762 003c 1C000000 		.4byte	.LFE10
 9763 0040 00000000 		.4byte	.LFB11
 9764 0044 24000000 		.4byte	.LFE11
 9765 0048 00000000 		.4byte	.LFB12
 9766 004c 10000000 		.4byte	.LFE12
 9767 0050 00000000 		.4byte	.LFB13
ARM GAS  C:\Users\charl\AppData\Local\Temp\ccxfbC9q.s 			page 240


 9768 0054 18000000 		.4byte	.LFE13
 9769 0058 00000000 		.4byte	.LFB3
 9770 005c 30000000 		.4byte	.LFE3
 9771 0060 00000000 		.4byte	.LFB5
 9772 0064 1C000000 		.4byte	.LFE5
 9773 0068 00000000 		.4byte	.LFB6
 9774 006c 20000000 		.4byte	.LFE6
 9775 0070 00000000 		.4byte	.LFB32
 9776 0074 24000000 		.4byte	.LFE32
 9777 0078 00000000 		.4byte	.LFB33
 9778 007c 14000000 		.4byte	.LFE33
 9779 0080 00000000 		.4byte	.LFB34
 9780 0084 10000000 		.4byte	.LFE34
 9781 0088 00000000 		.4byte	.LFB15
 9782 008c 1C010000 		.4byte	.LFE15
 9783 0090 00000000 		.4byte	.LFB18
 9784 0094 1C000000 		.4byte	.LFE18
 9785 0098 00000000 		.4byte	.LFB19
 9786 009c 18000000 		.4byte	.LFE19
 9787 00a0 00000000 		.4byte	.LFB35
 9788 00a4 24000000 		.4byte	.LFE35
 9789 00a8 00000000 		.4byte	.LFB14
 9790 00ac 78010000 		.4byte	.LFE14
 9791 00b0 00000000 		.4byte	.LFB16
 9792 00b4 38000000 		.4byte	.LFE16
 9793 00b8 00000000 		.4byte	.LFB17
 9794 00bc 18000000 		.4byte	.LFE17
 9795 00c0 00000000 		.4byte	.LFB36
 9796 00c4 1C000000 		.4byte	.LFE36
 9797 00c8 00000000 		.4byte	.LFB21
 9798 00cc C4000000 		.4byte	.LFE21
 9799 00d0 00000000 		.4byte	.LFB24
 9800 00d4 1C000000 		.4byte	.LFE24
 9801 00d8 00000000 		.4byte	.LFB25
 9802 00dc 18000000 		.4byte	.LFE25
 9803 00e0 00000000 		.4byte	.LFB37
 9804 00e4 2C000000 		.4byte	.LFE37
 9805 00e8 00000000 		.4byte	.LFB20
 9806 00ec 34010000 		.4byte	.LFE20
 9807 00f0 00000000 		.4byte	.LFB22
 9808 00f4 34000000 		.4byte	.LFE22
 9809 00f8 00000000 		.4byte	.LFB23
 9810 00fc 18000000 		.4byte	.LFE23
 9811 0100 00000000 		.4byte	.LFB38
 9812 0104 1C000000 		.4byte	.LFE38
 9813 0108 00000000 		.4byte	.LFB27
 9814 010c C4000000 		.4byte	.LFE27
 9815 0110 00000000 		.4byte	.LFB30
 9816 0114 1C000000 		.4byte	.LFE30
 9817 0118 00000000 		.4byte	.LFB31
 9818 011c 18000000 		.4byte	.LFE31
 9819 0120 00000000 		.4byte	.LFB39
 9820 0124 2C000000 		.4byte	.LFE39
 9821 0128 00000000 		.4byte	.LFB26
 9822 012c 34010000 		.4byte	.LFE26
 9823 0130 00000000 		.4byte	.LFB28
 9824 0134 34000000 		.4byte	.LFE28
ARM GAS  C:\Users\charl\AppData\Local\Temp\ccxfbC9q.s 			page 241


 9825 0138 00000000 		.4byte	.LFB29
 9826 013c 18000000 		.4byte	.LFE29
 9827 0140 00000000 		.4byte	.LFB40
 9828 0144 3C000000 		.4byte	.LFE40
 9829 0148 00000000 		.4byte	.LFB41
 9830 014c 0C000000 		.4byte	.LFE41
 9831 0150 00000000 		.4byte	0
 9832 0154 00000000 		.4byte	0
 9833              		.section	.debug_line,"",%progbits
 9834              	.Ldebug_line0:
 9835 0000 DE080000 		.section	.debug_str,"MS",%progbits,1
 9835      0200E901 
 9835      00000201 
 9835      FB0E0D00 
 9835      01010101 
 9836              	.LASF71:
 9837 0000 696E7075 		.ascii	"input\000"
 9837      7400
 9838              	.LASF134:
 9839 0006 7374726C 		.ascii	"strlen\000"
 9839      656E00
 9840              	.LASF106:
 9841 000d 4C45445F 		.ascii	"LED_Driver_Gear_Write16SegNumberDec\000"
 9841      44726976 
 9841      65725F47 
 9841      6561725F 
 9841      57726974 
 9842              	.LASF129:
 9843 0031 4379446D 		.ascii	"CyDmaChSetInitialTd\000"
 9843      61436853 
 9843      6574496E 
 9843      69746961 
 9843      6C546400 
 9844              	.LASF23:
 9845 0045 62617369 		.ascii	"basic_status\000"
 9845      635F7374 
 9845      61747573 
 9845      00
 9846              	.LASF47:
 9847 0052 4C45445F 		.ascii	"LED_Driver_Gear_dmaInitDone\000"
 9847      44726976 
 9847      65725F47 
 9847      6561725F 
 9847      646D6149 
 9848              	.LASF43:
 9849 006e 726F7753 		.ascii	"rowSegSelect\000"
 9849      65675365 
 9849      6C656374 
 9849      00
 9850              	.LASF63:
 9851 007b 73656C65 		.ascii	"selectVal\000"
 9851      63745661 
 9851      6C00
 9852              	.LASF8:
 9853 0085 756E7369 		.ascii	"unsigned int\000"
 9853      676E6564 
 9853      20696E74 
ARM GAS  C:\Users\charl\AppData\Local\Temp\ccxfbC9q.s 			page 242


 9853      00
 9854              	.LASF93:
 9855 0092 4C45445F 		.ascii	"LED_Driver_Gear_Write14SegNumberDec\000"
 9855      44726976 
 9855      65725F47 
 9855      6561725F 
 9855      57726974 
 9856              	.LASF75:
 9857 00b6 4C45445F 		.ascii	"LED_Driver_Gear_Write7SegNumberDec\000"
 9857      44726976 
 9857      65725F47 
 9857      6561725F 
 9857      57726974 
 9858              	.LASF125:
 9859 00d9 4379446D 		.ascii	"CyDmaTdSetConfiguration\000"
 9859      61546453 
 9859      6574436F 
 9859      6E666967 
 9859      75726174 
 9860              	.LASF38:
 9861 00f1 726F7753 		.ascii	"rowSeg\000"
 9861      656700
 9862              	.LASF18:
 9863 00f8 72656738 		.ascii	"reg8\000"
 9863      00
 9864              	.LASF121:
 9865 00fd 4C45445F 		.ascii	"LED_Driver_Gear_initVar\000"
 9865      44726976 
 9865      65725F47 
 9865      6561725F 
 9865      696E6974 
 9866              	.LASF57:
 9867 0115 76616C4E 		.ascii	"valNum\000"
 9867      756D00
 9868              	.LASF102:
 9869 011c 4C45445F 		.ascii	"LED_Driver_Gear_Write16SegDigitHex\000"
 9869      44726976 
 9869      65725F47 
 9869      6561725F 
 9869      57726974 
 9870              	.LASF99:
 9871 013f 4C45445F 		.ascii	"LED_Driver_Gear_16SegDigitsHigh\000"
 9871      44726976 
 9871      65725F47 
 9871      6561725F 
 9871      31365365 
 9872              	.LASF131:
 9873 015f 4379446D 		.ascii	"CyDmaChDisable\000"
 9873      61436844 
 9873      69736162 
 9873      6C6500
 9874              	.LASF77:
 9875 016e 4C45445F 		.ascii	"LED_Driver_Gear_WriteString7Seg\000"
 9875      44726976 
 9875      65725F47 
 9875      6561725F 
 9875      57726974 
ARM GAS  C:\Users\charl\AppData\Local\Temp\ccxfbC9q.s 			page 243


 9876              	.LASF89:
 9877 018e 4C45445F 		.ascii	"LED_Driver_Gear_14SegASCIILow\000"
 9877      44726976 
 9877      65725F47 
 9877      6561725F 
 9877      31345365 
 9878              	.LASF13:
 9879 01ac 666C6F61 		.ascii	"float\000"
 9879      7400
 9880              	.LASF54:
 9881 01b2 4C45445F 		.ascii	"LED_Driver_Gear_EncodeNumber7Seg\000"
 9881      44726976 
 9881      65725F47 
 9881      6561725F 
 9881      456E636F 
 9882              	.LASF12:
 9883 01d3 696E7433 		.ascii	"int32\000"
 9883      3200
 9884              	.LASF96:
 9885 01d9 4C45445F 		.ascii	"LED_Driver_Gear_PutChar14Seg\000"
 9885      44726976 
 9885      65725F47 
 9885      6561725F 
 9885      50757443 
 9886              	.LASF7:
 9887 01f6 6C6F6E67 		.ascii	"long long unsigned int\000"
 9887      206C6F6E 
 9887      6720756E 
 9887      7369676E 
 9887      65642069 
 9888              	.LASF136:
 9889 020d 2E5C4765 		.ascii	".\\Generated_Source\\PSoC5\\LED_Driver_Gear.c\000"
 9889      6E657261 
 9889      7465645F 
 9889      536F7572 
 9889      63655C50 
 9890              	.LASF69:
 9891 0238 4C45445F 		.ascii	"LED_Driver_Gear_Write7SegDigitHex\000"
 9891      44726976 
 9891      65725F47 
 9891      6561725F 
 9891      57726974 
 9892              	.LASF39:
 9893 025a 4C45445F 		.ascii	"LED_Driver_Gear_ClearRC\000"
 9893      44726976 
 9893      65725F47 
 9893      6561725F 
 9893      436C6561 
 9894              	.LASF83:
 9895 0272 4C45445F 		.ascii	"LED_Driver_Gear_14SegDigitsHigh\000"
 9895      44726976 
 9895      65725F47 
 9895      6561725F 
 9895      31345365 
 9896              	.LASF60:
 9897 0292 64696769 		.ascii	"digits\000"
 9897      747300
ARM GAS  C:\Users\charl\AppData\Local\Temp\ccxfbC9q.s 			page 244


 9898              	.LASF72:
 9899 0299 4C45445F 		.ascii	"LED_Driver_Gear_7SegASCII\000"
 9899      44726976 
 9899      65725F47 
 9899      6561725F 
 9899      37536567 
 9900              	.LASF116:
 9901 02b3 4C45445F 		.ascii	"LED_Driver_Gear_dmaComTd\000"
 9901      44726976 
 9901      65725F47 
 9901      6561725F 
 9901      646D6143 
 9902              	.LASF33:
 9903 02cc 76616C75 		.ascii	"value\000"
 9903      6500
 9904              	.LASF90:
 9905 02d2 4C45445F 		.ascii	"LED_Driver_Gear_14SegASCIIHigh\000"
 9905      44726976 
 9905      65725F47 
 9905      6561725F 
 9905      31345365 
 9906              	.LASF132:
 9907 02f1 4379446D 		.ascii	"CyDmaChSetRequest\000"
 9907      61436853 
 9907      65745265 
 9907      71756573 
 9907      7400
 9908              	.LASF30:
 9909 0303 646D6143 		.ascii	"dmaChannelList\000"
 9909      68616E6E 
 9909      656C4C69 
 9909      737400
 9910              	.LASF31:
 9911 0312 4C45445F 		.ascii	"LED_Driver_Gear_Enable\000"
 9911      44726976 
 9911      65725F47 
 9911      6561725F 
 9911      456E6162 
 9912              	.LASF20:
 9913 0329 73697A65 		.ascii	"size_t\000"
 9913      5F7400
 9914              	.LASF95:
 9915 0330 63757272 		.ascii	"currPosition\000"
 9915      506F7369 
 9915      74696F6E 
 9915      00
 9916              	.LASF66:
 9917 033d 6E756D62 		.ascii	"numberVal\000"
 9917      65725661 
 9917      6C00
 9918              	.LASF120:
 9919 0347 4C45445F 		.ascii	"LED_Driver_Gear_dmaBCTd\000"
 9919      44726976 
 9919      65725F47 
 9919      6561725F 
 9919      646D6142 
 9920              	.LASF78:
ARM GAS  C:\Users\charl\AppData\Local\Temp\ccxfbC9q.s 			page 245


 9921 035f 63686172 		.ascii	"character\000"
 9921      61637465 
 9921      7200
 9922              	.LASF45:
 9923 0369 4C45445F 		.ascii	"LED_Driver_Gear_ClearDisplayAll\000"
 9923      44726976 
 9923      65725F47 
 9923      6561725F 
 9923      436C6561 
 9924              	.LASF42:
 9925 0389 76616C75 		.ascii	"valueRC\000"
 9925      65524300 
 9926              	.LASF105:
 9927 0391 4C45445F 		.ascii	"LED_Driver_Gear_16SegASCIIHigh\000"
 9927      44726976 
 9927      65725F47 
 9927      6561725F 
 9927      31365365 
 9928              	.LASF28:
 9929 03b0 4C45445F 		.ascii	"LED_Driver_Gear_DmaDisable\000"
 9929      44726976 
 9929      65725F47 
 9929      6561725F 
 9929      446D6144 
 9930              	.LASF109:
 9931 03cb 4C45445F 		.ascii	"LED_Driver_Gear_SetBrightness\000"
 9931      44726976 
 9931      65725F47 
 9931      6561725F 
 9931      53657442 
 9932              	.LASF88:
 9933 03e9 4C45445F 		.ascii	"LED_Driver_Gear_EncodeChar14Seg\000"
 9933      44726976 
 9933      65725F47 
 9933      6561725F 
 9933      456E636F 
 9934              	.LASF139:
 9935 0409 4379446D 		.ascii	"CyDmaTdAllocate\000"
 9935      61546441 
 9935      6C6C6F63 
 9935      61746500 
 9936              	.LASF98:
 9937 0419 4C45445F 		.ascii	"LED_Driver_Gear_16SegDigitsLow\000"
 9937      44726976 
 9937      65725F47 
 9937      6561725F 
 9937      31365365 
 9938              	.LASF104:
 9939 0438 4C45445F 		.ascii	"LED_Driver_Gear_16SegASCIILow\000"
 9939      44726976 
 9939      65725F47 
 9939      6561725F 
 9939      31365365 
 9940              	.LASF74:
 9941 0456 76616C48 		.ascii	"valHigh\000"
 9941      69676800 
 9942              	.LASF46:
ARM GAS  C:\Users\charl\AppData\Local\Temp\ccxfbC9q.s 			page 246


 9943 045e 4C45445F 		.ascii	"LED_Driver_Gear_Init\000"
 9943      44726976 
 9943      65725F47 
 9943      6561725F 
 9943      496E6974 
 9944              	.LASF108:
 9945 0473 4C45445F 		.ascii	"LED_Driver_Gear_PutChar16Seg\000"
 9945      44726976 
 9945      65725F47 
 9945      6561725F 
 9945      50757443 
 9946              	.LASF133:
 9947 0490 4C45445F 		.ascii	"LED_Driver_Gear_Com_Driver_Write\000"
 9947      44726976 
 9947      65725F47 
 9947      6561725F 
 9947      436F6D5F 
 9948              	.LASF91:
 9949 04b1 76616C48 		.ascii	"valHexLow\000"
 9949      65784C6F 
 9949      7700
 9950              	.LASF16:
 9951 04bb 63686172 		.ascii	"char\000"
 9951      00
 9952              	.LASF32:
 9953 04c0 4C45445F 		.ascii	"LED_Driver_Gear_SetDisplayRAM\000"
 9953      44726976 
 9953      65725F47 
 9953      6561725F 
 9953      53657444 
 9954              	.LASF137:
 9955 04de 433A5C55 		.ascii	"C:\\Users\\charl\\Documents\\GitHub\\VTM17_Dash_7se"
 9955      73657273 
 9955      5C636861 
 9955      726C5C44 
 9955      6F63756D 
 9956 050c 675C5654 		.ascii	"g\\VTM17_Dash_7SEG\\VTM17_Display_7seg\\VTM17c_Disp"
 9956      4D31375F 
 9956      44617368 
 9956      5F375345 
 9956      475C5654 
 9957 053c 6C61795F 		.ascii	"lay_7seg.cydsn\000"
 9957      37736567 
 9957      2E637964 
 9957      736E00
 9958              	.LASF128:
 9959 054b 4C45445F 		.ascii	"LED_Driver_Gear_DMA_BC_DmaInitialize\000"
 9959      44726976 
 9959      65725F47 
 9959      6561725F 
 9959      444D415F 
 9960              	.LASF112:
 9961 0570 4C45445F 		.ascii	"LED_Driver_Gear_GetBrightness\000"
 9961      44726976 
 9961      65725F47 
 9961      6561725F 
 9961      47657442 
ARM GAS  C:\Users\charl\AppData\Local\Temp\ccxfbC9q.s 			page 247


 9962              	.LASF110:
 9963 058e 62726967 		.ascii	"bright\000"
 9963      687400
 9964              	.LASF10:
 9965 0595 75696E74 		.ascii	"uint16\000"
 9965      313600
 9966              	.LASF40:
 9967 059c 726F7753 		.ascii	"rowSelect\000"
 9967      656C6563 
 9967      7400
 9968              	.LASF21:
 9969 05a6 62617369 		.ascii	"basic_cfg\000"
 9969      635F6366 
 9969      6700
 9970              	.LASF15:
 9971 05b0 63686172 		.ascii	"char8\000"
 9971      3800
 9972              	.LASF122:
 9973 05b6 4C45445F 		.ascii	"LED_Driver_Gear_enableVar\000"
 9973      44726976 
 9973      65725F47 
 9973      6561725F 
 9973      656E6162 
 9974              	.LASF70:
 9975 05d0 4C45445F 		.ascii	"LED_Driver_Gear_EncodeChar7Seg\000"
 9975      44726976 
 9975      65725F47 
 9975      6561725F 
 9975      456E636F 
 9976              	.LASF111:
 9977 05ef 4C45445F 		.ascii	"LED_Driver_Gear_tempCom\000"
 9977      44726976 
 9977      65725F47 
 9977      6561725F 
 9977      74656D70 
 9978              	.LASF6:
 9979 0607 6C6F6E67 		.ascii	"long long int\000"
 9979      206C6F6E 
 9979      6720696E 
 9979      7400
 9980              	.LASF123:
 9981 0615 4C45445F 		.ascii	"LED_Driver_Gear_segLBuffer\000"
 9981      44726976 
 9981      65725F47 
 9981      6561725F 
 9981      7365674C 
 9982              	.LASF103:
 9983 0630 4C45445F 		.ascii	"LED_Driver_Gear_EncodeChar16Seg\000"
 9983      44726976 
 9983      65725F47 
 9983      6561725F 
 9983      456E636F 
 9984              	.LASF81:
 9985 0650 4C45445F 		.ascii	"LED_Driver_Gear_EncodeNumber14Seg\000"
 9985      44726976 
 9985      65725F47 
 9985      6561725F 
ARM GAS  C:\Users\charl\AppData\Local\Temp\ccxfbC9q.s 			page 248


 9985      456E636F 
 9986              	.LASF87:
 9987 0672 4C45445F 		.ascii	"LED_Driver_Gear_Write14SegDigitHex\000"
 9987      44726976 
 9987      65725F47 
 9987      6561725F 
 9987      57726974 
 9988              	.LASF56:
 9989 0695 4C45445F 		.ascii	"LED_Driver_Gear_7SegDigits\000"
 9989      44726976 
 9989      65725F47 
 9989      6561725F 
 9989      37536567 
 9990              	.LASF118:
 9991 06b0 4C45445F 		.ascii	"LED_Driver_Gear_dmaSegLTd\000"
 9991      44726976 
 9991      65725F47 
 9991      6561725F 
 9991      646D6153 
 9992              	.LASF68:
 9993 06ca 64696769 		.ascii	"digit\000"
 9993      7400
 9994              	.LASF53:
 9995 06d0 64656350 		.ascii	"decPointVal\000"
 9995      6F696E74 
 9995      56616C00 
 9996              	.LASF36:
 9997 06dc 4C45445F 		.ascii	"LED_Driver_Gear_SetRC\000"
 9997      44726976 
 9997      65725F47 
 9997      6561725F 
 9997      53657452 
 9998              	.LASF117:
 9999 06f2 4C45445F 		.ascii	"LED_Driver_Gear_dmaSegChannel\000"
 9999      44726976 
 9999      65725F47 
 9999      6561725F 
 9999      646D6153 
 10000              	.LASF44:
 10001 0710 4C45445F 		.ascii	"LED_Driver_Gear_ClearDisplay\000"
 10001      44726976 
 10001      65725F47 
 10001      6561725F 
 10001      436C6561 
 10002              	.LASF11:
 10003 072d 75696E74 		.ascii	"uint32\000"
 10003      333200
 10004              	.LASF101:
 10005 0734 4C45445F 		.ascii	"LED_Driver_Gear_Write16SegDigitDec\000"
 10005      44726976 
 10005      65725F47 
 10005      6561725F 
 10005      57726974 
 10006              	.LASF119:
 10007 0757 4C45445F 		.ascii	"LED_Driver_Gear_dmaBCChannel\000"
 10007      44726976 
 10007      65725F47 
ARM GAS  C:\Users\charl\AppData\Local\Temp\ccxfbC9q.s 			page 249


 10007      6561725F 
 10007      646D6142 
 10008              	.LASF41:
 10009 0774 4C45445F 		.ascii	"LED_Driver_Gear_ToggleRC\000"
 10009      44726976 
 10009      65725F47 
 10009      6561725F 
 10009      546F6767 
 10010              	.LASF27:
 10011 078d 4C45445F 		.ascii	"LED_Driver_Gear_DmaEnable\000"
 10011      44726976 
 10011      65725F47 
 10011      6561725F 
 10011      446D6145 
 10012              	.LASF29:
 10013 07a7 6368616E 		.ascii	"channel\000"
 10013      6E656C00 
 10014              	.LASF52:
 10015 07af 4C45445F 		.ascii	"LED_Driver_Gear_GetDecimalPoint\000"
 10015      44726976 
 10015      65725F47 
 10015      6561725F 
 10015      47657444 
 10016              	.LASF62:
 10017 07cf 63686F69 		.ascii	"choiceReg\000"
 10017      63655265 
 10017      6700
 10018              	.LASF126:
 10019 07d9 4379446D 		.ascii	"CyDmaTdSetAddress\000"
 10019      61546453 
 10019      65744164 
 10019      64726573 
 10019      7300
 10020              	.LASF2:
 10021 07eb 73686F72 		.ascii	"short int\000"
 10021      7420696E 
 10021      7400
 10022              	.LASF97:
 10023 07f5 4C45445F 		.ascii	"LED_Driver_Gear_EncodeNumber16Seg\000"
 10023      44726976 
 10023      65725F47 
 10023      6561725F 
 10023      456E636F 
 10024              	.LASF67:
 10025 0817 4C45445F 		.ascii	"LED_Driver_Gear_Write7SegDigitDec\000"
 10025      44726976 
 10025      65725F47 
 10025      6561725F 
 10025      57726974 
 10026              	.LASF4:
 10027 0839 6C6F6E67 		.ascii	"long int\000"
 10027      20696E74 
 10027      00
 10028              	.LASF84:
 10029 0842 4C45445F 		.ascii	"LED_Driver_Gear_Write14SegNumberHex\000"
 10029      44726976 
 10029      65725F47 
ARM GAS  C:\Users\charl\AppData\Local\Temp\ccxfbC9q.s 			page 250


 10029      6561725F 
 10029      57726974 
 10030              	.LASF79:
 10031 0866 73697A65 		.ascii	"sizeLimit\000"
 10031      4C696D69 
 10031      7400
 10032              	.LASF59:
 10033 0870 4C45445F 		.ascii	"LED_Driver_Gear_Write7SegNumberHex\000"
 10033      44726976 
 10033      65725F47 
 10033      6561725F 
 10033      57726974 
 10034              	.LASF130:
 10035 0893 4379446D 		.ascii	"CyDmaChEnable\000"
 10035      61436845 
 10035      6E61626C 
 10035      6500
 10036              	.LASF22:
 10037 08a1 61637469 		.ascii	"action\000"
 10037      6F6E00
 10038              	.LASF37:
 10039 08a8 636F6C75 		.ascii	"column\000"
 10039      6D6E00
 10040              	.LASF113:
 10041 08af 4C45445F 		.ascii	"LED_Driver_Gear_comBuffer\000"
 10041      44726976 
 10041      65725F47 
 10041      6561725F 
 10041      636F6D42 
 10042              	.LASF51:
 10043 08c9 4C45445F 		.ascii	"LED_Driver_Gear_GetRC\000"
 10043      44726976 
 10043      65725F47 
 10043      6561725F 
 10043      47657452 
 10044              	.LASF58:
 10045 08df 76616C48 		.ascii	"valHex\000"
 10045      657800
 10046              	.LASF94:
 10047 08e6 4C45445F 		.ascii	"LED_Driver_Gear_WriteString14Seg\000"
 10047      44726976 
 10047      65725F47 
 10047      6561725F 
 10047      57726974 
 10048              	.LASF55:
 10049 0907 6E756D62 		.ascii	"number\000"
 10049      657200
 10050              	.LASF100:
 10051 090e 4C45445F 		.ascii	"LED_Driver_Gear_Write16SegNumberHex\000"
 10051      44726976 
 10051      65725F47 
 10051      6561725F 
 10051      57726974 
 10052              	.LASF19:
 10053 0932 73697A65 		.ascii	"sizetype\000"
 10053      74797065 
 10053      00
ARM GAS  C:\Users\charl\AppData\Local\Temp\ccxfbC9q.s 			page 251


 10054              	.LASF5:
 10055 093b 6C6F6E67 		.ascii	"long unsigned int\000"
 10055      20756E73 
 10055      69676E65 
 10055      6420696E 
 10055      7400
 10056              	.LASF92:
 10057 094d 76616C48 		.ascii	"valHexHigh\000"
 10057      65784869 
 10057      676800
 10058              	.LASF127:
 10059 0958 4C45445F 		.ascii	"LED_Driver_Gear_DMA_Seg_DmaInitialize\000"
 10059      44726976 
 10059      65725F47 
 10059      6561725F 
 10059      444D415F 
 10060              	.LASF48:
 10061 097e 4C45445F 		.ascii	"LED_Driver_Gear_Start\000"
 10061      44726976 
 10061      65725F47 
 10061      6561725F 
 10061      53746172 
 10062              	.LASF17:
 10063 0994 63797374 		.ascii	"cystatus\000"
 10063      61747573 
 10063      00
 10064              	.LASF115:
 10065 099d 4C45445F 		.ascii	"LED_Driver_Gear_dmaComChannel\000"
 10065      44726976 
 10065      65725F47 
 10065      6561725F 
 10065      646D6143 
 10066              	.LASF1:
 10067 09bb 756E7369 		.ascii	"unsigned char\000"
 10067      676E6564 
 10067      20636861 
 10067      7200
 10068              	.LASF135:
 10069 09c9 474E5520 		.ascii	"GNU C 4.9.3 20150303 (release) [ARM/embedded-4_9-br"
 10069      4320342E 
 10069      392E3320 
 10069      32303135 
 10069      30333033 
 10070 09fc 616E6368 		.ascii	"anch revision 221220] -mcpu=cortex-m3 -mthumb -g -O"
 10070      20726576 
 10070      6973696F 
 10070      6E203232 
 10070      31323230 
 10071 0a2f 67202D66 		.ascii	"g -ffunction-sections -ffat-lto-objects\000"
 10071      66756E63 
 10071      74696F6E 
 10071      2D736563 
 10071      74696F6E 
 10072              	.LASF82:
 10073 0a57 4C45445F 		.ascii	"LED_Driver_Gear_14SegDigitsLow\000"
 10073      44726976 
 10073      65725F47 
ARM GAS  C:\Users\charl\AppData\Local\Temp\ccxfbC9q.s 			page 252


 10073      6561725F 
 10073      31345365 
 10074              	.LASF25:
 10075 0a76 646D6163 		.ascii	"dmac_ch\000"
 10075      5F636800 
 10076              	.LASF86:
 10077 0a7e 63686172 		.ascii	"charDisplay\000"
 10077      44697370 
 10077      6C617900 
 10078              	.LASF76:
 10079 0a8a 6E756D62 		.ascii	"numberSign\000"
 10079      65725369 
 10079      676E00
 10080              	.LASF107:
 10081 0a95 4C45445F 		.ascii	"LED_Driver_Gear_WriteString16Seg\000"
 10081      44726976 
 10081      65725F47 
 10081      6561725F 
 10081      57726974 
 10082              	.LASF124:
 10083 0ab6 4C45445F 		.ascii	"LED_Driver_Gear_DMA_Com_DmaInitialize\000"
 10083      44726976 
 10083      65725F47 
 10083      6561725F 
 10083      444D415F 
 10084              	.LASF65:
 10085 0adc 62756641 		.ascii	"bufArray\000"
 10085      72726179 
 10085      00
 10086              	.LASF0:
 10087 0ae5 7369676E 		.ascii	"signed char\000"
 10087      65642063 
 10087      68617200 
 10088              	.LASF138:
 10089 0af1 646D6163 		.ascii	"dmac_ch_struct\000"
 10089      5F63685F 
 10089      73747275 
 10089      637400
 10090              	.LASF85:
 10091 0b00 4C45445F 		.ascii	"LED_Driver_Gear_Write14SegDigitDec\000"
 10091      44726976 
 10091      65725F47 
 10091      6561725F 
 10091      57726974 
 10092              	.LASF3:
 10093 0b23 73686F72 		.ascii	"short unsigned int\000"
 10093      7420756E 
 10093      7369676E 
 10093      65642069 
 10093      6E7400
 10094              	.LASF114:
 10095 0b36 4C45445F 		.ascii	"LED_Driver_Gear_brightnessReg\000"
 10095      44726976 
 10095      65725F47 
 10095      6561725F 
 10095      62726967 
 10096              	.LASF49:
ARM GAS  C:\Users\charl\AppData\Local\Temp\ccxfbC9q.s 			page 253


 10097 0b54 4C45445F 		.ascii	"LED_Driver_Gear_Stop\000"
 10097      44726976 
 10097      65725F47 
 10097      6561725F 
 10097      53746F70 
 10098              	.LASF24:
 10099 0b69 72657365 		.ascii	"reserved\000"
 10099      72766564 
 10099      00
 10100              	.LASF50:
 10101 0b72 4C45445F 		.ascii	"LED_Driver_Gear_PutDecimalPoint\000"
 10101      44726976 
 10101      65725F47 
 10101      6561725F 
 10101      50757444 
 10102              	.LASF9:
 10103 0b92 75696E74 		.ascii	"uint8\000"
 10103      3800
 10104              	.LASF14:
 10105 0b98 646F7562 		.ascii	"double\000"
 10105      6C6500
 10106              	.LASF61:
 10107 0b9f 616C6967 		.ascii	"alignment\000"
 10107      6E6D656E 
 10107      7400
 10108              	.LASF64:
 10109 0ba9 7A65726F 		.ascii	"zeroCount\000"
 10109      436F756E 
 10109      7400
 10110              	.LASF80:
 10111 0bb3 4C45445F 		.ascii	"LED_Driver_Gear_PutChar7Seg\000"
 10111      44726976 
 10111      65725F47 
 10111      6561725F 
 10111      50757443 
 10112              	.LASF73:
 10113 0bcf 76616C4C 		.ascii	"valLow\000"
 10113      6F7700
 10114              	.LASF26:
 10115 0bd6 4C45445F 		.ascii	"LED_Driver_Gear_DmaInit\000"
 10115      44726976 
 10115      65725F47 
 10115      6561725F 
 10115      446D6149 
 10116              	.LASF34:
 10117 0bee 706F7369 		.ascii	"position\000"
 10117      74696F6E 
 10117      00
 10118              	.LASF35:
 10119 0bf7 72656C50 		.ascii	"relPosition\000"
 10119      6F736974 
 10119      696F6E00 
 10120              		.ident	"GCC: (GNU Tools for ARM Embedded Processors) 4.9.3 20150303 (release) [ARM/embedded-4_9-br
