ARM GAS  C:\Users\charl\AppData\Local\Temp\ccOajpvx.s 			page 1


   1              		.syntax unified
   2              		.cpu cortex-m3
   3              		.fpu softvfp
   4              		.eabi_attribute 20, 1
   5              		.eabi_attribute 21, 1
   6              		.eabi_attribute 23, 3
   7              		.eabi_attribute 24, 1
   8              		.eabi_attribute 25, 1
   9              		.eabi_attribute 26, 1
  10              		.eabi_attribute 30, 1
  11              		.eabi_attribute 34, 1
  12              		.eabi_attribute 18, 4
  13              		.thumb
  14              		.file	"main.c"
  15              		.text
  16              	.Ltext0:
  17              		.cfi_sections	.debug_frame
  18              		.global	__aeabi_ui2d
  19              		.global	__aeabi_dmul
  20              		.global	__aeabi_d2uiz
  21              		.section	.text.ParseCAN,"ax",%progbits
  22              		.align	2
  23              		.global	ParseCAN
  24              		.thumb
  25              		.thumb_func
  26              		.type	ParseCAN, %function
  27              	ParseCAN:
  28              	.LFB63:
  29              		.file 1 ".\\main.c"
   1:.\main.c      **** /*******************************************************************************
   2:.\main.c      **** * File Name: main.c  
   3:.\main.c      **** * Version 1.0
   4:.\main.c      **** *
   5:.\main.c      **** * Description:
   6:.\main.c      **** *  REFER TO "PSOC PIN INFO.xlsx" in 2017\Electrical\VTM17Display for info on row/column assignments
   7:.\main.c      **** *   
   8:.\main.c      **** *
   9:.\main.c      **** *******************************************************************************
  10:.\main.c      **** * Copyright 2013, Cypress Semiconductor Corporation.  All rights reserved.
  11:.\main.c      **** * You may use this file only in accordance with the license, terms, conditions, 
  12:.\main.c      **** * disclaimers, and limitations in the end user license agreement accompanying 
  13:.\main.c      **** * the software package with which this file was provided.
  14:.\main.c      **** ********************************************************************************/
  15:.\main.c      **** 
  16:.\main.c      **** #include <device.h>
  17:.\main.c      **** #include <stdio.h>
  18:.\main.c      **** 
  19:.\main.c      **** #define PWM_PULSE_WIDTH_STEP        (10u)
  20:.\main.c      **** #define SWITCH_PRESSED              (0u)
  21:.\main.c      **** #define PWM_MESSAGE_ID              (0x1AAu)
  22:.\main.c      **** #define PWM_MESSAGE_IDE             (0u)    /* Standard message */
  23:.\main.c      **** #define PWM_MESSAGE_IRQ             (0u)    /* No transmit IRQ */
  24:.\main.c      **** #define PWM_MESSAGE_RTR             (0u)    /* No RTR */
  25:.\main.c      **** #define CAN_RX_MAILBOX_0_SHIFT      (1u)
  26:.\main.c      **** #define CAN_RX_MAILBOX_1_SHIFT      (2u)
  27:.\main.c      **** #define DATA_SIZE                   (6u)
  28:.\main.c      **** #define ONE_BYTE_OFFSET             (8u)
ARM GAS  C:\Users\charl\AppData\Local\Temp\ccOajpvx.s 			page 2


  29:.\main.c      **** 
  30:.\main.c      **** #define LeftDisp  0
  31:.\main.c      **** #define RightDisp  5
  32:.\main.c      **** #define BottomDisp  10
  33:.\main.c      **** 
  34:.\main.c      **** #define Shift1 7000
  35:.\main.c      **** #define Shift2 7500
  36:.\main.c      **** #define Shift3 8000
  37:.\main.c      **** #define Shift4 8500
  38:.\main.c      **** #define Shift5 9000
  39:.\main.c      **** 
  40:.\main.c      **** //Global Variables
  41:.\main.c      **** 
  42:.\main.c      **** /* Global variables used to store configuration and data for BASIC CAN mailbox */
  43:.\main.c      **** CAN_DATA_BYTES_MSG dataPWM;
  44:.\main.c      **** CAN_TX_MSG messagePWM;
  45:.\main.c      **** 
  46:.\main.c      **** //Global Variables for storage of data
  47:.\main.c      **** unsigned short rpm;
  48:.\main.c      **** unsigned short tp;
  49:.\main.c      **** unsigned short map;
  50:.\main.c      **** unsigned short at;
  51:.\main.c      **** unsigned short et;
  52:.\main.c      **** unsigned short la1;
  53:.\main.c      **** unsigned short fp;
  54:.\main.c      **** unsigned short op;
  55:.\main.c      **** unsigned short egt1;
  56:.\main.c      **** unsigned short launch;
  57:.\main.c      **** unsigned short ntrl;
  58:.\main.c      **** unsigned short bp;
  59:.\main.c      **** unsigned short bpf1;
  60:.\main.c      **** double batV;
  61:.\main.c      **** unsigned short ldSpd;
  62:.\main.c      **** unsigned short lgSpd;
  63:.\main.c      **** unsigned short rdSpd;
  64:.\main.c      **** unsigned short rgSpd;
  65:.\main.c      **** unsigned short runTime;
  66:.\main.c      **** unsigned short fuel;
  67:.\main.c      **** unsigned short oilTemp;
  68:.\main.c      **** 
  69:.\main.c      **** //Global Variables for message interfacing 
  70:.\main.c      **** uint RXMessage0[8];
  71:.\main.c      **** uint RXMessage1[8];
  72:.\main.c      **** uint RXMessage2[8];
  73:.\main.c      **** uint RXMessage3[8];
  74:.\main.c      **** uint RXMessage4[8];
  75:.\main.c      **** uint RXMessage5[8];
  76:.\main.c      **** uint RXFlag0 = 0;
  77:.\main.c      **** uint RXFlag1 = 0;
  78:.\main.c      **** uint RXFlag2 = 0;
  79:.\main.c      **** uint RXFlag3 = 0;
  80:.\main.c      **** uint RXFlag4 = 0;
  81:.\main.c      **** uint RXFlag5 = 0;
  82:.\main.c      **** uint RXDLC = 0;
  83:.\main.c      **** uint DispUpdate = 0;
  84:.\main.c      **** 
  85:.\main.c      **** typedef enum{
ARM GAS  C:\Users\charl\AppData\Local\Temp\ccOajpvx.s 			page 3


  86:.\main.c      ****     Drive, Diag
  87:.\main.c      **** 
  88:.\main.c      **** }STATE;
  89:.\main.c      **** 
  90:.\main.c      **** STATE state;
  91:.\main.c      **** STATE PrevState;
  92:.\main.c      **** 
  93:.\main.c      **** int FlashCounter = 0;
  94:.\main.c      **** int FlashFreq = 5000;
  95:.\main.c      **** 
  96:.\main.c      **** /* Global variable used to store receive message mailbox number */
  97:.\main.c      **** volatile uint8 receiveMailboxNumber = 0xFFu;
  98:.\main.c      **** 
  99:.\main.c      **** //This function parses the CAN data from Motec into usable and displayable values
 100:.\main.c      **** int ParseCAN()
 101:.\main.c      **** {
  30              		.loc 1 101 0
  31              		.cfi_startproc
  32              		@ args = 0, pretend = 0, frame = 0
  33              		@ frame_needed = 0, uses_anonymous_args = 0
  34 0000 10B5     		push	{r4, lr}
  35              		.cfi_def_cfa_offset 8
  36              		.cfi_offset 4, -8
  37              		.cfi_offset 14, -4
 102:.\main.c      ****     //Message ID 0x6F0
 103:.\main.c      ****     rpm = (RXMessage0[0] << 8 | RXMessage0[1]);
  38              		.loc 1 103 0
  39 0002 774C     		ldr	r4, .L3+24
  40 0004 2268     		ldr	r2, [r4]
  41 0006 6368     		ldr	r3, [r4, #4]
  42 0008 43EA0223 		orr	r3, r3, r2, lsl #8
  43 000c 754A     		ldr	r2, .L3+28
  44 000e 1380     		strh	r3, [r2]	@ movhi
 104:.\main.c      ****     tp = (RXMessage0[2] << 8 | RXMessage0[3])*0.1;
  45              		.loc 1 104 0
  46 0010 A068     		ldr	r0, [r4, #8]
  47 0012 E368     		ldr	r3, [r4, #12]
  48 0014 43EA0020 		orr	r0, r3, r0, lsl #8
  49 0018 FFF7FEFF 		bl	__aeabi_ui2d
  50              	.LVL0:
  51 001c 6AA3     		adr	r3, .L3
  52 001e D3E90023 		ldrd	r2, [r3]
  53 0022 FFF7FEFF 		bl	__aeabi_dmul
  54              	.LVL1:
  55 0026 FFF7FEFF 		bl	__aeabi_d2uiz
  56              	.LVL2:
  57 002a 6F4B     		ldr	r3, .L3+32
  58 002c 1880     		strh	r0, [r3]	@ movhi
 105:.\main.c      ****     map = (RXMessage0[4] << 8 | RXMessage0[5])*0.1;
  59              		.loc 1 105 0
  60 002e 2069     		ldr	r0, [r4, #16]
  61 0030 6369     		ldr	r3, [r4, #20]
  62 0032 43EA0020 		orr	r0, r3, r0, lsl #8
  63 0036 FFF7FEFF 		bl	__aeabi_ui2d
  64              	.LVL3:
  65 003a 63A3     		adr	r3, .L3
  66 003c D3E90023 		ldrd	r2, [r3]
ARM GAS  C:\Users\charl\AppData\Local\Temp\ccOajpvx.s 			page 4


  67 0040 FFF7FEFF 		bl	__aeabi_dmul
  68              	.LVL4:
  69 0044 FFF7FEFF 		bl	__aeabi_d2uiz
  70              	.LVL5:
  71 0048 684B     		ldr	r3, .L3+36
  72 004a 1880     		strh	r0, [r3]	@ movhi
 106:.\main.c      ****     at = (RXMessage0[6] << 8 | RXMessage0[7])*0.1;
  73              		.loc 1 106 0
  74 004c A069     		ldr	r0, [r4, #24]
  75 004e E369     		ldr	r3, [r4, #28]
  76 0050 43EA0020 		orr	r0, r3, r0, lsl #8
  77 0054 FFF7FEFF 		bl	__aeabi_ui2d
  78              	.LVL6:
  79 0058 5BA3     		adr	r3, .L3
  80 005a D3E90023 		ldrd	r2, [r3]
  81 005e FFF7FEFF 		bl	__aeabi_dmul
  82              	.LVL7:
  83 0062 FFF7FEFF 		bl	__aeabi_d2uiz
  84              	.LVL8:
  85 0066 624B     		ldr	r3, .L3+40
  86 0068 1880     		strh	r0, [r3]	@ movhi
 107:.\main.c      ****     //Message ID 0x6F1
 108:.\main.c      ****     et = (RXMessage1[0] << 8 | RXMessage1[1])*0.1;
  87              		.loc 1 108 0
  88 006a 624C     		ldr	r4, .L3+44
  89 006c 2068     		ldr	r0, [r4]
  90 006e 6368     		ldr	r3, [r4, #4]
  91 0070 43EA0020 		orr	r0, r3, r0, lsl #8
  92 0074 FFF7FEFF 		bl	__aeabi_ui2d
  93              	.LVL9:
  94 0078 53A3     		adr	r3, .L3
  95 007a D3E90023 		ldrd	r2, [r3]
  96 007e FFF7FEFF 		bl	__aeabi_dmul
  97              	.LVL10:
  98 0082 FFF7FEFF 		bl	__aeabi_d2uiz
  99              	.LVL11:
 100 0086 5C4B     		ldr	r3, .L3+48
 101 0088 1880     		strh	r0, [r3]	@ movhi
 109:.\main.c      ****     la1 = (RXMessage1[2] << 8 | RXMessage1[3])*0.001;
 102              		.loc 1 109 0
 103 008a A068     		ldr	r0, [r4, #8]
 104 008c E368     		ldr	r3, [r4, #12]
 105 008e 43EA0020 		orr	r0, r3, r0, lsl #8
 106 0092 FFF7FEFF 		bl	__aeabi_ui2d
 107              	.LVL12:
 108 0096 4EA3     		adr	r3, .L3+8
 109 0098 D3E90023 		ldrd	r2, [r3]
 110 009c FFF7FEFF 		bl	__aeabi_dmul
 111              	.LVL13:
 112 00a0 FFF7FEFF 		bl	__aeabi_d2uiz
 113              	.LVL14:
 114 00a4 554B     		ldr	r3, .L3+52
 115 00a6 1880     		strh	r0, [r3]	@ movhi
 110:.\main.c      ****     fp = (RXMessage1[4] << 8 | RXMessage1[5])*0.1;
 116              		.loc 1 110 0
 117 00a8 2069     		ldr	r0, [r4, #16]
 118 00aa 6369     		ldr	r3, [r4, #20]
ARM GAS  C:\Users\charl\AppData\Local\Temp\ccOajpvx.s 			page 5


 119 00ac 43EA0020 		orr	r0, r3, r0, lsl #8
 120 00b0 FFF7FEFF 		bl	__aeabi_ui2d
 121              	.LVL15:
 122 00b4 44A3     		adr	r3, .L3
 123 00b6 D3E90023 		ldrd	r2, [r3]
 124 00ba FFF7FEFF 		bl	__aeabi_dmul
 125              	.LVL16:
 126 00be FFF7FEFF 		bl	__aeabi_d2uiz
 127              	.LVL17:
 128 00c2 4F4B     		ldr	r3, .L3+56
 129 00c4 1880     		strh	r0, [r3]	@ movhi
 111:.\main.c      ****     op = (RXMessage1[6] << 8 | RXMessage1[7])*0.1;
 130              		.loc 1 111 0
 131 00c6 A069     		ldr	r0, [r4, #24]
 132 00c8 E369     		ldr	r3, [r4, #28]
 133 00ca 43EA0020 		orr	r0, r3, r0, lsl #8
 134 00ce FFF7FEFF 		bl	__aeabi_ui2d
 135              	.LVL18:
 136 00d2 3DA3     		adr	r3, .L3
 137 00d4 D3E90023 		ldrd	r2, [r3]
 138 00d8 FFF7FEFF 		bl	__aeabi_dmul
 139              	.LVL19:
 140 00dc FFF7FEFF 		bl	__aeabi_d2uiz
 141              	.LVL20:
 142 00e0 484B     		ldr	r3, .L3+60
 143 00e2 1880     		strh	r0, [r3]	@ movhi
 112:.\main.c      ****     //Message ID 0x6F2
 113:.\main.c      ****     egt1 = RXMessage2[0] << 8 | RXMessage2[1];
 144              		.loc 1 113 0
 145 00e4 484B     		ldr	r3, .L3+64
 146 00e6 1968     		ldr	r1, [r3]
 147 00e8 5A68     		ldr	r2, [r3, #4]
 148 00ea 42EA0122 		orr	r2, r2, r1, lsl #8
 149 00ee 4749     		ldr	r1, .L3+68
 150 00f0 0A80     		strh	r2, [r1]	@ movhi
 114:.\main.c      ****     launch = RXMessage2[2] << 8 | RXMessage2[3];
 151              		.loc 1 114 0
 152 00f2 9968     		ldr	r1, [r3, #8]
 153 00f4 DA68     		ldr	r2, [r3, #12]
 154 00f6 42EA0122 		orr	r2, r2, r1, lsl #8
 155 00fa 4549     		ldr	r1, .L3+72
 156 00fc 0A80     		strh	r2, [r1]	@ movhi
 115:.\main.c      ****     ntrl = RXMessage2[4] << 8 | RXMessage2[5];
 157              		.loc 1 115 0
 158 00fe 1969     		ldr	r1, [r3, #16]
 159 0100 5A69     		ldr	r2, [r3, #20]
 160 0102 42EA0122 		orr	r2, r2, r1, lsl #8
 161 0106 4349     		ldr	r1, .L3+76
 162 0108 0A80     		strh	r2, [r1]	@ movhi
 116:.\main.c      ****     bp = RXMessage2[6] << 8 | RXMessage2[7];
 163              		.loc 1 116 0
 164 010a 9A69     		ldr	r2, [r3, #24]
 165 010c DB69     		ldr	r3, [r3, #28]
 166 010e 43EA0223 		orr	r3, r3, r2, lsl #8
 167 0112 414A     		ldr	r2, .L3+80
 168 0114 1380     		strh	r3, [r2]	@ movhi
 117:.\main.c      ****     //Message ID 0x6F3
ARM GAS  C:\Users\charl\AppData\Local\Temp\ccOajpvx.s 			page 6


 118:.\main.c      ****     bpf1 = RXMessage3[0] << 8 | RXMessage3[1];
 169              		.loc 1 118 0
 170 0116 414C     		ldr	r4, .L3+84
 171 0118 2268     		ldr	r2, [r4]
 172 011a 6368     		ldr	r3, [r4, #4]
 173 011c 43EA0223 		orr	r3, r3, r2, lsl #8
 174 0120 3F4A     		ldr	r2, .L3+88
 175 0122 1380     		strh	r3, [r2]	@ movhi
 119:.\main.c      ****     batV = (double)(RXMessage3[2] << 8 | RXMessage3[3])*0.01;
 176              		.loc 1 119 0
 177 0124 A068     		ldr	r0, [r4, #8]
 178 0126 E368     		ldr	r3, [r4, #12]
 179 0128 43EA0020 		orr	r0, r3, r0, lsl #8
 180 012c FFF7FEFF 		bl	__aeabi_ui2d
 181              	.LVL21:
 182 0130 29A3     		adr	r3, .L3+16
 183 0132 D3E90023 		ldrd	r2, [r3]
 184 0136 FFF7FEFF 		bl	__aeabi_dmul
 185              	.LVL22:
 186 013a 3A4B     		ldr	r3, .L3+92
 187 013c C3E90001 		strd	r0, [r3]
 120:.\main.c      ****     ldSpd = (RXMessage3[4] << 8 | RXMessage3[5])*0.1;
 188              		.loc 1 120 0
 189 0140 2069     		ldr	r0, [r4, #16]
 190 0142 6369     		ldr	r3, [r4, #20]
 191 0144 43EA0020 		orr	r0, r3, r0, lsl #8
 192 0148 FFF7FEFF 		bl	__aeabi_ui2d
 193              	.LVL23:
 194 014c 1EA3     		adr	r3, .L3
 195 014e D3E90023 		ldrd	r2, [r3]
 196 0152 FFF7FEFF 		bl	__aeabi_dmul
 197              	.LVL24:
 198 0156 FFF7FEFF 		bl	__aeabi_d2uiz
 199              	.LVL25:
 200 015a 334B     		ldr	r3, .L3+96
 201 015c 1880     		strh	r0, [r3]	@ movhi
 121:.\main.c      ****     lgSpd = (RXMessage3[6] << 8 | RXMessage3[7])*0.1;     
 202              		.loc 1 121 0
 203 015e A069     		ldr	r0, [r4, #24]
 204 0160 E369     		ldr	r3, [r4, #28]
 205 0162 43EA0020 		orr	r0, r3, r0, lsl #8
 206 0166 FFF7FEFF 		bl	__aeabi_ui2d
 207              	.LVL26:
 208 016a 17A3     		adr	r3, .L3
 209 016c D3E90023 		ldrd	r2, [r3]
 210 0170 FFF7FEFF 		bl	__aeabi_dmul
 211              	.LVL27:
 212 0174 FFF7FEFF 		bl	__aeabi_d2uiz
 213              	.LVL28:
 214 0178 2C4B     		ldr	r3, .L3+100
 215 017a 1880     		strh	r0, [r3]	@ movhi
 122:.\main.c      ****     //Message ID 0x6F4
 123:.\main.c      ****     rdSpd = (RXMessage4[0] << 8 | RXMessage4[1]);
 216              		.loc 1 123 0
 217 017c 2C4B     		ldr	r3, .L3+104
 218 017e 1968     		ldr	r1, [r3]
 219 0180 5A68     		ldr	r2, [r3, #4]
ARM GAS  C:\Users\charl\AppData\Local\Temp\ccOajpvx.s 			page 7


 220 0182 42EA0122 		orr	r2, r2, r1, lsl #8
 221 0186 2B49     		ldr	r1, .L3+108
 222 0188 0A80     		strh	r2, [r1]	@ movhi
 124:.\main.c      ****     rgSpd = (RXMessage4[2] << 8 | RXMessage4[3]);
 223              		.loc 1 124 0
 224 018a 9968     		ldr	r1, [r3, #8]
 225 018c DA68     		ldr	r2, [r3, #12]
 226 018e 42EA0122 		orr	r2, r2, r1, lsl #8
 227 0192 2949     		ldr	r1, .L3+112
 228 0194 0A80     		strh	r2, [r1]	@ movhi
 125:.\main.c      ****     runTime = (RXMessage4[4] << 8 | RXMessage4[5]);
 229              		.loc 1 125 0
 230 0196 1969     		ldr	r1, [r3, #16]
 231 0198 5A69     		ldr	r2, [r3, #20]
 232 019a 42EA0122 		orr	r2, r2, r1, lsl #8
 233 019e 2749     		ldr	r1, .L3+116
 234 01a0 0A80     		strh	r2, [r1]	@ movhi
 126:.\main.c      ****     fuel = (RXMessage4[6] << 8| RXMessage4[7]);
 235              		.loc 1 126 0
 236 01a2 9A69     		ldr	r2, [r3, #24]
 237 01a4 DB69     		ldr	r3, [r3, #28]
 238 01a6 43EA0223 		orr	r3, r3, r2, lsl #8
 239 01aa 254A     		ldr	r2, .L3+120
 240 01ac 1380     		strh	r3, [r2]	@ movhi
 127:.\main.c      ****     //Message ID 0x6F5
 128:.\main.c      ****     oilTemp = (RXMessage5[0] << 8 | RXMessage5[1]);
 241              		.loc 1 128 0
 242 01ae 254A     		ldr	r2, .L3+124
 243 01b0 1168     		ldr	r1, [r2]
 244 01b2 5368     		ldr	r3, [r2, #4]
 245 01b4 43EA0123 		orr	r3, r3, r1, lsl #8
 246 01b8 234A     		ldr	r2, .L3+128
 247 01ba 1380     		strh	r3, [r2]	@ movhi
 129:.\main.c      ****     DispUpdate = 1;
 248              		.loc 1 129 0
 249 01bc 0122     		movs	r2, #1
 250 01be 234B     		ldr	r3, .L3+132
 251 01c0 1A60     		str	r2, [r3]
 130:.\main.c      ****     
 131:.\main.c      ****     return 0;
 132:.\main.c      **** }
 252              		.loc 1 132 0
 253 01c2 0020     		movs	r0, #0
 254 01c4 10BD     		pop	{r4, pc}
 255              	.L4:
 256 01c6 00BF     		.align	3
 257              	.L3:
 258 01c8 9A999999 		.word	-1717986918
 259 01cc 9999B93F 		.word	1069128089
 260 01d0 FCA9F1D2 		.word	-755914244
 261 01d4 4D62503F 		.word	1062232653
 262 01d8 7B14AE47 		.word	1202590843
 263 01dc E17A843F 		.word	1065646817
 264 01e0 00000000 		.word	RXMessage0
 265 01e4 00000000 		.word	rpm
 266 01e8 00000000 		.word	tp
 267 01ec 00000000 		.word	map
ARM GAS  C:\Users\charl\AppData\Local\Temp\ccOajpvx.s 			page 8


 268 01f0 00000000 		.word	at
 269 01f4 00000000 		.word	RXMessage1
 270 01f8 00000000 		.word	et
 271 01fc 00000000 		.word	la1
 272 0200 00000000 		.word	fp
 273 0204 00000000 		.word	op
 274 0208 00000000 		.word	RXMessage2
 275 020c 00000000 		.word	egt1
 276 0210 00000000 		.word	launch
 277 0214 00000000 		.word	ntrl
 278 0218 00000000 		.word	bp
 279 021c 00000000 		.word	RXMessage3
 280 0220 00000000 		.word	bpf1
 281 0224 00000000 		.word	batV
 282 0228 00000000 		.word	ldSpd
 283 022c 00000000 		.word	lgSpd
 284 0230 00000000 		.word	RXMessage4
 285 0234 00000000 		.word	rdSpd
 286 0238 00000000 		.word	rgSpd
 287 023c 00000000 		.word	runTime
 288 0240 00000000 		.word	fuel
 289 0244 00000000 		.word	RXMessage5
 290 0248 00000000 		.word	oilTemp
 291 024c 00000000 		.word	.LANCHOR0
 292              		.cfi_endproc
 293              	.LFE63:
 294              		.size	ParseCAN, .-ParseCAN
 295              		.section	.text.Brightness,"ax",%progbits
 296              		.align	2
 297              		.global	Brightness
 298              		.thumb
 299              		.thumb_func
 300              		.type	Brightness, %function
 301              	Brightness:
 302              	.LFB64:
 133:.\main.c      **** 
 134:.\main.c      **** //I'd like to change this function to not include the shift lights so that they don't flash, or mak
 135:.\main.c      **** //This function changes the brightness of the display
 136:.\main.c      **** //int TargBrightness -> This is the value for the brightness of the shift lights, 4 digit displays
 137:.\main.c      **** //int GearBrightness -> This is the value for the brightness of the gear indicator
 138:.\main.c      **** int Brightness(int TargBrightness, int GearBrightness)
 139:.\main.c      **** {
 303              		.loc 1 139 0
 304              		.cfi_startproc
 305              		@ args = 0, pretend = 0, frame = 0
 306              		@ frame_needed = 0, uses_anonymous_args = 0
 307              	.LVL29:
 308 0000 70B5     		push	{r4, r5, r6, lr}
 309              		.cfi_def_cfa_offset 16
 310              		.cfi_offset 4, -16
 311              		.cfi_offset 5, -12
 312              		.cfi_offset 6, -8
 313              		.cfi_offset 14, -4
 314 0002 0546     		mov	r5, r0
 315 0004 0E46     		mov	r6, r1
 316              	.LVL30:
 140:.\main.c      ****     int i = 0;
ARM GAS  C:\Users\charl\AppData\Local\Temp\ccOajpvx.s 			page 9


 141:.\main.c      ****     for(i = 0;i < 13; i++)
 317              		.loc 1 141 0
 318 0006 0024     		movs	r4, #0
 319 0008 04E0     		b	.L6
 320              	.LVL31:
 321              	.L7:
 142:.\main.c      ****     {
 143:.\main.c      ****     LED_Driver_LRBWS_SetBrightness(TargBrightness,i);
 322              		.loc 1 143 0 discriminator 3
 323 000a E8B2     		uxtb	r0, r5
 324 000c E1B2     		uxtb	r1, r4
 325 000e FFF7FEFF 		bl	LED_Driver_LRBWS_SetBrightness
 326              	.LVL32:
 141:.\main.c      ****     {
 327              		.loc 1 141 0 discriminator 3
 328 0012 0134     		adds	r4, r4, #1
 329              	.LVL33:
 330              	.L6:
 141:.\main.c      ****     {
 331              		.loc 1 141 0 is_stmt 0 discriminator 1
 332 0014 0C2C     		cmp	r4, #12
 333 0016 F8DD     		ble	.L7
 144:.\main.c      ****     }
 145:.\main.c      ****     LED_Driver_Gear_SetBrightness(GearBrightness,0);
 334              		.loc 1 145 0 is_stmt 1
 335 0018 F0B2     		uxtb	r0, r6
 336 001a 0021     		movs	r1, #0
 337 001c FFF7FEFF 		bl	LED_Driver_Gear_SetBrightness
 338              	.LVL34:
 146:.\main.c      ****     return 0;
 147:.\main.c      **** }
 339              		.loc 1 147 0
 340 0020 0020     		movs	r0, #0
 341 0022 70BD     		pop	{r4, r5, r6, pc}
 342              		.cfi_endproc
 343              	.LFE64:
 344              		.size	Brightness, .-Brightness
 345              		.global	__aeabi_d2iz
 346              		.section	.text.DriveUpdate,"ax",%progbits
 347              		.align	2
 348              		.global	DriveUpdate
 349              		.thumb
 350              		.thumb_func
 351              		.type	DriveUpdate, %function
 352              	DriveUpdate:
 353              	.LFB65:
 148:.\main.c      **** 
 149:.\main.c      **** //This function updates the display in the driving state
 150:.\main.c      **** int DriveUpdate(int Gear)
 151:.\main.c      **** {
 354              		.loc 1 151 0
 355              		.cfi_startproc
 356              		@ args = 0, pretend = 0, frame = 0
 357              		@ frame_needed = 0, uses_anonymous_args = 0
 358              	.LVL35:
 359 0000 10B5     		push	{r4, lr}
 360              		.cfi_def_cfa_offset 8
ARM GAS  C:\Users\charl\AppData\Local\Temp\ccOajpvx.s 			page 10


 361              		.cfi_offset 4, -8
 362              		.cfi_offset 14, -4
 363 0002 0446     		mov	r4, r0
 152:.\main.c      ****     //Display the selected values
 153:.\main.c      ****     if(rpm < 1500){ //Display Throttle Postion while engine off
 364              		.loc 1 153 0
 365 0004 184B     		ldr	r3, .L13
 366 0006 1888     		ldrh	r0, [r3]
 367              	.LVL36:
 368 0008 40F2DB53 		movw	r3, #1499
 369 000c 9842     		cmp	r0, r3
 370 000e 07D8     		bhi	.L10
 154:.\main.c      ****     LED_Driver_LRBWS_Write7SegNumberDec(tp,LeftDisp,4,LED_Driver_LRBWS_RIGHT_ALIGN);
 371              		.loc 1 154 0
 372 0010 164B     		ldr	r3, .L13+4
 373 0012 1888     		ldrh	r0, [r3]
 374 0014 0021     		movs	r1, #0
 375 0016 0422     		movs	r2, #4
 376 0018 0B46     		mov	r3, r1
 377 001a FFF7FEFF 		bl	LED_Driver_LRBWS_Write7SegNumberDec
 378              	.LVL37:
 379 001e 04E0     		b	.L11
 380              	.L10:
 155:.\main.c      ****     }
 156:.\main.c      ****     else{ //Display RPM while running
 157:.\main.c      ****     LED_Driver_LRBWS_Write7SegNumberDec(rpm,LeftDisp,4,LED_Driver_LRBWS_RIGHT_ALIGN);            
 381              		.loc 1 157 0
 382 0020 0021     		movs	r1, #0
 383 0022 0422     		movs	r2, #4
 384 0024 0B46     		mov	r3, r1
 385 0026 FFF7FEFF 		bl	LED_Driver_LRBWS_Write7SegNumberDec
 386              	.LVL38:
 387              	.L11:
 158:.\main.c      ****     }
 159:.\main.c      ****     LED_Driver_LRBWS_Write7SegNumberDec(100*batV,RightDisp,4,LED_Driver_LRBWS_RIGHT_ALIGN);
 388              		.loc 1 159 0
 389 002a 114B     		ldr	r3, .L13+8
 390 002c D3E90001 		ldrd	r0, [r3]
 391 0030 0022     		movs	r2, #0
 392 0032 104B     		ldr	r3, .L13+12
 393 0034 FFF7FEFF 		bl	__aeabi_dmul
 394              	.LVL39:
 395 0038 FFF7FEFF 		bl	__aeabi_d2iz
 396              	.LVL40:
 397 003c 0521     		movs	r1, #5
 398 003e 0422     		movs	r2, #4
 399 0040 0023     		movs	r3, #0
 400 0042 FFF7FEFF 		bl	LED_Driver_LRBWS_Write7SegNumberDec
 401              	.LVL41:
 160:.\main.c      ****     LED_Driver_LRBWS_SetRC(15,1);//Set DP on position 6 of display
 402              		.loc 1 160 0
 403 0046 0F20     		movs	r0, #15
 404 0048 0121     		movs	r1, #1
 405 004a FFF7FEFF 		bl	LED_Driver_LRBWS_SetRC
 406              	.LVL42:
 161:.\main.c      ****     LED_Driver_LRBWS_Write7SegNumberDec(et,BottomDisp,4,LED_Driver_LRBWS_RIGHT_ALIGN); 
 407              		.loc 1 161 0
ARM GAS  C:\Users\charl\AppData\Local\Temp\ccOajpvx.s 			page 11


 408 004e 0A4B     		ldr	r3, .L13+16
 409 0050 1888     		ldrh	r0, [r3]
 410 0052 0A21     		movs	r1, #10
 411 0054 0422     		movs	r2, #4
 412 0056 0023     		movs	r3, #0
 413 0058 FFF7FEFF 		bl	LED_Driver_LRBWS_Write7SegNumberDec
 414              	.LVL43:
 162:.\main.c      ****     LED_Driver_Gear_Write7SegDigitDec(Gear,0);
 415              		.loc 1 162 0
 416 005c E0B2     		uxtb	r0, r4
 417 005e 0021     		movs	r1, #0
 418 0060 FFF7FEFF 		bl	LED_Driver_Gear_Write7SegDigitDec
 419              	.LVL44:
 163:.\main.c      ****                
 164:.\main.c      **** return 0;
 165:.\main.c      **** }
 420              		.loc 1 165 0
 421 0064 0020     		movs	r0, #0
 422 0066 10BD     		pop	{r4, pc}
 423              	.LVL45:
 424              	.L14:
 425              		.align	2
 426              	.L13:
 427 0068 00000000 		.word	rpm
 428 006c 00000000 		.word	tp
 429 0070 00000000 		.word	batV
 430 0074 00005940 		.word	1079574528
 431 0078 00000000 		.word	et
 432              		.cfi_endproc
 433              	.LFE65:
 434              		.size	DriveUpdate, .-DriveUpdate
 435              		.section	.text.DiagUpdate,"ax",%progbits
 436              		.align	2
 437              		.global	DiagUpdate
 438              		.thumb
 439              		.thumb_func
 440              		.type	DiagUpdate, %function
 441              	DiagUpdate:
 442              	.LFB66:
 166:.\main.c      **** 
 167:.\main.c      **** //This function updates the display in the diagnostic state.
 168:.\main.c      **** int DiagUpdate(int Gear)
 169:.\main.c      **** {
 443              		.loc 1 169 0
 444              		.cfi_startproc
 445              		@ args = 0, pretend = 0, frame = 0
 446              		@ frame_needed = 0, uses_anonymous_args = 0
 447              	.LVL46:
 448 0000 10B5     		push	{r4, lr}
 449              		.cfi_def_cfa_offset 8
 450              		.cfi_offset 4, -8
 451              		.cfi_offset 14, -4
 452 0002 0446     		mov	r4, r0
 170:.\main.c      ****      //Display the selected values
 171:.\main.c      ****     LED_Driver_LRBWS_Write7SegNumberDec(rpm,LeftDisp,4,LED_Driver_LRBWS_RIGHT_ALIGN);
 453              		.loc 1 171 0
 454 0004 124B     		ldr	r3, .L17
ARM GAS  C:\Users\charl\AppData\Local\Temp\ccOajpvx.s 			page 12


 455 0006 1888     		ldrh	r0, [r3]
 456              	.LVL47:
 457 0008 0021     		movs	r1, #0
 458 000a 0422     		movs	r2, #4
 459 000c 0B46     		mov	r3, r1
 460 000e FFF7FEFF 		bl	LED_Driver_LRBWS_Write7SegNumberDec
 461              	.LVL48:
 172:.\main.c      ****     LED_Driver_LRBWS_Write7SegNumberDec(100*batV,RightDisp,4,LED_Driver_LRBWS_RIGHT_ALIGN);
 462              		.loc 1 172 0
 463 0012 104B     		ldr	r3, .L17+4
 464 0014 D3E90001 		ldrd	r0, [r3]
 465 0018 0022     		movs	r2, #0
 466 001a 0F4B     		ldr	r3, .L17+8
 467 001c FFF7FEFF 		bl	__aeabi_dmul
 468              	.LVL49:
 469 0020 FFF7FEFF 		bl	__aeabi_d2iz
 470              	.LVL50:
 471 0024 0521     		movs	r1, #5
 472 0026 0422     		movs	r2, #4
 473 0028 0023     		movs	r3, #0
 474 002a FFF7FEFF 		bl	LED_Driver_LRBWS_Write7SegNumberDec
 475              	.LVL51:
 173:.\main.c      ****     LED_Driver_LRBWS_SetRC(15,1);//Set DP on position 6 of display
 476              		.loc 1 173 0
 477 002e 0F20     		movs	r0, #15
 478 0030 0121     		movs	r1, #1
 479 0032 FFF7FEFF 		bl	LED_Driver_LRBWS_SetRC
 480              	.LVL52:
 174:.\main.c      ****     LED_Driver_LRBWS_Write7SegNumberDec(8888,BottomDisp,4,LED_Driver_LRBWS_RIGHT_ALIGN);  
 481              		.loc 1 174 0
 482 0036 42F2B820 		movw	r0, #8888
 483 003a 0A21     		movs	r1, #10
 484 003c 0422     		movs	r2, #4
 485 003e 0023     		movs	r3, #0
 486 0040 FFF7FEFF 		bl	LED_Driver_LRBWS_Write7SegNumberDec
 487              	.LVL53:
 175:.\main.c      ****     LED_Driver_Gear_Write7SegDigitDec(Gear,0);
 488              		.loc 1 175 0
 489 0044 E0B2     		uxtb	r0, r4
 490 0046 0021     		movs	r1, #0
 491 0048 FFF7FEFF 		bl	LED_Driver_Gear_Write7SegDigitDec
 492              	.LVL54:
 176:.\main.c      **** return 0;
 177:.\main.c      **** }
 493              		.loc 1 177 0
 494 004c 0020     		movs	r0, #0
 495 004e 10BD     		pop	{r4, pc}
 496              	.LVL55:
 497              	.L18:
 498              		.align	2
 499              	.L17:
 500 0050 00000000 		.word	rpm
 501 0054 00000000 		.word	batV
 502 0058 00005940 		.word	1079574528
 503              		.cfi_endproc
 504              	.LFE66:
 505              		.size	DiagUpdate, .-DiagUpdate
ARM GAS  C:\Users\charl\AppData\Local\Temp\ccOajpvx.s 			page 13


 506              		.section	.text.SwitchButtonCheck,"ax",%progbits
 507              		.align	2
 508              		.global	SwitchButtonCheck
 509              		.thumb
 510              		.thumb_func
 511              		.type	SwitchButtonCheck, %function
 512              	SwitchButtonCheck:
 513              	.LFB67:
 178:.\main.c      **** 
 179:.\main.c      **** 
 180:.\main.c      **** //This function performs that state switch, called when an external button is pressed
 181:.\main.c      **** int SwitchButtonCheck(int StillPressed)
 182:.\main.c      **** {
 514              		.loc 1 182 0
 515              		.cfi_startproc
 516              		@ args = 0, pretend = 0, frame = 0
 517              		@ frame_needed = 0, uses_anonymous_args = 0
 518              	.LVL56:
 519 0000 10B5     		push	{r4, lr}
 520              		.cfi_def_cfa_offset 8
 521              		.cfi_offset 4, -8
 522              		.cfi_offset 14, -4
 523 0002 0446     		mov	r4, r0
 524              	.LVL57:
 183:.\main.c      ****     int ButtonVal = 0;
 184:.\main.c      ****     ButtonVal = Page_Button_Read();
 525              		.loc 1 184 0
 526 0004 FFF7FEFF 		bl	Page_Button_Read
 527              	.LVL58:
 185:.\main.c      **** //Switch State to the other state
 186:.\main.c      **** if(StillPressed == 0 && ButtonVal == 1) //Only switch state first time through the loop, prevent co
 528              		.loc 1 186 0
 529 0008 9CB9     		cbnz	r4, .L20
 530              		.loc 1 186 0 is_stmt 0 discriminator 1
 531 000a 0128     		cmp	r0, #1
 532 000c 11D1     		bne	.L20
 187:.\main.c      **** {
 188:.\main.c      ****     if(PrevState == Drive)
 533              		.loc 1 188 0 is_stmt 1
 534 000e 0C4B     		ldr	r3, .L26
 535 0010 1B78     		ldrb	r3, [r3]	@ zero_extendqisi2
 536 0012 1BB9     		cbnz	r3, .L21
 189:.\main.c      ****     {
 190:.\main.c      ****         state = Diag;
 537              		.loc 1 190 0
 538 0014 0122     		movs	r2, #1
 539 0016 0B4B     		ldr	r3, .L26+4
 540 0018 1A70     		strb	r2, [r3]
 541 001a 04E0     		b	.L22
 542              	.L21:
 191:.\main.c      ****     }
 192:.\main.c      ****     else if(PrevState == Diag)
 543              		.loc 1 192 0
 544 001c 012B     		cmp	r3, #1
 545 001e 02D1     		bne	.L22
 193:.\main.c      ****     {
 194:.\main.c      ****         state = Drive;
ARM GAS  C:\Users\charl\AppData\Local\Temp\ccOajpvx.s 			page 14


 546              		.loc 1 194 0
 547 0020 0022     		movs	r2, #0
 548 0022 084B     		ldr	r3, .L26+4
 549 0024 1A70     		strb	r2, [r3]
 550              	.L22:
 195:.\main.c      ****     }
 196:.\main.c      ****     PrevState = state; //Set the "prevstate" variable to the current state now that it has changed
 551              		.loc 1 196 0
 552 0026 074B     		ldr	r3, .L26+4
 553 0028 1A78     		ldrb	r2, [r3]	@ zero_extendqisi2
 554 002a 054B     		ldr	r3, .L26
 555 002c 1A70     		strb	r2, [r3]
 556              	.LVL59:
 197:.\main.c      ****     StillPressed = 1;
 557              		.loc 1 197 0
 558 002e 0124     		movs	r4, #1
 559 0030 03E0     		b	.L23
 560              	.LVL60:
 561              	.L20:
 198:.\main.c      **** }
 199:.\main.c      **** else if(StillPressed == 1 && ButtonVal == 0)
 562              		.loc 1 199 0
 563 0032 012C     		cmp	r4, #1
 564 0034 01D1     		bne	.L23
 565              		.loc 1 199 0 is_stmt 0 discriminator 1
 566 0036 00B9     		cbnz	r0, .L23
 200:.\main.c      ****     StillPressed = 0;
 567              		.loc 1 200 0 is_stmt 1
 568 0038 0024     		movs	r4, #0
 569              	.LVL61:
 570              	.L23:
 201:.\main.c      **** return StillPressed;
 202:.\main.c      **** }
 571              		.loc 1 202 0
 572 003a 2046     		mov	r0, r4
 573              	.LVL62:
 574 003c 10BD     		pop	{r4, pc}
 575              	.LVL63:
 576              	.L27:
 577 003e 00BF     		.align	2
 578              	.L26:
 579 0040 00000000 		.word	PrevState
 580 0044 00000000 		.word	state
 581              		.cfi_endproc
 582              	.LFE67:
 583              		.size	SwitchButtonCheck, .-SwitchButtonCheck
 584              		.global	__aeabi_i2f
 585              		.global	__aeabi_fdiv
 586              		.global	__aeabi_fcmpgt
 587              		.global	__aeabi_fcmplt
 588              		.section	.text.GearCalculation,"ax",%progbits
 589              		.align	2
 590              		.global	GearCalculation
 591              		.thumb
 592              		.thumb_func
 593              		.type	GearCalculation, %function
 594              	GearCalculation:
ARM GAS  C:\Users\charl\AppData\Local\Temp\ccOajpvx.s 			page 15


 595              	.LFB68:
 203:.\main.c      **** 
 204:.\main.c      **** int GearCalculation()
 205:.\main.c      **** {
 596              		.loc 1 205 0
 597              		.cfi_startproc
 598              		@ args = 0, pretend = 0, frame = 0
 599              		@ frame_needed = 0, uses_anonymous_args = 0
 600 0000 10B5     		push	{r4, lr}
 601              		.cfi_def_cfa_offset 8
 602              		.cfi_offset 4, -8
 603              		.cfi_offset 14, -4
 604              	.LVL64:
 206:.\main.c      **** //Gear Calculation
 207:.\main.c      **** //Convert Wheel speed to wheel RPM
 208:.\main.c      **** int Gear = 0;
 209:.\main.c      **** float Red1 = 18.6955;
 210:.\main.c      **** float Red2 = 13.4048;
 211:.\main.c      **** float Red3 = 10.1561;
 212:.\main.c      **** float Red4 = 8.1218;
 213:.\main.c      **** float Red5 = 6.4974;
 214:.\main.c      **** 
 215:.\main.c      **** float ToleranceHighGear =  1;
 216:.\main.c      **** float ToleranceLowGear = 2.25;
 217:.\main.c      ****  
 218:.\main.c      **** float TireD = 18;
 219:.\main.c      **** float TireC = TireD*3.14159;
 220:.\main.c      **** float TireMPR = TireC/(5280*12);
 221:.\main.c      **** 
 222:.\main.c      **** float AvgRWhlSpd = (ldSpd + rdSpd)/2;
 605              		.loc 1 222 0
 606 0002 294B     		ldr	r3, .L52
 607 0004 1888     		ldrh	r0, [r3]
 608 0006 294B     		ldr	r3, .L52+4
 609 0008 1B88     		ldrh	r3, [r3]
 610 000a 1844     		add	r0, r0, r3
 611 000c 4010     		asrs	r0, r0, #1
 612 000e FFF7FEFF 		bl	__aeabi_i2f
 613              	.LVL65:
 223:.\main.c      **** 
 224:.\main.c      **** float wheelRPM = AvgRWhlSpd/(60*TireMPR);
 614              		.loc 1 224 0
 615 0012 2749     		ldr	r1, .L52+8
 616 0014 FFF7FEFF 		bl	__aeabi_fdiv
 617              	.LVL66:
 618 0018 0446     		mov	r4, r0
 619              	.LVL67:
 225:.\main.c      **** float CalcRed = 0;
 226:.\main.c      **** 
 227:.\main.c      **** CalcRed = rpm/wheelRPM;
 620              		.loc 1 227 0
 621 001a 264B     		ldr	r3, .L52+12
 622 001c 1888     		ldrh	r0, [r3]
 623              	.LVL68:
 624 001e FFF7FEFF 		bl	__aeabi_i2f
 625              	.LVL69:
 626 0022 2146     		mov	r1, r4
ARM GAS  C:\Users\charl\AppData\Local\Temp\ccOajpvx.s 			page 16


 627 0024 FFF7FEFF 		bl	__aeabi_fdiv
 628              	.LVL70:
 629 0028 0446     		mov	r4, r0
 630              	.LVL71:
 228:.\main.c      **** 
 229:.\main.c      **** //Calculate the Gear
 230:.\main.c      **** if(Red1-ToleranceLowGear < CalcRed && Red1+ToleranceLowGear > CalcRed)
 631              		.loc 1 230 0
 632 002a 2349     		ldr	r1, .L52+16
 633 002c FFF7FEFF 		bl	__aeabi_fcmpgt
 634              	.LVL72:
 635 0030 20B1     		cbz	r0, .L29
 636              		.loc 1 230 0 is_stmt 0 discriminator 1
 637 0032 2046     		mov	r0, r4
 638 0034 2149     		ldr	r1, .L52+20
 639 0036 FFF7FEFF 		bl	__aeabi_fcmplt
 640              	.LVL73:
 641 003a 40BB     		cbnz	r0, .L39
 642              	.L29:
 231:.\main.c      ****     Gear = 1;
 232:.\main.c      **** else if(Red2-ToleranceLowGear < CalcRed && Red2+ToleranceLowGear > CalcRed)
 643              		.loc 1 232 0 is_stmt 1
 644 003c 2046     		mov	r0, r4
 645 003e 2049     		ldr	r1, .L52+24
 646 0040 FFF7FEFF 		bl	__aeabi_fcmpgt
 647              	.LVL74:
 648 0044 20B1     		cbz	r0, .L32
 649              		.loc 1 232 0 is_stmt 0 discriminator 1
 650 0046 2046     		mov	r0, r4
 651 0048 1E49     		ldr	r1, .L52+28
 652 004a FFF7FEFF 		bl	__aeabi_fcmplt
 653              	.LVL75:
 654 004e 00BB     		cbnz	r0, .L40
 655              	.L32:
 233:.\main.c      ****     Gear = 2;
 234:.\main.c      **** else if(Red3-ToleranceHighGear < CalcRed && Red3+ToleranceHighGear > CalcRed)
 656              		.loc 1 234 0 is_stmt 1
 657 0050 2046     		mov	r0, r4
 658 0052 1D49     		ldr	r1, .L52+32
 659 0054 FFF7FEFF 		bl	__aeabi_fcmpgt
 660              	.LVL76:
 661 0058 20B1     		cbz	r0, .L34
 662              		.loc 1 234 0 is_stmt 0 discriminator 1
 663 005a 2046     		mov	r0, r4
 664 005c 1B49     		ldr	r1, .L52+36
 665 005e FFF7FEFF 		bl	__aeabi_fcmplt
 666              	.LVL77:
 667 0062 C0B9     		cbnz	r0, .L41
 668              	.L34:
 235:.\main.c      ****     Gear = 3;
 236:.\main.c      **** else if(Red4-ToleranceHighGear < CalcRed && Red4+ToleranceHighGear > CalcRed)
 669              		.loc 1 236 0 is_stmt 1
 670 0064 2046     		mov	r0, r4
 671 0066 1A49     		ldr	r1, .L52+40
 672 0068 FFF7FEFF 		bl	__aeabi_fcmpgt
 673              	.LVL78:
 674 006c 20B1     		cbz	r0, .L36
ARM GAS  C:\Users\charl\AppData\Local\Temp\ccOajpvx.s 			page 17


 675              		.loc 1 236 0 is_stmt 0 discriminator 1
 676 006e 2046     		mov	r0, r4
 677 0070 1849     		ldr	r1, .L52+44
 678 0072 FFF7FEFF 		bl	__aeabi_fcmplt
 679              	.LVL79:
 680 0076 80B9     		cbnz	r0, .L42
 681              	.L36:
 237:.\main.c      ****     Gear = 4;
 238:.\main.c      **** else if(Red5-ToleranceHighGear < CalcRed && Red5+ToleranceHighGear > CalcRed)
 682              		.loc 1 238 0 is_stmt 1
 683 0078 2046     		mov	r0, r4
 684 007a 1749     		ldr	r1, .L52+48
 685 007c FFF7FEFF 		bl	__aeabi_fcmpgt
 686              	.LVL80:
 687 0080 68B1     		cbz	r0, .L50
 688              		.loc 1 238 0 is_stmt 0 discriminator 1
 689 0082 2046     		mov	r0, r4
 690 0084 1549     		ldr	r1, .L52+52
 691 0086 FFF7FEFF 		bl	__aeabi_fcmplt
 692              	.LVL81:
 693 008a 50B9     		cbnz	r0, .L44
 694 008c 10BD     		pop	{r4, pc}
 695              	.LVL82:
 696              	.L39:
 231:.\main.c      **** else if(Red2-ToleranceLowGear < CalcRed && Red2+ToleranceLowGear > CalcRed)
 697              		.loc 1 231 0 is_stmt 1
 698 008e 0120     		movs	r0, #1
 699 0090 10BD     		pop	{r4, pc}
 700              	.LVL83:
 701              	.L40:
 233:.\main.c      **** else if(Red3-ToleranceHighGear < CalcRed && Red3+ToleranceHighGear > CalcRed)
 702              		.loc 1 233 0
 703 0092 0220     		movs	r0, #2
 704 0094 10BD     		pop	{r4, pc}
 705              	.LVL84:
 706              	.L41:
 235:.\main.c      **** else if(Red4-ToleranceHighGear < CalcRed && Red4+ToleranceHighGear > CalcRed)
 707              		.loc 1 235 0
 708 0096 0320     		movs	r0, #3
 709 0098 10BD     		pop	{r4, pc}
 710              	.LVL85:
 711              	.L42:
 237:.\main.c      **** else if(Red5-ToleranceHighGear < CalcRed && Red5+ToleranceHighGear > CalcRed)
 712              		.loc 1 237 0
 713 009a 0420     		movs	r0, #4
 714 009c 10BD     		pop	{r4, pc}
 715              	.LVL86:
 716              	.L50:
 239:.\main.c      ****     Gear = 5;
 240:.\main.c      **** else
 241:.\main.c      ****     Gear = 0;
 717              		.loc 1 241 0
 718 009e 0020     		movs	r0, #0
 719 00a0 10BD     		pop	{r4, pc}
 720              	.LVL87:
 721              	.L44:
 239:.\main.c      ****     Gear = 5;
ARM GAS  C:\Users\charl\AppData\Local\Temp\ccOajpvx.s 			page 18


 722              		.loc 1 239 0
 723 00a2 0520     		movs	r0, #5
 724              	.LVL88:
 242:.\main.c      ****     
 243:.\main.c      **** return Gear;
 244:.\main.c      **** }
 725              		.loc 1 244 0
 726 00a4 10BD     		pop	{r4, pc}
 727              	.LVL89:
 728              	.L53:
 729 00a6 00BF     		.align	2
 730              	.L52:
 731 00a8 00000000 		.word	ldSpd
 732 00ac 00000000 		.word	rdSpd
 733 00b0 10575B3D 		.word	1029396240
 734 00b4 00000000 		.word	rpm
 735 00b8 62908341 		.word	1099141218
 736 00bc 6290A741 		.word	1101500514
 737 00c0 107A3241 		.word	1093827088
 738 00c4 107A7A41 		.word	1098545680
 739 00c8 637F1241 		.word	1091731299
 740 00cc 637F3241 		.word	1093828451
 741 00d0 CAE5E340 		.word	1088677322
 742 00d4 E5F21141 		.word	1091695333
 743 00d8 B3EAAF40 		.word	1085270707
 744 00dc B3EAEF40 		.word	1089465011
 745              		.cfi_endproc
 746              	.LFE68:
 747              		.size	GearCalculation, .-GearCalculation
 748              		.section	.text.ShiftLights,"ax",%progbits
 749              		.align	2
 750              		.global	ShiftLights
 751              		.thumb
 752              		.thumb_func
 753              		.type	ShiftLights, %function
 754              	ShiftLights:
 755              	.LFB69:
 245:.\main.c      **** 
 246:.\main.c      **** int ShiftLights()
 247:.\main.c      **** {
 756              		.loc 1 247 0
 757              		.cfi_startproc
 758              		@ args = 0, pretend = 0, frame = 0
 759              		@ frame_needed = 0, uses_anonymous_args = 0
 760 0000 10B5     		push	{r4, lr}
 761              		.cfi_def_cfa_offset 8
 762              		.cfi_offset 4, -8
 763              		.cfi_offset 14, -4
 764              	.LVL90:
 248:.\main.c      ****     int Column = 4;
 249:.\main.c      ****     int i = 0;
 250:.\main.c      ****     int Light1 = 8;
 251:.\main.c      ****     int Light2 = 10;
 252:.\main.c      ****     int Light3 = 12;
 253:.\main.c      ****     int Light4 = 15;
 254:.\main.c      ****     int Light5 = 17;
 255:.\main.c      ****     
ARM GAS  C:\Users\charl\AppData\Local\Temp\ccOajpvx.s 			page 19


 256:.\main.c      ****     if(rpm>= Shift1 && rpm < Shift2)
 765              		.loc 1 256 0
 766 0002 4B4B     		ldr	r3, .L91
 767 0004 1A88     		ldrh	r2, [r3]
 768 0006 A2F5DA53 		sub	r3, r2, #6976
 769 000a 183B     		subs	r3, r3, #24
 770 000c 9BB2     		uxth	r3, r3
 771 000e B3F5FA7F 		cmp	r3, #500
 772 0012 06D3     		bcc	.L80
 773 0014 12E0     		b	.L86
 774              	.LVL91:
 775              	.L57:
 257:.\main.c      ****     {
 258:.\main.c      ****         for(i = Light1; i <= Light1; i++)
 259:.\main.c      ****         {
 260:.\main.c      ****         LED_Driver_LRBWS_SetRC(i,Column);
 776              		.loc 1 260 0 discriminator 3
 777 0016 E0B2     		uxtb	r0, r4
 778 0018 0421     		movs	r1, #4
 779 001a FFF7FEFF 		bl	LED_Driver_LRBWS_SetRC
 780              	.LVL92:
 258:.\main.c      ****         {
 781              		.loc 1 258 0 discriminator 3
 782 001e 0134     		adds	r4, r4, #1
 783              	.LVL93:
 784 0020 00E0     		b	.L55
 785              	.LVL94:
 786              	.L80:
 787 0022 0824     		movs	r4, #8
 788              	.LVL95:
 789              	.L55:
 258:.\main.c      ****         {
 790              		.loc 1 258 0 is_stmt 0 discriminator 1
 791 0024 082C     		cmp	r4, #8
 792 0026 F6DD     		ble	.L57
 793 0028 0A24     		movs	r4, #10
 794              	.LVL96:
 795 002a 04E0     		b	.L58
 796              	.LVL97:
 797              	.L59:
 261:.\main.c      ****         }
 262:.\main.c      ****         for(i = Light2; i<=Light5; i++)
 263:.\main.c      ****         {
 264:.\main.c      ****         LED_Driver_LRBWS_ClearRC(i,Column);
 798              		.loc 1 264 0 is_stmt 1 discriminator 3
 799 002c E0B2     		uxtb	r0, r4
 800 002e 0421     		movs	r1, #4
 801 0030 FFF7FEFF 		bl	LED_Driver_LRBWS_ClearRC
 802              	.LVL98:
 262:.\main.c      ****         {
 803              		.loc 1 262 0 discriminator 3
 804 0034 0134     		adds	r4, r4, #1
 805              	.LVL99:
 806              	.L58:
 262:.\main.c      ****         {
 807              		.loc 1 262 0 is_stmt 0 discriminator 1
 808 0036 112C     		cmp	r4, #17
ARM GAS  C:\Users\charl\AppData\Local\Temp\ccOajpvx.s 			page 20


 809 0038 F8DD     		ble	.L59
 810 003a 6CE0     		b	.L60
 811              	.LVL100:
 812              	.L86:
 265:.\main.c      ****         }
 266:.\main.c      ****     }
 267:.\main.c      ****     else if(rpm>= Shift2 && rpm < Shift3)
 813              		.loc 1 267 0 is_stmt 1
 814 003c A2F5EA53 		sub	r3, r2, #7488
 815 0040 0C3B     		subs	r3, r3, #12
 816 0042 9BB2     		uxth	r3, r3
 817 0044 B3F5FA7F 		cmp	r3, #500
 818 0048 06D3     		bcc	.L81
 819 004a 12E0     		b	.L87
 820              	.LVL101:
 821              	.L63:
 268:.\main.c      ****     {
 269:.\main.c      ****         for(i = Light1; i <= Light2; i++)
 270:.\main.c      ****         {
 271:.\main.c      ****         LED_Driver_LRBWS_SetRC(i,Column);
 822              		.loc 1 271 0 discriminator 3
 823 004c E0B2     		uxtb	r0, r4
 824 004e 0421     		movs	r1, #4
 825 0050 FFF7FEFF 		bl	LED_Driver_LRBWS_SetRC
 826              	.LVL102:
 269:.\main.c      ****         {
 827              		.loc 1 269 0 discriminator 3
 828 0054 0134     		adds	r4, r4, #1
 829              	.LVL103:
 830 0056 00E0     		b	.L61
 831              	.LVL104:
 832              	.L81:
 833 0058 0824     		movs	r4, #8
 834              	.LVL105:
 835              	.L61:
 269:.\main.c      ****         {
 836              		.loc 1 269 0 is_stmt 0 discriminator 1
 837 005a 0A2C     		cmp	r4, #10
 838 005c F6DD     		ble	.L63
 839 005e 0C24     		movs	r4, #12
 840              	.LVL106:
 841 0060 04E0     		b	.L64
 842              	.LVL107:
 843              	.L65:
 272:.\main.c      ****         }
 273:.\main.c      ****         for(i = Light3; i<=Light5; i++)
 274:.\main.c      ****         {
 275:.\main.c      ****         LED_Driver_LRBWS_ClearRC(i,Column);
 844              		.loc 1 275 0 is_stmt 1 discriminator 3
 845 0062 E0B2     		uxtb	r0, r4
 846 0064 0421     		movs	r1, #4
 847 0066 FFF7FEFF 		bl	LED_Driver_LRBWS_ClearRC
 848              	.LVL108:
 273:.\main.c      ****         {
 849              		.loc 1 273 0 discriminator 3
 850 006a 0134     		adds	r4, r4, #1
 851              	.LVL109:
ARM GAS  C:\Users\charl\AppData\Local\Temp\ccOajpvx.s 			page 21


 852              	.L64:
 273:.\main.c      ****         {
 853              		.loc 1 273 0 is_stmt 0 discriminator 1
 854 006c 112C     		cmp	r4, #17
 855 006e F8DD     		ble	.L65
 856 0070 51E0     		b	.L60
 857              	.LVL110:
 858              	.L87:
 276:.\main.c      ****         }
 277:.\main.c      ****     }
 278:.\main.c      ****     else if(rpm>= Shift3 && rpm < Shift4)
 859              		.loc 1 278 0 is_stmt 1
 860 0072 A2F5FA53 		sub	r3, r2, #8000
 861 0076 9BB2     		uxth	r3, r3
 862 0078 B3F5FA7F 		cmp	r3, #500
 863 007c 06D3     		bcc	.L82
 864 007e 12E0     		b	.L88
 865              	.LVL111:
 866              	.L68:
 279:.\main.c      ****     {
 280:.\main.c      ****         for(i = Light1; i <= Light3; i++)
 281:.\main.c      ****         {
 282:.\main.c      ****         LED_Driver_LRBWS_SetRC(i,Column);
 867              		.loc 1 282 0 discriminator 3
 868 0080 E0B2     		uxtb	r0, r4
 869 0082 0421     		movs	r1, #4
 870 0084 FFF7FEFF 		bl	LED_Driver_LRBWS_SetRC
 871              	.LVL112:
 280:.\main.c      ****         {
 872              		.loc 1 280 0 discriminator 3
 873 0088 0134     		adds	r4, r4, #1
 874              	.LVL113:
 875 008a 00E0     		b	.L66
 876              	.LVL114:
 877              	.L82:
 878 008c 0824     		movs	r4, #8
 879              	.LVL115:
 880              	.L66:
 280:.\main.c      ****         {
 881              		.loc 1 280 0 is_stmt 0 discriminator 1
 882 008e 0C2C     		cmp	r4, #12
 883 0090 F6DD     		ble	.L68
 884 0092 0F24     		movs	r4, #15
 885              	.LVL116:
 886 0094 04E0     		b	.L69
 887              	.LVL117:
 888              	.L70:
 283:.\main.c      ****         }
 284:.\main.c      ****         for(i = Light4; i<=Light5; i++)
 285:.\main.c      ****         {
 286:.\main.c      ****         LED_Driver_LRBWS_ClearRC(i,Column);
 889              		.loc 1 286 0 is_stmt 1 discriminator 3
 890 0096 E0B2     		uxtb	r0, r4
 891 0098 0421     		movs	r1, #4
 892 009a FFF7FEFF 		bl	LED_Driver_LRBWS_ClearRC
 893              	.LVL118:
 284:.\main.c      ****         {
ARM GAS  C:\Users\charl\AppData\Local\Temp\ccOajpvx.s 			page 22


 894              		.loc 1 284 0 discriminator 3
 895 009e 0134     		adds	r4, r4, #1
 896              	.LVL119:
 897              	.L69:
 284:.\main.c      ****         {
 898              		.loc 1 284 0 is_stmt 0 discriminator 1
 899 00a0 112C     		cmp	r4, #17
 900 00a2 F8DD     		ble	.L70
 901 00a4 37E0     		b	.L60
 902              	.LVL120:
 903              	.L88:
 287:.\main.c      ****         }
 288:.\main.c      ****     }
 289:.\main.c      ****     else if(rpm>= Shift4 && rpm < Shift5)
 904              		.loc 1 289 0 is_stmt 1
 905 00a6 A2F50453 		sub	r3, r2, #8448
 906 00aa 343B     		subs	r3, r3, #52
 907 00ac 9BB2     		uxth	r3, r3
 908 00ae B3F5FA7F 		cmp	r3, #500
 909 00b2 06D3     		bcc	.L83
 910 00b4 09E0     		b	.L89
 911              	.LVL121:
 912              	.L73:
 290:.\main.c      ****     {
 291:.\main.c      ****         for(i = Light1; i <= Light4; i++)
 292:.\main.c      ****         {
 293:.\main.c      ****         LED_Driver_LRBWS_SetRC(i,Column);
 913              		.loc 1 293 0 discriminator 3
 914 00b6 E0B2     		uxtb	r0, r4
 915 00b8 0421     		movs	r1, #4
 916 00ba FFF7FEFF 		bl	LED_Driver_LRBWS_SetRC
 917              	.LVL122:
 291:.\main.c      ****         {
 918              		.loc 1 291 0 discriminator 3
 919 00be 0134     		adds	r4, r4, #1
 920              	.LVL123:
 921 00c0 00E0     		b	.L71
 922              	.LVL124:
 923              	.L83:
 924 00c2 0824     		movs	r4, #8
 925              	.LVL125:
 926              	.L71:
 291:.\main.c      ****         {
 927              		.loc 1 291 0 is_stmt 0 discriminator 1
 928 00c4 0F2C     		cmp	r4, #15
 929 00c6 F6DD     		ble	.L73
 930 00c8 25E0     		b	.L60
 931              	.LVL126:
 932              	.L89:
 294:.\main.c      ****         }       
 295:.\main.c      ****     }
 296:.\main.c      **** //    else if(rpm >= Shift5 && rpm < Shift5+500)
 297:.\main.c      **** //    {
 298:.\main.c      **** //
 299:.\main.c      **** //    }
 300:.\main.c      ****     else if(rpm >= Shift5 && FlashCounter > FlashFreq)
 933              		.loc 1 300 0 is_stmt 1
ARM GAS  C:\Users\charl\AppData\Local\Temp\ccOajpvx.s 			page 23


 934 00ca 42F22733 		movw	r3, #8999
 935 00ce 9A42     		cmp	r2, r3
 936 00d0 13D9     		bls	.L74
 937              		.loc 1 300 0 is_stmt 0 discriminator 1
 938 00d2 184B     		ldr	r3, .L91+4
 939 00d4 5968     		ldr	r1, [r3, #4]
 940 00d6 184B     		ldr	r3, .L91+8
 941 00d8 1B68     		ldr	r3, [r3]
 942 00da 9942     		cmp	r1, r3
 943 00dc 06DC     		bgt	.L84
 944 00de 0CE0     		b	.L74
 945              	.LVL127:
 946              	.L76:
 301:.\main.c      ****     {
 302:.\main.c      ****         //Flash all Lights
 303:.\main.c      ****         for(i = Light1; i<=Light5; i++)
 304:.\main.c      ****         {
 305:.\main.c      ****         LED_Driver_LRBWS_ToggleRC(i,Column);
 947              		.loc 1 305 0 is_stmt 1 discriminator 3
 948 00e0 E0B2     		uxtb	r0, r4
 949 00e2 0421     		movs	r1, #4
 950 00e4 FFF7FEFF 		bl	LED_Driver_LRBWS_ToggleRC
 951              	.LVL128:
 303:.\main.c      ****         {
 952              		.loc 1 303 0 discriminator 3
 953 00e8 0134     		adds	r4, r4, #1
 954              	.LVL129:
 955 00ea 00E0     		b	.L75
 956              	.LVL130:
 957              	.L84:
 958 00ec 0824     		movs	r4, #8
 959              	.LVL131:
 960              	.L75:
 303:.\main.c      ****         {
 961              		.loc 1 303 0 is_stmt 0 discriminator 1
 962 00ee 112C     		cmp	r4, #17
 963 00f0 F6DD     		ble	.L76
 306:.\main.c      ****         }
 307:.\main.c      ****         FlashCounter = 0;
 964              		.loc 1 307 0 is_stmt 1
 965 00f2 0022     		movs	r2, #0
 966 00f4 0F4B     		ldr	r3, .L91+4
 967 00f6 5A60     		str	r2, [r3, #4]
 968 00f8 0DE0     		b	.L60
 969              	.LVL132:
 970              	.L74:
 308:.\main.c      ****     }
 309:.\main.c      ****     else if(rpm < Shift1)
 971              		.loc 1 309 0
 972 00fa 41F65733 		movw	r3, #6999
 973 00fe 9A42     		cmp	r2, r3
 974 0100 06D9     		bls	.L85
 975 0102 08E0     		b	.L60
 976              	.LVL133:
 977              	.L78:
 310:.\main.c      ****     {
 311:.\main.c      ****     //Turn off all lights
ARM GAS  C:\Users\charl\AppData\Local\Temp\ccOajpvx.s 			page 24


 312:.\main.c      ****         for(i = Light1; i<=Light5; i++)
 313:.\main.c      ****         {
 314:.\main.c      ****         LED_Driver_LRBWS_ClearRC(i,Column);
 978              		.loc 1 314 0 discriminator 3
 979 0104 E0B2     		uxtb	r0, r4
 980 0106 0421     		movs	r1, #4
 981 0108 FFF7FEFF 		bl	LED_Driver_LRBWS_ClearRC
 982              	.LVL134:
 312:.\main.c      ****         {
 983              		.loc 1 312 0 discriminator 3
 984 010c 0134     		adds	r4, r4, #1
 985              	.LVL135:
 986 010e 00E0     		b	.L77
 987              	.LVL136:
 988              	.L85:
 989 0110 0824     		movs	r4, #8
 990              	.LVL137:
 991              	.L77:
 312:.\main.c      ****         {
 992              		.loc 1 312 0 is_stmt 0 discriminator 1
 993 0112 112C     		cmp	r4, #17
 994 0114 F6DD     		ble	.L78
 995              	.LVL138:
 996              	.L60:
 315:.\main.c      ****         }        
 316:.\main.c      ****     }
 317:.\main.c      ****     FlashCounter++;
 997              		.loc 1 317 0 is_stmt 1
 998 0116 074A     		ldr	r2, .L91+4
 999 0118 5368     		ldr	r3, [r2, #4]
 1000 011a 0133     		adds	r3, r3, #1
 1001 011c 5360     		str	r3, [r2, #4]
 318:.\main.c      ****     if(FlashCounter > 10000)
 1002              		.loc 1 318 0
 1003 011e 42F21072 		movw	r2, #10000
 1004 0122 9342     		cmp	r3, r2
 1005 0124 02DD     		ble	.L79
 319:.\main.c      ****         FlashCounter = 0;
 1006              		.loc 1 319 0
 1007 0126 0022     		movs	r2, #0
 1008 0128 024B     		ldr	r3, .L91+4
 1009 012a 5A60     		str	r2, [r3, #4]
 1010              	.L79:
 320:.\main.c      **** return 0;
 321:.\main.c      **** }
 1011              		.loc 1 321 0
 1012 012c 0020     		movs	r0, #0
 1013 012e 10BD     		pop	{r4, pc}
 1014              	.L92:
 1015              		.align	2
 1016              	.L91:
 1017 0130 00000000 		.word	rpm
 1018 0134 00000000 		.word	.LANCHOR0
 1019 0138 00000000 		.word	.LANCHOR1
 1020              		.cfi_endproc
 1021              	.LFE69:
 1022              		.size	ShiftLights, .-ShiftLights
ARM GAS  C:\Users\charl\AppData\Local\Temp\ccOajpvx.s 			page 25


 1023              		.global	__aeabi_dadd
 1024              		.section	.text.main,"ax",%progbits
 1025              		.align	2
 1026              		.global	main
 1027              		.thumb
 1028              		.thumb_func
 1029              		.type	main, %function
 1030              	main:
 1031              	.LFB70:
 322:.\main.c      **** 
 323:.\main.c      **** int main()
 324:.\main.c      **** {
 1032              		.loc 1 324 0
 1033              		.cfi_startproc
 1034              		@ args = 0, pretend = 0, frame = 0
 1035              		@ frame_needed = 0, uses_anonymous_args = 0
 1036 0000 2DE9F041 		push	{r4, r5, r6, r7, r8, lr}
 1037              		.cfi_def_cfa_offset 24
 1038              		.cfi_offset 4, -24
 1039              		.cfi_offset 5, -20
 1040              		.cfi_offset 6, -16
 1041              		.cfi_offset 7, -12
 1042              		.cfi_offset 8, -8
 1043              		.cfi_offset 14, -4
 1044              	.LVL139:
 325:.\main.c      ****     //Parameters
 326:.\main.c      ****     int BrightGear = 120;
 327:.\main.c      ****     int Bright4Dig = 255;
 328:.\main.c      ****     
 329:.\main.c      ****     //Variables
 330:.\main.c      ****     int Gear = 0;
 331:.\main.c      ****     int PageButton = 0;
 332:.\main.c      ****     int ReadyToDisplay = 1;
 333:.\main.c      ****     int count = 0;
 334:.\main.c      ****     int wait = 0;
 335:.\main.c      ****     int StillPressed = 0;
 336:.\main.c      ****     
 337:.\main.c      ****     batV = 13.00;
 1045              		.loc 1 337 0
 1046 0004 0020     		movs	r0, #0
 1047 0006 4A49     		ldr	r1, .L109+8
 1048 0008 4A4B     		ldr	r3, .L109+12
 1049 000a C3E90001 		strd	r0, [r3]
 338:.\main.c      ****     tp = 15;
 1050              		.loc 1 338 0
 1051 000e 0F22     		movs	r2, #15
 1052 0010 494B     		ldr	r3, .L109+16
 1053 0012 1A80     		strh	r2, [r3]	@ movhi
 339:.\main.c      ****     rpm = 6000;
 1054              		.loc 1 339 0
 1055 0014 41F27072 		movw	r2, #6000
 1056 0018 484B     		ldr	r3, .L109+20
 1057 001a 1A80     		strh	r2, [r3]	@ movhi
 1058              	.LVL140:
 340:.\main.c      ****     int PrevState = 1;
 341:.\main.c      ****     
 342:.\main.c      ****     //Test Variables
ARM GAS  C:\Users\charl\AppData\Local\Temp\ccOajpvx.s 			page 26


 343:.\main.c      ****     int Left = 8;
 344:.\main.c      ****     int Right = 9;
 345:.\main.c      ****     int Direction = 1; //1 is up 0 is down
 346:.\main.c      ****     
 347:.\main.c      ****     CyGlobalIntEnable;
 1059              		.loc 1 347 0
 1060              	@ 347 ".\main.c" 1
 1061 001c 62B6     		CPSIE   i
 1062              	@ 0 "" 2
 348:.\main.c      ****     //Start CAN
 349:.\main.c      ****     CAN_Init();
 1063              		.loc 1 349 0
 1064              		.thumb
 1065 001e FFF7FEFF 		bl	CAN_Init
 1066              	.LVL141:
 350:.\main.c      ****     CAN_Start();
 1067              		.loc 1 350 0
 1068 0022 FFF7FEFF 		bl	CAN_Start
 1069              	.LVL142:
 351:.\main.c      ****     
 352:.\main.c      ****     //Start LED Drivers
 353:.\main.c      ****     LED_Driver_LRBWS_Start();
 1070              		.loc 1 353 0
 1071 0026 FFF7FEFF 		bl	LED_Driver_LRBWS_Start
 1072              	.LVL143:
 354:.\main.c      ****     LED_Driver_Gear_Start();
 1073              		.loc 1 354 0
 1074 002a FFF7FEFF 		bl	LED_Driver_Gear_Start
 1075              	.LVL144:
 355:.\main.c      ****     state = Drive;
 1076              		.loc 1 355 0
 1077 002e 0022     		movs	r2, #0
 1078 0030 434B     		ldr	r3, .L109+24
 1079 0032 1A70     		strb	r2, [r3]
 1080              	.LVL145:
 356:.\main.c      ****     PrevState = state;
 357:.\main.c      ****     
 358:.\main.c      ****     Brightness(Bright4Dig, BrightGear); //Set initial Brightness
 1081              		.loc 1 358 0
 1082 0034 FF20     		movs	r0, #255
 1083 0036 7821     		movs	r1, #120
 1084 0038 FFF7FEFF 		bl	Brightness
 1085              	.LVL146:
 359:.\main.c      ****     int i = 0;
 360:.\main.c      ****         for(i = 8; i <= 17; i++)
 1086              		.loc 1 360 0
 1087 003c 0824     		movs	r4, #8
 1088 003e 04E0     		b	.L94
 1089              	.LVL147:
 1090              	.L95:
 361:.\main.c      ****         {
 362:.\main.c      ****         LED_Driver_LRBWS_SetRC(i,4);
 1091              		.loc 1 362 0 discriminator 3
 1092 0040 E0B2     		uxtb	r0, r4
 1093 0042 0421     		movs	r1, #4
 1094 0044 FFF7FEFF 		bl	LED_Driver_LRBWS_SetRC
 1095              	.LVL148:
ARM GAS  C:\Users\charl\AppData\Local\Temp\ccOajpvx.s 			page 27


 360:.\main.c      ****         {
 1096              		.loc 1 360 0 discriminator 3
 1097 0048 0134     		adds	r4, r4, #1
 1098              	.LVL149:
 1099              	.L94:
 360:.\main.c      ****         {
 1100              		.loc 1 360 0 is_stmt 0 discriminator 1
 1101 004a 112C     		cmp	r4, #17
 1102 004c F8DD     		ble	.L95
 1103 004e 0127     		movs	r7, #1
 1104 0050 0025     		movs	r5, #0
 1105              	.LVL150:
 1106 0052 2C46     		mov	r4, r5
 1107              	.LVL151:
 1108 0054 2E46     		mov	r6, r5
 1109 0056 A846     		mov	r8, r5
 1110              	.LVL152:
 1111              	.L104:
 363:.\main.c      ****         }    
 364:.\main.c      ****     
 365:.\main.c      **** 	for(;;)
 366:.\main.c      ****     {   
 367:.\main.c      ****         //The following if statement items are for testing only, remove when display is on vehicle.
 368:.\main.c      ****         //FIXME
 369:.\main.c      ****         if(wait == 1)
 1112              		.loc 1 369 0 is_stmt 1
 1113 0058 012C     		cmp	r4, #1
 1114 005a 2CD1     		bne	.L96
 370:.\main.c      ****         {
 371:.\main.c      ****             et++;
 1115              		.loc 1 371 0
 1116 005c 394A     		ldr	r2, .L109+28
 1117 005e 1388     		ldrh	r3, [r2]
 1118 0060 0133     		adds	r3, r3, #1
 1119 0062 1380     		strh	r3, [r2]	@ movhi
 372:.\main.c      ****             count++;    
 1120              		.loc 1 372 0
 1121 0064 0136     		adds	r6, r6, #1
 1122              	.LVL153:
 373:.\main.c      ****            batV = batV+0.01;
 1123              		.loc 1 373 0
 1124 0066 334C     		ldr	r4, .L109+12
 1125              	.LVL154:
 1126 0068 D4E90001 		ldrd	r0, [r4]
 1127 006c 2EA3     		adr	r3, .L109
 1128 006e D3E90023 		ldrd	r2, [r3]
 1129 0072 FFF7FEFF 		bl	__aeabi_dadd
 1130              	.LVL155:
 1131 0076 C4E90001 		strd	r0, [r4]
 1132              	.LVL156:
 374:.\main.c      ****             wait = 0;
 375:.\main.c      ****             //TEST ITEMS
 376:.\main.c      ****             //Toggle Shift LEDS
 377:.\main.c      ****             if(Direction == 1)
 1133              		.loc 1 377 0
 1134 007a 2FB1     		cbz	r7, .L97
 378:.\main.c      ****                 rpm= rpm+500;
ARM GAS  C:\Users\charl\AppData\Local\Temp\ccOajpvx.s 			page 28


 1135              		.loc 1 378 0
 1136 007c 2F4A     		ldr	r2, .L109+20
 1137 007e 1388     		ldrh	r3, [r2]
 1138 0080 03F5FA73 		add	r3, r3, #500
 1139 0084 1380     		strh	r3, [r2]	@ movhi
 1140 0086 05E0     		b	.L98
 1141              	.L97:
 379:.\main.c      ****             else if(Direction == 0)
 1142              		.loc 1 379 0
 1143 0088 27B9     		cbnz	r7, .L98
 380:.\main.c      ****                 rpm = rpm -500;
 1144              		.loc 1 380 0
 1145 008a 2C4A     		ldr	r2, .L109+20
 1146 008c 1388     		ldrh	r3, [r2]
 1147 008e A3F5FA73 		sub	r3, r3, #500
 1148 0092 1380     		strh	r3, [r2]	@ movhi
 1149              	.L98:
 381:.\main.c      ****             
 382:.\main.c      ****             if(rpm > 10000)
 1150              		.loc 1 382 0
 1151 0094 294B     		ldr	r3, .L109+20
 1152 0096 1B88     		ldrh	r3, [r3]
 1153 0098 42F21072 		movw	r2, #10000
 1154 009c 9342     		cmp	r3, r2
 1155 009e 05D8     		bhi	.L105
 383:.\main.c      ****                 Direction = 0;
 384:.\main.c      ****             else if(rpm <7000)
 1156              		.loc 1 384 0
 1157 00a0 41F65732 		movw	r2, #6999
 1158 00a4 9342     		cmp	r3, r2
 1159 00a6 04D9     		bls	.L106
 374:.\main.c      ****             //TEST ITEMS
 1160              		.loc 1 374 0
 1161 00a8 0024     		movs	r4, #0
 1162              	.LVL157:
 1163 00aa 04E0     		b	.L96
 1164              	.LVL158:
 1165              	.L105:
 383:.\main.c      ****                 Direction = 0;
 1166              		.loc 1 383 0
 1167 00ac 0027     		movs	r7, #0
 1168              	.LVL159:
 374:.\main.c      ****             //TEST ITEMS
 1169              		.loc 1 374 0
 1170 00ae 3C46     		mov	r4, r7
 1171 00b0 01E0     		b	.L96
 1172              	.LVL160:
 1173              	.L106:
 385:.\main.c      ****                 Direction = 1;
 1174              		.loc 1 385 0
 1175 00b2 0127     		movs	r7, #1
 1176              	.LVL161:
 374:.\main.c      ****             //TEST ITEMS
 1177              		.loc 1 374 0
 1178 00b4 0024     		movs	r4, #0
 1179              	.LVL162:
 1180              	.L96:
ARM GAS  C:\Users\charl\AppData\Local\Temp\ccOajpvx.s 			page 29


 386:.\main.c      ****             
 387:.\main.c      **** //            if(Direction == 1)
 388:.\main.c      **** //            {
 389:.\main.c      **** //            LED_Driver_LRBWS_ToggleRC(Left,4);
 390:.\main.c      **** //            LED_Driver_LRBWS_ToggleRC(Right,4);
 391:.\main.c      **** //            Left = Left+2;
 392:.\main.c      **** //            Right = Right+2;
 393:.\main.c      **** //            }
 394:.\main.c      **** //            else if(Direction == 0)
 395:.\main.c      **** //            {
 396:.\main.c      **** //            LED_Driver_LRBWS_ToggleRC(Left,4);
 397:.\main.c      **** //            LED_Driver_LRBWS_ToggleRC(Right,4);
 398:.\main.c      **** //            Left = Left-2;
 399:.\main.c      **** //            Right = Right-2;                
 400:.\main.c      **** //            }
 401:.\main.c      **** //                        if(Left == 8)
 402:.\main.c      **** //            {//increment up
 403:.\main.c      **** //            Direction = 1;
 404:.\main.c      **** //            LED_Driver_LRBWS_ToggleRC(Left,4);
 405:.\main.c      **** //            LED_Driver_LRBWS_ToggleRC(Right,4);
 406:.\main.c      **** //            }
 407:.\main.c      **** //            else if(Left == 16)
 408:.\main.c      **** //            {
 409:.\main.c      **** //                Direction = 0;
 410:.\main.c      **** //            LED_Driver_LRBWS_ToggleRC(Left,4);
 411:.\main.c      **** //            LED_Driver_LRBWS_ToggleRC(Right,4);
 412:.\main.c      **** //            }
 413:.\main.c      ****             
 414:.\main.c      ****         }
 415:.\main.c      ****         wait++;
 1181              		.loc 1 415 0
 1182 00b6 0134     		adds	r4, r4, #1
 1183              	.LVL163:
 416:.\main.c      ****         if(count == 10)
 1184              		.loc 1 416 0
 1185 00b8 0A2E     		cmp	r6, #10
 1186 00ba 00D1     		bne	.L99
 417:.\main.c      ****         {
 418:.\main.c      ****             count = 0;
 1187              		.loc 1 418 0
 1188 00bc 0026     		movs	r6, #0
 1189              	.LVL164:
 1190              	.L99:
 419:.\main.c      ****         }
 420:.\main.c      ****         if(RXFlag0 && RXFlag1 && RXFlag2 && RXFlag3 && RXFlag4 && RXFlag5)
 1191              		.loc 1 420 0
 1192 00be 224B     		ldr	r3, .L109+32
 1193 00c0 9B68     		ldr	r3, [r3, #8]
 1194 00c2 DBB1     		cbz	r3, .L100
 1195              		.loc 1 420 0 is_stmt 0 discriminator 1
 1196 00c4 204B     		ldr	r3, .L109+32
 1197 00c6 DB68     		ldr	r3, [r3, #12]
 1198 00c8 C3B1     		cbz	r3, .L100
 1199              		.loc 1 420 0 discriminator 2
 1200 00ca 1F4B     		ldr	r3, .L109+32
 1201 00cc 1B69     		ldr	r3, [r3, #16]
 1202 00ce ABB1     		cbz	r3, .L100
ARM GAS  C:\Users\charl\AppData\Local\Temp\ccOajpvx.s 			page 30


 1203              		.loc 1 420 0 discriminator 3
 1204 00d0 1D4B     		ldr	r3, .L109+32
 1205 00d2 5B69     		ldr	r3, [r3, #20]
 1206 00d4 93B1     		cbz	r3, .L100
 1207              		.loc 1 420 0 discriminator 4
 1208 00d6 1C4B     		ldr	r3, .L109+32
 1209 00d8 9B69     		ldr	r3, [r3, #24]
 1210 00da 7BB1     		cbz	r3, .L100
 1211              		.loc 1 420 0 discriminator 5
 1212 00dc 1A4B     		ldr	r3, .L109+32
 1213 00de DB69     		ldr	r3, [r3, #28]
 1214 00e0 63B1     		cbz	r3, .L100
 421:.\main.c      ****         {
 422:.\main.c      ****             //Parse Data
 423:.\main.c      ****             ParseCAN();
 1215              		.loc 1 423 0 is_stmt 1
 1216 00e2 FFF7FEFF 		bl	ParseCAN
 1217              	.LVL165:
 424:.\main.c      ****             Gear = GearCalculation();
 1218              		.loc 1 424 0
 1219 00e6 FFF7FEFF 		bl	GearCalculation
 1220              	.LVL166:
 1221 00ea 8046     		mov	r8, r0
 1222              	.LVL167:
 425:.\main.c      ****             //Reset flags, ready for next round of data    
 426:.\main.c      ****             RXFlag0 =0;
 1223              		.loc 1 426 0
 1224 00ec 164B     		ldr	r3, .L109+32
 1225 00ee 0022     		movs	r2, #0
 1226              	.LVL168:
 1227 00f0 9A60     		str	r2, [r3, #8]
 427:.\main.c      ****             RXFlag1 =0;
 1228              		.loc 1 427 0
 1229 00f2 DA60     		str	r2, [r3, #12]
 428:.\main.c      ****             RXFlag2 =0;
 1230              		.loc 1 428 0
 1231 00f4 1A61     		str	r2, [r3, #16]
 429:.\main.c      ****             RXFlag3 =0;
 1232              		.loc 1 429 0
 1233 00f6 5A61     		str	r2, [r3, #20]
 430:.\main.c      ****             RXFlag4 =0;
 1234              		.loc 1 430 0
 1235 00f8 9A61     		str	r2, [r3, #24]
 431:.\main.c      ****             RXFlag5 =0;
 1236              		.loc 1 431 0
 1237 00fa DA61     		str	r2, [r3, #28]
 1238              	.LVL169:
 1239              	.L100:
 432:.\main.c      ****             ReadyToDisplay = 1; 
 433:.\main.c      ****         }
 434:.\main.c      ****         switch(state)
 1240              		.loc 1 434 0
 1241 00fc 104B     		ldr	r3, .L109+24
 1242 00fe 1B78     		ldrb	r3, [r3]	@ zero_extendqisi2
 1243 0100 13B1     		cbz	r3, .L102
 1244 0102 012B     		cmp	r3, #1
 1245 0104 06D0     		beq	.L103
ARM GAS  C:\Users\charl\AppData\Local\Temp\ccOajpvx.s 			page 31


 1246 0106 08E0     		b	.L101
 1247              	.L102:
 435:.\main.c      ****         {
 436:.\main.c      ****         case Drive: //Display items needed for driving: BatV, ECT, TBD, Gear, Shift Lights
 437:.\main.c      ****             if(ReadyToDisplay == 1)
 438:.\main.c      ****             {
 439:.\main.c      ****                 DriveUpdate(Gear);
 1248              		.loc 1 439 0
 1249 0108 4046     		mov	r0, r8
 1250 010a FFF7FEFF 		bl	DriveUpdate
 1251              	.LVL170:
 440:.\main.c      ****                 ReadyToDisplay = 1; 
 441:.\main.c      ****                 ShiftLights();
 1252              		.loc 1 441 0
 1253 010e FFF7FEFF 		bl	ShiftLights
 1254              	.LVL171:
 1255 0112 02E0     		b	.L101
 1256              	.L103:
 442:.\main.c      ****             }
 443:.\main.c      ****             break;
 444:.\main.c      ****         case Diag: //Display values wanted for diagnostic work: RPM?, TPS?, ECT?: all TBD maybe not
 445:.\main.c      ****             if(ReadyToDisplay == 1)
 446:.\main.c      ****             {
 447:.\main.c      ****                 DiagUpdate(Gear);
 1257              		.loc 1 447 0
 1258 0114 4046     		mov	r0, r8
 1259 0116 FFF7FEFF 		bl	DiagUpdate
 1260              	.LVL172:
 1261              	.L101:
 448:.\main.c      ****                 ReadyToDisplay = 1;
 449:.\main.c      ****             }
 450:.\main.c      ****             break;
 451:.\main.c      ****         }
 452:.\main.c      ****         StillPressed = SwitchButtonCheck(StillPressed);
 1262              		.loc 1 452 0
 1263 011a 2846     		mov	r0, r5
 1264 011c FFF7FEFF 		bl	SwitchButtonCheck
 1265              	.LVL173:
 1266 0120 0546     		mov	r5, r0
 1267              	.LVL174:
 453:.\main.c      ****     }  
 1268              		.loc 1 453 0
 1269 0122 99E7     		b	.L104
 1270              	.L110:
 1271 0124 AFF30080 		.align	3
 1272              	.L109:
 1273 0128 7B14AE47 		.word	1202590843
 1274 012c E17A843F 		.word	1065646817
 1275 0130 00002A40 		.word	1076494336
 1276 0134 00000000 		.word	batV
 1277 0138 00000000 		.word	tp
 1278 013c 00000000 		.word	rpm
 1279 0140 00000000 		.word	state
 1280 0144 00000000 		.word	et
 1281 0148 00000000 		.word	.LANCHOR0
 1282              		.cfi_endproc
 1283              	.LFE70:
ARM GAS  C:\Users\charl\AppData\Local\Temp\ccOajpvx.s 			page 32


 1284              		.size	main, .-main
 1285              		.global	receiveMailboxNumber
 1286              		.global	FlashFreq
 1287              		.global	FlashCounter
 1288              		.comm	PrevState,1,1
 1289              		.comm	state,1,1
 1290              		.global	DispUpdate
 1291              		.global	RXDLC
 1292              		.global	RXFlag5
 1293              		.global	RXFlag4
 1294              		.global	RXFlag3
 1295              		.global	RXFlag2
 1296              		.global	RXFlag1
 1297              		.global	RXFlag0
 1298              		.comm	RXMessage5,32,4
 1299              		.comm	RXMessage4,32,4
 1300              		.comm	RXMessage3,32,4
 1301              		.comm	RXMessage2,32,4
 1302              		.comm	RXMessage1,32,4
 1303              		.comm	RXMessage0,32,4
 1304              		.comm	oilTemp,2,2
 1305              		.comm	fuel,2,2
 1306              		.comm	runTime,2,2
 1307              		.comm	rgSpd,2,2
 1308              		.comm	rdSpd,2,2
 1309              		.comm	lgSpd,2,2
 1310              		.comm	ldSpd,2,2
 1311              		.comm	batV,8,8
 1312              		.comm	bpf1,2,2
 1313              		.comm	bp,2,2
 1314              		.comm	ntrl,2,2
 1315              		.comm	launch,2,2
 1316              		.comm	egt1,2,2
 1317              		.comm	op,2,2
 1318              		.comm	fp,2,2
 1319              		.comm	la1,2,2
 1320              		.comm	et,2,2
 1321              		.comm	at,2,2
 1322              		.comm	map,2,2
 1323              		.comm	tp,2,2
 1324              		.comm	rpm,2,2
 1325              		.comm	messagePWM,12,4
 1326              		.comm	dataPWM,8,4
 1327 014c AFF30080 		.data
 1328              		.align	2
 1329              		.set	.LANCHOR1,. + 0
 1330              		.type	FlashFreq, %object
 1331              		.size	FlashFreq, 4
 1332              	FlashFreq:
 1333 0000 88130000 		.word	5000
 1334              		.type	receiveMailboxNumber, %object
 1335              		.size	receiveMailboxNumber, 1
 1336              	receiveMailboxNumber:
 1337 0004 FF       		.byte	-1
 1338 0005 000000   		.bss
 1339              		.align	2
 1340              		.set	.LANCHOR0,. + 0
ARM GAS  C:\Users\charl\AppData\Local\Temp\ccOajpvx.s 			page 33


 1341              		.type	DispUpdate, %object
 1342              		.size	DispUpdate, 4
 1343              	DispUpdate:
 1344 0000 00000000 		.space	4
 1345              		.type	FlashCounter, %object
 1346              		.size	FlashCounter, 4
 1347              	FlashCounter:
 1348 0004 00000000 		.space	4
 1349              		.type	RXFlag0, %object
 1350              		.size	RXFlag0, 4
 1351              	RXFlag0:
 1352 0008 00000000 		.space	4
 1353              		.type	RXFlag1, %object
 1354              		.size	RXFlag1, 4
 1355              	RXFlag1:
 1356 000c 00000000 		.space	4
 1357              		.type	RXFlag2, %object
 1358              		.size	RXFlag2, 4
 1359              	RXFlag2:
 1360 0010 00000000 		.space	4
 1361              		.type	RXFlag3, %object
 1362              		.size	RXFlag3, 4
 1363              	RXFlag3:
 1364 0014 00000000 		.space	4
 1365              		.type	RXFlag4, %object
 1366              		.size	RXFlag4, 4
 1367              	RXFlag4:
 1368 0018 00000000 		.space	4
 1369              		.type	RXFlag5, %object
 1370              		.size	RXFlag5, 4
 1371              	RXFlag5:
 1372 001c 00000000 		.space	4
 1373              		.type	RXDLC, %object
 1374              		.size	RXDLC, 4
 1375              	RXDLC:
 1376 0020 00000000 		.space	4
 1377              		.text
 1378              	.Letext0:
 1379              		.file 2 "c:\\program files (x86)\\cypress\\psoc creator\\3.3\\psoc creator\\import\\gnu\\arm\\4.9.
 1380              		.file 3 "c:\\program files (x86)\\cypress\\psoc creator\\3.3\\psoc creator\\import\\gnu\\arm\\4.9.
 1381              		.file 4 "Generated_Source\\PSoC5/cytypes.h"
 1382              		.file 5 "Generated_Source\\PSoC5/CAN.h"
 1383              		.file 6 "c:\\program files (x86)\\cypress\\psoc creator\\3.3\\psoc creator\\import\\gnu\\arm\\4.9.
 1384              		.file 7 "Generated_Source\\PSoC5/core_cm3.h"
 1385              		.file 8 "Generated_Source\\PSoC5/LED_Driver_LRBWS.h"
 1386              		.file 9 "Generated_Source\\PSoC5/LED_Driver_Gear.h"
 1387              		.file 10 "Generated_Source\\PSoC5/Page_Button.h"