ARM GAS  C:\Users\charl\AppData\Local\Temp\ccRVL0BE.s 			page 1


   1              		.syntax unified
   2              		.cpu cortex-m3
   3              		.fpu softvfp
   4              		.eabi_attribute 20, 1
   5              		.eabi_attribute 21, 1
   6              		.eabi_attribute 23, 3
   7              		.eabi_attribute 24, 1
   8              		.eabi_attribute 25, 1
   9              		.eabi_attribute 26, 1
  10              		.eabi_attribute 30, 1
  11              		.eabi_attribute 34, 1
  12              		.eabi_attribute 18, 4
  13              		.thumb
  14              		.file	"CAN_TX_RX_func.c"
  15              		.text
  16              	.Ltext0:
  17              		.cfi_sections	.debug_frame
  18              		.section	.text.CAN_SendMsg,"ax",%progbits
  19              		.align	2
  20              		.global	CAN_SendMsg
  21              		.thumb
  22              		.thumb_func
  23              		.type	CAN_SendMsg, %function
  24              	CAN_SendMsg:
  25              	.LFB0:
  26              		.file 1 ".\\Generated_Source\\PSoC5\\CAN_TX_RX_func.c"
   1:.\Generated_Source\PSoC5/CAN_TX_RX_func.c **** /*******************************************************************************
   2:.\Generated_Source\PSoC5/CAN_TX_RX_func.c **** * File Name: CAN_TX_RX_func.c
   3:.\Generated_Source\PSoC5/CAN_TX_RX_func.c **** * Version 3.0
   4:.\Generated_Source\PSoC5/CAN_TX_RX_func.c **** *
   5:.\Generated_Source\PSoC5/CAN_TX_RX_func.c **** * Description:
   6:.\Generated_Source\PSoC5/CAN_TX_RX_func.c **** *  There are functions process "Full" Receive and Transmit mailboxes:
   7:.\Generated_Source\PSoC5/CAN_TX_RX_func.c **** *     - CAN_SendMsg0-7();
   8:.\Generated_Source\PSoC5/CAN_TX_RX_func.c **** *     - CAN_ReceiveMsg0-15();
   9:.\Generated_Source\PSoC5/CAN_TX_RX_func.c **** *  Transmission of message, and receive routine for "Basic" mailboxes:
  10:.\Generated_Source\PSoC5/CAN_TX_RX_func.c **** *     - CAN_SendMsg();
  11:.\Generated_Source\PSoC5/CAN_TX_RX_func.c **** *     - CAN_TxCancel();
  12:.\Generated_Source\PSoC5/CAN_TX_RX_func.c **** *     - CAN_ReceiveMsg();
  13:.\Generated_Source\PSoC5/CAN_TX_RX_func.c **** *
  14:.\Generated_Source\PSoC5/CAN_TX_RX_func.c **** *  Note:
  15:.\Generated_Source\PSoC5/CAN_TX_RX_func.c **** *   None
  16:.\Generated_Source\PSoC5/CAN_TX_RX_func.c **** *
  17:.\Generated_Source\PSoC5/CAN_TX_RX_func.c **** ********************************************************************************
  18:.\Generated_Source\PSoC5/CAN_TX_RX_func.c **** * Copyright 2008-2015, Cypress Semiconductor Corporation.  All rights reserved.
  19:.\Generated_Source\PSoC5/CAN_TX_RX_func.c **** * You may use this file only in accordance with the license, terms, conditions,
  20:.\Generated_Source\PSoC5/CAN_TX_RX_func.c **** * disclaimers, and limitations in the end user license agreement accompanying
  21:.\Generated_Source\PSoC5/CAN_TX_RX_func.c **** * the software package with which this file was provided.
  22:.\Generated_Source\PSoC5/CAN_TX_RX_func.c **** *******************************************************************************/
  23:.\Generated_Source\PSoC5/CAN_TX_RX_func.c **** 
  24:.\Generated_Source\PSoC5/CAN_TX_RX_func.c **** #include "CAN.h"
  25:.\Generated_Source\PSoC5/CAN_TX_RX_func.c **** #include "cyapicallbacks.h"
  26:.\Generated_Source\PSoC5/CAN_TX_RX_func.c **** 
  27:.\Generated_Source\PSoC5/CAN_TX_RX_func.c **** /* `#START TX_RX_FUNCTION` */
  28:.\Generated_Source\PSoC5/CAN_TX_RX_func.c **** #include <stdio.h>
  29:.\Generated_Source\PSoC5/CAN_TX_RX_func.c **** extern uint RXMessage0[8];
  30:.\Generated_Source\PSoC5/CAN_TX_RX_func.c **** extern uint RXMessage1[8];
  31:.\Generated_Source\PSoC5/CAN_TX_RX_func.c **** extern uint RXMessage2[8];
ARM GAS  C:\Users\charl\AppData\Local\Temp\ccRVL0BE.s 			page 2


  32:.\Generated_Source\PSoC5/CAN_TX_RX_func.c **** extern uint RXMessage3[8];
  33:.\Generated_Source\PSoC5/CAN_TX_RX_func.c **** extern uint RXMessage4[8];
  34:.\Generated_Source\PSoC5/CAN_TX_RX_func.c **** extern uint RXMessage5[8];
  35:.\Generated_Source\PSoC5/CAN_TX_RX_func.c **** extern uint RXMessage6[8];
  36:.\Generated_Source\PSoC5/CAN_TX_RX_func.c **** extern uint RXFlag0;
  37:.\Generated_Source\PSoC5/CAN_TX_RX_func.c **** extern uint RXFlag1;
  38:.\Generated_Source\PSoC5/CAN_TX_RX_func.c **** extern uint RXFlag2;
  39:.\Generated_Source\PSoC5/CAN_TX_RX_func.c **** extern uint RXFlag3;
  40:.\Generated_Source\PSoC5/CAN_TX_RX_func.c **** extern uint RXFlag4;
  41:.\Generated_Source\PSoC5/CAN_TX_RX_func.c **** extern uint RXFlag5;
  42:.\Generated_Source\PSoC5/CAN_TX_RX_func.c **** extern uint RXFlag6;
  43:.\Generated_Source\PSoC5/CAN_TX_RX_func.c **** extern uint RXDLC;
  44:.\Generated_Source\PSoC5/CAN_TX_RX_func.c **** 
  45:.\Generated_Source\PSoC5/CAN_TX_RX_func.c **** uint bIndex = 0;
  46:.\Generated_Source\PSoC5/CAN_TX_RX_func.c **** /* `#END` */
  47:.\Generated_Source\PSoC5/CAN_TX_RX_func.c **** 
  48:.\Generated_Source\PSoC5/CAN_TX_RX_func.c **** 
  49:.\Generated_Source\PSoC5/CAN_TX_RX_func.c **** /*******************************************************************************
  50:.\Generated_Source\PSoC5/CAN_TX_RX_func.c **** * FUNCTION NAME:   CAN_SendMsg
  51:.\Generated_Source\PSoC5/CAN_TX_RX_func.c **** ********************************************************************************
  52:.\Generated_Source\PSoC5/CAN_TX_RX_func.c **** *
  53:.\Generated_Source\PSoC5/CAN_TX_RX_func.c **** * Summary:
  54:.\Generated_Source\PSoC5/CAN_TX_RX_func.c **** *  This function is Send Message from one of Basic mailboxes. The function loops
  55:.\Generated_Source\PSoC5/CAN_TX_RX_func.c **** *  through the transmit message buffer designed as Basic CAN mailboxes for the
  56:.\Generated_Source\PSoC5/CAN_TX_RX_func.c **** *  first free available and sends from it. The number of retries is limited.
  57:.\Generated_Source\PSoC5/CAN_TX_RX_func.c **** *
  58:.\Generated_Source\PSoC5/CAN_TX_RX_func.c **** * Parameters:
  59:.\Generated_Source\PSoC5/CAN_TX_RX_func.c **** *  message: The pointer to a structure that contains all required data to send
  60:.\Generated_Source\PSoC5/CAN_TX_RX_func.c **** *           messages.
  61:.\Generated_Source\PSoC5/CAN_TX_RX_func.c **** *
  62:.\Generated_Source\PSoC5/CAN_TX_RX_func.c **** * Return:
  63:.\Generated_Source\PSoC5/CAN_TX_RX_func.c **** *  Indication if message has been sent.
  64:.\Generated_Source\PSoC5/CAN_TX_RX_func.c **** *   Define                             Description
  65:.\Generated_Source\PSoC5/CAN_TX_RX_func.c **** *    CYRET_SUCCESS                      The function passed successfully
  66:.\Generated_Source\PSoC5/CAN_TX_RX_func.c **** *    CAN_FAIL              The function failed
  67:.\Generated_Source\PSoC5/CAN_TX_RX_func.c **** *
  68:.\Generated_Source\PSoC5/CAN_TX_RX_func.c **** *******************************************************************************/
  69:.\Generated_Source\PSoC5/CAN_TX_RX_func.c **** uint8 CAN_SendMsg(const CAN_TX_MSG *message) 
  70:.\Generated_Source\PSoC5/CAN_TX_RX_func.c **** {
  27              		.loc 1 70 0
  28              		.cfi_startproc
  29              		@ args = 0, pretend = 0, frame = 0
  30              		@ frame_needed = 0, uses_anonymous_args = 0
  31              	.LVL0:
  32 0000 F0B5     		push	{r4, r5, r6, r7, lr}
  33              		.cfi_def_cfa_offset 20
  34              		.cfi_offset 4, -20
  35              		.cfi_offset 5, -16
  36              		.cfi_offset 6, -12
  37              		.cfi_offset 7, -8
  38              		.cfi_offset 14, -4
  39              	.LVL1:
  71:.\Generated_Source\PSoC5/CAN_TX_RX_func.c ****     uint8 i, j, shift;
  72:.\Generated_Source\PSoC5/CAN_TX_RX_func.c ****     uint8 retry = 0u;
  73:.\Generated_Source\PSoC5/CAN_TX_RX_func.c ****     uint8 result = CAN_FAIL;
  40              		.loc 1 73 0
  41 0002 0122     		movs	r2, #1
ARM GAS  C:\Users\charl\AppData\Local\Temp\ccRVL0BE.s 			page 3


  72:.\Generated_Source\PSoC5/CAN_TX_RX_func.c ****     uint8 result = CAN_FAIL;
  42              		.loc 1 72 0
  43 0004 0027     		movs	r7, #0
  74:.\Generated_Source\PSoC5/CAN_TX_RX_func.c ****     uint32 regTemp;
  75:.\Generated_Source\PSoC5/CAN_TX_RX_func.c **** 
  76:.\Generated_Source\PSoC5/CAN_TX_RX_func.c ****     while (retry < CAN_RETRY_NUMBER)
  44              		.loc 1 76 0
  45 0006 5AE0     		b	.L2
  46              	.LVL2:
  47              	.L16:
  77:.\Generated_Source\PSoC5/CAN_TX_RX_func.c ****     {
  78:.\Generated_Source\PSoC5/CAN_TX_RX_func.c ****         shift = 1u;    /* Start from first mailbox */
  79:.\Generated_Source\PSoC5/CAN_TX_RX_func.c ****         for (i = 0u; i < CAN_NUMBER_OF_TX_MAILBOXES; i++)
  80:.\Generated_Source\PSoC5/CAN_TX_RX_func.c ****         {
  81:.\Generated_Source\PSoC5/CAN_TX_RX_func.c ****             /* Find Basic TX mailboxes */
  82:.\Generated_Source\PSoC5/CAN_TX_RX_func.c ****             if ((CAN_TX_MAILBOX_TYPE & shift) == 0u)
  83:.\Generated_Source\PSoC5/CAN_TX_RX_func.c ****             {
  84:.\Generated_Source\PSoC5/CAN_TX_RX_func.c ****                 /* Find free mailbox */
  85:.\Generated_Source\PSoC5/CAN_TX_RX_func.c ****                 #if (CY_PSOC3 || CY_PSOC5)
  86:.\Generated_Source\PSoC5/CAN_TX_RX_func.c ****                     if ((CAN_BUF_SR_REG.byte[2] & shift) == 0u)
  48              		.loc 1 86 0
  49 0008 2F4B     		ldr	r3, .L22
  50 000a 9B78     		ldrb	r3, [r3, #2]	@ zero_extendqisi2
  51 000c 3342     		tst	r3, r6
  52 000e 49D1     		bne	.L3
  53              	.LVL3:
  87:.\Generated_Source\PSoC5/CAN_TX_RX_func.c ****                 #else  /* CY_PSOC4 */
  88:.\Generated_Source\PSoC5/CAN_TX_RX_func.c ****                     if ((CAN_BUF_SR_REG &
  89:.\Generated_Source\PSoC5/CAN_TX_RX_func.c ****                         (uint32) ((uint32) shift << CAN_TWO_BYTE_OFFSET)) == 0u)
  90:.\Generated_Source\PSoC5/CAN_TX_RX_func.c ****                 #endif /* CY_PSOC3 || CY_PSOC5 */
  91:.\Generated_Source\PSoC5/CAN_TX_RX_func.c ****                     {
  92:.\Generated_Source\PSoC5/CAN_TX_RX_func.c ****                         regTemp = 0u;
  93:.\Generated_Source\PSoC5/CAN_TX_RX_func.c **** 
  94:.\Generated_Source\PSoC5/CAN_TX_RX_func.c ****                         /* Set message parameters */
  95:.\Generated_Source\PSoC5/CAN_TX_RX_func.c ****                         if (message->rtr != CAN_STANDARD_MESSAGE)
  54              		.loc 1 95 0
  55 0010 0379     		ldrb	r3, [r0, #4]	@ zero_extendqisi2
  56 0012 0BB1     		cbz	r3, .L4
  96:.\Generated_Source\PSoC5/CAN_TX_RX_func.c ****                         {
  97:.\Generated_Source\PSoC5/CAN_TX_RX_func.c ****                             regTemp = CAN_TX_RTR_MASK;    /* RTR message Enable */
  57              		.loc 1 97 0
  58 0014 4FF40013 		mov	r3, #2097152
  59              	.L4:
  60              	.LVL4:
  98:.\Generated_Source\PSoC5/CAN_TX_RX_func.c ****                         }
  99:.\Generated_Source\PSoC5/CAN_TX_RX_func.c **** 
 100:.\Generated_Source\PSoC5/CAN_TX_RX_func.c ****                         if (message->ide == CAN_STANDARD_MESSAGE)
  61              		.loc 1 100 0
  62 0018 4279     		ldrb	r2, [r0, #5]	@ zero_extendqisi2
  63              	.LVL5:
  64 001a 32B9     		cbnz	r2, .L5
 101:.\Generated_Source\PSoC5/CAN_TX_RX_func.c ****                         {
 102:.\Generated_Source\PSoC5/CAN_TX_RX_func.c ****                             CAN_SET_TX_ID_STANDARD_MSG(i, message->id);
  65              		.loc 1 102 0
  66 001c 2B4A     		ldr	r2, .L22+4
  67 001e 02EB0412 		add	r2, r2, r4, lsl #4
  68 0022 0168     		ldr	r1, [r0]
ARM GAS  C:\Users\charl\AppData\Local\Temp\ccRVL0BE.s 			page 4


  69 0024 4905     		lsls	r1, r1, #21
  70 0026 5160     		str	r1, [r2, #4]
  71 0028 07E0     		b	.L6
  72              	.L5:
 103:.\Generated_Source\PSoC5/CAN_TX_RX_func.c ****                         }
 104:.\Generated_Source\PSoC5/CAN_TX_RX_func.c ****                         else
 105:.\Generated_Source\PSoC5/CAN_TX_RX_func.c ****                         {
 106:.\Generated_Source\PSoC5/CAN_TX_RX_func.c ****                             regTemp |= CAN_TX_IDE_MASK;
  73              		.loc 1 106 0
  74 002a 43F48013 		orr	r3, r3, #1048576
  75              	.LVL6:
 107:.\Generated_Source\PSoC5/CAN_TX_RX_func.c ****                             CAN_SET_TX_ID_EXTENDED_MSG(i, message->id);
  76              		.loc 1 107 0
  77 002e 274A     		ldr	r2, .L22+4
  78 0030 02EB0412 		add	r2, r2, r4, lsl #4
  79 0034 0168     		ldr	r1, [r0]
  80 0036 C900     		lsls	r1, r1, #3
  81 0038 5160     		str	r1, [r2, #4]
  82              	.L6:
 108:.\Generated_Source\PSoC5/CAN_TX_RX_func.c ****                         }
 109:.\Generated_Source\PSoC5/CAN_TX_RX_func.c **** 
 110:.\Generated_Source\PSoC5/CAN_TX_RX_func.c ****                         if (message->dlc < CAN_TX_DLC_MAX_VALUE)
  83              		.loc 1 110 0
  84 003a 90F806E0 		ldrb	lr, [r0, #6]	@ zero_extendqisi2
  85 003e BEF1070F 		cmp	lr, #7
  86 0042 02D8     		bhi	.L7
 111:.\Generated_Source\PSoC5/CAN_TX_RX_func.c ****                         {
 112:.\Generated_Source\PSoC5/CAN_TX_RX_func.c ****                             regTemp |= ((uint32) message->dlc) << CAN_TWO_BYTE_OFFSET;
  87              		.loc 1 112 0
  88 0044 43EA0E4E 		orr	lr, r3, lr, lsl #16
  89              	.LVL7:
  90 0048 01E0     		b	.L8
  91              	.LVL8:
  92              	.L7:
 113:.\Generated_Source\PSoC5/CAN_TX_RX_func.c ****                         }
 114:.\Generated_Source\PSoC5/CAN_TX_RX_func.c ****                         else
 115:.\Generated_Source\PSoC5/CAN_TX_RX_func.c ****                         {
 116:.\Generated_Source\PSoC5/CAN_TX_RX_func.c ****                             regTemp |= CAN_TX_DLC_UPPER_VALUE;
  93              		.loc 1 116 0
  94 004a 43F4002E 		orr	lr, r3, #524288
  95              	.LVL9:
  96              	.L8:
 117:.\Generated_Source\PSoC5/CAN_TX_RX_func.c ****                         }
 118:.\Generated_Source\PSoC5/CAN_TX_RX_func.c **** 
 119:.\Generated_Source\PSoC5/CAN_TX_RX_func.c ****                         if (message->irq != CAN_TRANSMIT_INT_DISABLE)
  97              		.loc 1 119 0
  98 004e C379     		ldrb	r3, [r0, #7]	@ zero_extendqisi2
  99 0050 0BB1     		cbz	r3, .L9
 120:.\Generated_Source\PSoC5/CAN_TX_RX_func.c ****                         {
 121:.\Generated_Source\PSoC5/CAN_TX_RX_func.c ****                             regTemp |= CAN_TX_INT_ENABLE_MASK;    /* Transmit Interrupt Enable */
 100              		.loc 1 121 0
 101 0052 4EF0040E 		orr	lr, lr, #4
 102              	.LVL10:
 103              	.L9:
 122:.\Generated_Source\PSoC5/CAN_TX_RX_func.c ****                         }
 123:.\Generated_Source\PSoC5/CAN_TX_RX_func.c **** 
 124:.\Generated_Source\PSoC5/CAN_TX_RX_func.c ****                         for (j = 0u; (j < message->dlc) && (j < CAN_TX_DLC_MAX_VALUE); j++)
ARM GAS  C:\Users\charl\AppData\Local\Temp\ccRVL0BE.s 			page 5


 104              		.loc 1 124 0
 105 0056 0023     		movs	r3, #0
 106 0058 0FE0     		b	.L10
 107              	.LVL11:
 108              	.L14:
 125:.\Generated_Source\PSoC5/CAN_TX_RX_func.c ****                         {
 126:.\Generated_Source\PSoC5/CAN_TX_RX_func.c ****                             #if (CY_PSOC3 || CY_PSOC5)
 127:.\Generated_Source\PSoC5/CAN_TX_RX_func.c ****                                 CAN_TX_DATA_BYTE(i, j) = message->msg->byte[j];
 109              		.loc 1 127 0
 110 005a 1C4A     		ldr	r2, .L22+4
 111 005c 02EB0411 		add	r1, r2, r4, lsl #4
 112 0060 032B     		cmp	r3, #3
 113 0062 02D9     		bls	.L11
 114              		.loc 1 127 0 is_stmt 0 discriminator 1
 115 0064 C3F10B02 		rsb	r2, r3, #11
 116 0068 01E0     		b	.L12
 117              	.L11:
 118              		.loc 1 127 0 discriminator 2
 119 006a C3F10302 		rsb	r2, r3, #3
 120              	.L12:
 121              		.loc 1 127 0 discriminator 4
 122 006e 8568     		ldr	r5, [r0, #8]
 123 0070 ED5C     		ldrb	r5, [r5, r3]	@ zero_extendqisi2
 124 0072 0A44     		add	r2, r2, r1
 125 0074 1572     		strb	r5, [r2, #8]
 124:.\Generated_Source\PSoC5/CAN_TX_RX_func.c ****                         {
 126              		.loc 1 124 0 is_stmt 1 discriminator 4
 127 0076 0133     		adds	r3, r3, #1
 128              	.LVL12:
 129 0078 DBB2     		uxtb	r3, r3
 130              	.LVL13:
 131              	.L10:
 124:.\Generated_Source\PSoC5/CAN_TX_RX_func.c ****                         {
 132              		.loc 1 124 0 is_stmt 0 discriminator 2
 133 007a 8279     		ldrb	r2, [r0, #6]	@ zero_extendqisi2
 134 007c 9A42     		cmp	r2, r3
 135 007e 01D9     		bls	.L13
 124:.\Generated_Source\PSoC5/CAN_TX_RX_func.c ****                         {
 136              		.loc 1 124 0 discriminator 3
 137 0080 072B     		cmp	r3, #7
 138 0082 EAD9     		bls	.L14
 139              	.L13:
 128:.\Generated_Source\PSoC5/CAN_TX_RX_func.c ****                             #else /* CY_PSOC4 */
 129:.\Generated_Source\PSoC5/CAN_TX_RX_func.c ****                                 CAN_TX_DATA_BYTE(i, j, message->msg->byte[j]);
 130:.\Generated_Source\PSoC5/CAN_TX_RX_func.c ****                             #endif /* CY_PSOC3 || CY_PSOC5 */
 131:.\Generated_Source\PSoC5/CAN_TX_RX_func.c ****                         }
 132:.\Generated_Source\PSoC5/CAN_TX_RX_func.c **** 
 133:.\Generated_Source\PSoC5/CAN_TX_RX_func.c ****                         /* Disable isr */
 134:.\Generated_Source\PSoC5/CAN_TX_RX_func.c ****     CyIntDisable(CAN_ISR_NUMBER);
 140              		.loc 1 134 0 is_stmt 1
 141 0084 4FF48031 		mov	r1, #65536
 142 0088 114B     		ldr	r3, .L22+8
 143              	.LVL14:
 144 008a 1960     		str	r1, [r3]
 135:.\Generated_Source\PSoC5/CAN_TX_RX_func.c **** 
 136:.\Generated_Source\PSoC5/CAN_TX_RX_func.c ****                         /* WPN[23] and WPN[3] set to 1 for write to CAN Control reg */
 137:.\Generated_Source\PSoC5/CAN_TX_RX_func.c ****                         CY_SET_REG32(CAN_TX_CMD_PTR(i), (regTemp | CAN_TX_WPN_SET));
ARM GAS  C:\Users\charl\AppData\Local\Temp\ccRVL0BE.s 			page 6


 145              		.loc 1 137 0
 146 008c 2201     		lsls	r2, r4, #4
 147 008e 0F4D     		ldr	r5, .L22+4
 148 0090 4EF40003 		orr	r3, lr, #8388608
 149 0094 43F00803 		orr	r3, r3, #8
 150 0098 5351     		str	r3, [r2, r5]
 138:.\Generated_Source\PSoC5/CAN_TX_RX_func.c **** 
 139:.\Generated_Source\PSoC5/CAN_TX_RX_func.c ****                         #if (CY_PSOC3 || CY_PSOC5)
 140:.\Generated_Source\PSoC5/CAN_TX_RX_func.c ****                             CY_SET_REG32(CAN_TX_CMD_PTR(i), CAN_SEND_MESSAGE);
 151              		.loc 1 140 0
 152 009a 0123     		movs	r3, #1
 153 009c 5351     		str	r3, [r2, r5]
 141:.\Generated_Source\PSoC5/CAN_TX_RX_func.c ****                         #else /* CY_PSOC4 */
 142:.\Generated_Source\PSoC5/CAN_TX_RX_func.c ****                             if (message->sst != CAN_STANDARD_MESSAGE)
 143:.\Generated_Source\PSoC5/CAN_TX_RX_func.c ****                             {
 144:.\Generated_Source\PSoC5/CAN_TX_RX_func.c ****                                 /* Single Shot Transmission */
 145:.\Generated_Source\PSoC5/CAN_TX_RX_func.c ****                                 CAN_TX_CMD_REG(i) |= CAN_SEND_MESSAGE |
 146:.\Generated_Source\PSoC5/CAN_TX_RX_func.c ****                                 CAN_TX_ABORT_MASK;
 147:.\Generated_Source\PSoC5/CAN_TX_RX_func.c ****                             }
 148:.\Generated_Source\PSoC5/CAN_TX_RX_func.c ****                             else
 149:.\Generated_Source\PSoC5/CAN_TX_RX_func.c ****                             {
 150:.\Generated_Source\PSoC5/CAN_TX_RX_func.c ****                                 CAN_TX_CMD_REG(i) |= CAN_SEND_MESSAGE;
 151:.\Generated_Source\PSoC5/CAN_TX_RX_func.c ****                             }
 152:.\Generated_Source\PSoC5/CAN_TX_RX_func.c ****                         #endif /* CY_PSOC3 || CY_PSOC5 */
 153:.\Generated_Source\PSoC5/CAN_TX_RX_func.c **** 
 154:.\Generated_Source\PSoC5/CAN_TX_RX_func.c ****                         /* Enable isr */
 155:.\Generated_Source\PSoC5/CAN_TX_RX_func.c ****     CyIntEnable(CAN_ISR_NUMBER);
 154              		.loc 1 155 0
 155 009e 0D4B     		ldr	r3, .L22+12
 156 00a0 1960     		str	r1, [r3]
 157              	.LVL15:
 156:.\Generated_Source\PSoC5/CAN_TX_RX_func.c **** 
 157:.\Generated_Source\PSoC5/CAN_TX_RX_func.c ****                         result = CYRET_SUCCESS;
 158              		.loc 1 157 0
 159 00a2 0022     		movs	r2, #0
 160              	.LVL16:
 161              	.L3:
 158:.\Generated_Source\PSoC5/CAN_TX_RX_func.c ****                     }
 159:.\Generated_Source\PSoC5/CAN_TX_RX_func.c ****             }
 160:.\Generated_Source\PSoC5/CAN_TX_RX_func.c ****             shift <<= 1u;
 162              		.loc 1 160 0
 163 00a4 7600     		lsls	r6, r6, #1
 164              	.LVL17:
 165 00a6 F6B2     		uxtb	r6, r6
 166              	.LVL18:
 161:.\Generated_Source\PSoC5/CAN_TX_RX_func.c ****             if (result == CYRET_SUCCESS)
 167              		.loc 1 161 0
 168 00a8 32B1     		cbz	r2, .L15
  79:.\Generated_Source\PSoC5/CAN_TX_RX_func.c ****         {
 169              		.loc 1 79 0 discriminator 2
 170 00aa 0134     		adds	r4, r4, #1
 171              	.LVL19:
 172 00ac E4B2     		uxtb	r4, r4
 173              	.LVL20:
 174 00ae 01E0     		b	.L18
 175              	.LVL21:
 176              	.L20:
ARM GAS  C:\Users\charl\AppData\Local\Temp\ccRVL0BE.s 			page 7


 177 00b0 0126     		movs	r6, #1
 178 00b2 0024     		movs	r4, #0
 179              	.L18:
 180              	.LVL22:
  79:.\Generated_Source\PSoC5/CAN_TX_RX_func.c ****         {
 181              		.loc 1 79 0 is_stmt 0 discriminator 1
 182 00b4 072C     		cmp	r4, #7
 183 00b6 A7D9     		bls	.L16
 184              	.L15:
 162:.\Generated_Source\PSoC5/CAN_TX_RX_func.c ****             {
 163:.\Generated_Source\PSoC5/CAN_TX_RX_func.c ****                 break;
 164:.\Generated_Source\PSoC5/CAN_TX_RX_func.c ****             }
 165:.\Generated_Source\PSoC5/CAN_TX_RX_func.c ****         }
 166:.\Generated_Source\PSoC5/CAN_TX_RX_func.c ****         if (result == CYRET_SUCCESS)
 185              		.loc 1 166 0 is_stmt 1
 186 00b8 1AB1     		cbz	r2, .L17
 167:.\Generated_Source\PSoC5/CAN_TX_RX_func.c ****         {
 168:.\Generated_Source\PSoC5/CAN_TX_RX_func.c ****             break;
 169:.\Generated_Source\PSoC5/CAN_TX_RX_func.c ****         }
 170:.\Generated_Source\PSoC5/CAN_TX_RX_func.c ****         else
 171:.\Generated_Source\PSoC5/CAN_TX_RX_func.c ****         {
 172:.\Generated_Source\PSoC5/CAN_TX_RX_func.c ****             retry++;
 187              		.loc 1 172 0
 188 00ba 0137     		adds	r7, r7, #1
 189              	.LVL23:
 190 00bc FFB2     		uxtb	r7, r7
 191              	.LVL24:
 192              	.L2:
  76:.\Generated_Source\PSoC5/CAN_TX_RX_func.c ****     {
 193              		.loc 1 76 0
 194 00be 022F     		cmp	r7, #2
 195 00c0 F6D9     		bls	.L20
 196              	.L17:
 173:.\Generated_Source\PSoC5/CAN_TX_RX_func.c ****         }
 174:.\Generated_Source\PSoC5/CAN_TX_RX_func.c ****     }
 175:.\Generated_Source\PSoC5/CAN_TX_RX_func.c **** 
 176:.\Generated_Source\PSoC5/CAN_TX_RX_func.c ****     return (result);
 177:.\Generated_Source\PSoC5/CAN_TX_RX_func.c **** }
 197              		.loc 1 177 0
 198 00c2 1046     		mov	r0, r2
 199              	.LVL25:
 200 00c4 F0BD     		pop	{r4, r5, r6, r7, pc}
 201              	.LVL26:
 202              	.L23:
 203 00c6 00BF     		.align	2
 204              	.L22:
 205 00c8 08A00040 		.word	1073782792
 206 00cc 20A00040 		.word	1073782816
 207 00d0 80E100E0 		.word	-536813184
 208 00d4 00E100E0 		.word	-536813312
 209              		.cfi_endproc
 210              	.LFE0:
 211              		.size	CAN_SendMsg, .-CAN_SendMsg
 212              		.section	.text.CAN_TxCancel,"ax",%progbits
 213              		.align	2
 214              		.global	CAN_TxCancel
 215              		.thumb
ARM GAS  C:\Users\charl\AppData\Local\Temp\ccRVL0BE.s 			page 8


 216              		.thumb_func
 217              		.type	CAN_TxCancel, %function
 218              	CAN_TxCancel:
 219              	.LFB1:
 178:.\Generated_Source\PSoC5/CAN_TX_RX_func.c **** 
 179:.\Generated_Source\PSoC5/CAN_TX_RX_func.c **** 
 180:.\Generated_Source\PSoC5/CAN_TX_RX_func.c **** /*******************************************************************************
 181:.\Generated_Source\PSoC5/CAN_TX_RX_func.c **** * FUNCTION NAME:   CAN_TxCancel
 182:.\Generated_Source\PSoC5/CAN_TX_RX_func.c **** ********************************************************************************
 183:.\Generated_Source\PSoC5/CAN_TX_RX_func.c **** *
 184:.\Generated_Source\PSoC5/CAN_TX_RX_func.c **** * Summary:
 185:.\Generated_Source\PSoC5/CAN_TX_RX_func.c **** *  This function cancels transmission of a message that has been queued to be
 186:.\Generated_Source\PSoC5/CAN_TX_RX_func.c **** *  transmitted. Values between 0 and 7 are valid.
 187:.\Generated_Source\PSoC5/CAN_TX_RX_func.c **** *
 188:.\Generated_Source\PSoC5/CAN_TX_RX_func.c **** * Parameters:
 189:.\Generated_Source\PSoC5/CAN_TX_RX_func.c **** *  bufferId: The mailbox number.
 190:.\Generated_Source\PSoC5/CAN_TX_RX_func.c **** *
 191:.\Generated_Source\PSoC5/CAN_TX_RX_func.c **** * Return:
 192:.\Generated_Source\PSoC5/CAN_TX_RX_func.c **** *  None.
 193:.\Generated_Source\PSoC5/CAN_TX_RX_func.c **** *
 194:.\Generated_Source\PSoC5/CAN_TX_RX_func.c **** *******************************************************************************/
 195:.\Generated_Source\PSoC5/CAN_TX_RX_func.c **** void CAN_TxCancel(uint8 bufferId) 
 196:.\Generated_Source\PSoC5/CAN_TX_RX_func.c **** {
 220              		.loc 1 196 0
 221              		.cfi_startproc
 222              		@ args = 0, pretend = 0, frame = 0
 223              		@ frame_needed = 0, uses_anonymous_args = 0
 224              		@ link register save eliminated.
 225              	.LVL27:
 197:.\Generated_Source\PSoC5/CAN_TX_RX_func.c ****     if (bufferId < CAN_NUMBER_OF_TX_MAILBOXES)
 226              		.loc 1 197 0
 227 0000 0728     		cmp	r0, #7
 228 0002 07D8     		bhi	.L24
 198:.\Generated_Source\PSoC5/CAN_TX_RX_func.c ****     {
 199:.\Generated_Source\PSoC5/CAN_TX_RX_func.c ****         CAN_TX_ABORT_MESSAGE(bufferId);
 229              		.loc 1 199 0
 230 0004 0001     		lsls	r0, r0, #4
 231              	.LVL28:
 232 0006 044A     		ldr	r2, .L26
 233 0008 835C     		ldrb	r3, [r0, r2]	@ zero_extendqisi2
 234 000a 03F0FC03 		and	r3, r3, #252
 235 000e 43F00203 		orr	r3, r3, #2
 236 0012 8354     		strb	r3, [r0, r2]
 237              	.L24:
 238 0014 7047     		bx	lr
 239              	.L27:
 240 0016 00BF     		.align	2
 241              	.L26:
 242 0018 20A00040 		.word	1073782816
 243              		.cfi_endproc
 244              	.LFE1:
 245              		.size	CAN_TxCancel, .-CAN_TxCancel
 246              		.section	.text.CAN_ReceiveMsg,"ax",%progbits
 247              		.align	2
 248              		.global	CAN_ReceiveMsg
 249              		.thumb
 250              		.thumb_func
ARM GAS  C:\Users\charl\AppData\Local\Temp\ccRVL0BE.s 			page 9


 251              		.type	CAN_ReceiveMsg, %function
 252              	CAN_ReceiveMsg:
 253              	.LFB2:
 200:.\Generated_Source\PSoC5/CAN_TX_RX_func.c ****     }
 201:.\Generated_Source\PSoC5/CAN_TX_RX_func.c **** }
 202:.\Generated_Source\PSoC5/CAN_TX_RX_func.c **** 
 203:.\Generated_Source\PSoC5/CAN_TX_RX_func.c **** 
 204:.\Generated_Source\PSoC5/CAN_TX_RX_func.c **** #if (CAN_TX0_FUNC_ENABLE)
 205:.\Generated_Source\PSoC5/CAN_TX_RX_func.c ****     /*******************************************************************************
 206:.\Generated_Source\PSoC5/CAN_TX_RX_func.c ****     * FUNCTION NAME:   CAN_SendMsg0
 207:.\Generated_Source\PSoC5/CAN_TX_RX_func.c ****     ********************************************************************************
 208:.\Generated_Source\PSoC5/CAN_TX_RX_func.c ****     *
 209:.\Generated_Source\PSoC5/CAN_TX_RX_func.c ****     * Summary:
 210:.\Generated_Source\PSoC5/CAN_TX_RX_func.c ****     *  This function is the entry point to Transmit Message 0. The function checks
 211:.\Generated_Source\PSoC5/CAN_TX_RX_func.c ****     *  if mailbox 0 doesn't already have un-transmitted messages waiting for
 212:.\Generated_Source\PSoC5/CAN_TX_RX_func.c ****     *  arbitration. If not initiate transmission of the message.
 213:.\Generated_Source\PSoC5/CAN_TX_RX_func.c ****     *  Generated only for the Transmit mailbox designed as Full.
 214:.\Generated_Source\PSoC5/CAN_TX_RX_func.c ****     *
 215:.\Generated_Source\PSoC5/CAN_TX_RX_func.c ****     * Parameters:
 216:.\Generated_Source\PSoC5/CAN_TX_RX_func.c ****     *  None.
 217:.\Generated_Source\PSoC5/CAN_TX_RX_func.c ****     *
 218:.\Generated_Source\PSoC5/CAN_TX_RX_func.c ****     * Return:
 219:.\Generated_Source\PSoC5/CAN_TX_RX_func.c ****     *  Indication if Message has been sent.
 220:.\Generated_Source\PSoC5/CAN_TX_RX_func.c ****     *   Define                             Description
 221:.\Generated_Source\PSoC5/CAN_TX_RX_func.c ****     *    CYRET_SUCCESS                      The function passed successfully
 222:.\Generated_Source\PSoC5/CAN_TX_RX_func.c ****     *    CAN_FAIL              The function failed
 223:.\Generated_Source\PSoC5/CAN_TX_RX_func.c ****     *
 224:.\Generated_Source\PSoC5/CAN_TX_RX_func.c ****     *******************************************************************************/
 225:.\Generated_Source\PSoC5/CAN_TX_RX_func.c ****     uint8 CAN_SendMsg0(void) 
 226:.\Generated_Source\PSoC5/CAN_TX_RX_func.c ****     {
 227:.\Generated_Source\PSoC5/CAN_TX_RX_func.c ****         uint8 result = CYRET_SUCCESS;
 228:.\Generated_Source\PSoC5/CAN_TX_RX_func.c **** 
 229:.\Generated_Source\PSoC5/CAN_TX_RX_func.c ****         #if (CY_PSOC3 || CY_PSOC5)
 230:.\Generated_Source\PSoC5/CAN_TX_RX_func.c ****             if ((CAN_TX[0u].txcmd.byte[0u] & CAN_TX_REQUEST_PENDING) != 0u)
 231:.\Generated_Source\PSoC5/CAN_TX_RX_func.c ****         #else  /* CY_PSOC4 */
 232:.\Generated_Source\PSoC5/CAN_TX_RX_func.c ****             if ((CAN_TX_CMD_REG(0u) & CAN_TX_REQUEST_PENDING) != 0u)
 233:.\Generated_Source\PSoC5/CAN_TX_RX_func.c ****         #endif /* CY_PSOC3 || CY_PSOC5 */
 234:.\Generated_Source\PSoC5/CAN_TX_RX_func.c ****             {
 235:.\Generated_Source\PSoC5/CAN_TX_RX_func.c ****                 result = CAN_FAIL;
 236:.\Generated_Source\PSoC5/CAN_TX_RX_func.c ****             }
 237:.\Generated_Source\PSoC5/CAN_TX_RX_func.c ****             else
 238:.\Generated_Source\PSoC5/CAN_TX_RX_func.c ****             {
 239:.\Generated_Source\PSoC5/CAN_TX_RX_func.c ****                 /* `#START MESSAGE_0_TRASMITTED` */
 240:.\Generated_Source\PSoC5/CAN_TX_RX_func.c **** 
 241:.\Generated_Source\PSoC5/CAN_TX_RX_func.c ****                 /* `#END` */
 242:.\Generated_Source\PSoC5/CAN_TX_RX_func.c **** 
 243:.\Generated_Source\PSoC5/CAN_TX_RX_func.c ****                 #ifdef CAN_SEND_MSG_0_CALLBACK
 244:.\Generated_Source\PSoC5/CAN_TX_RX_func.c ****                     CAN_SendMsg_0_Callback();
 245:.\Generated_Source\PSoC5/CAN_TX_RX_func.c ****                 #endif /* CAN_SEND_MSG_0_CALLBACK */
 246:.\Generated_Source\PSoC5/CAN_TX_RX_func.c **** 
 247:.\Generated_Source\PSoC5/CAN_TX_RX_func.c ****                 CY_SET_REG32(CAN_TX_CMD_PTR(0u),
 248:.\Generated_Source\PSoC5/CAN_TX_RX_func.c ****                 CY_GET_REG32(CAN_TX_CMD_PTR(0u)) | CAN_SEND_MESSAGE);
 249:.\Generated_Source\PSoC5/CAN_TX_RX_func.c ****             }
 250:.\Generated_Source\PSoC5/CAN_TX_RX_func.c **** 
 251:.\Generated_Source\PSoC5/CAN_TX_RX_func.c ****         return (result);
 252:.\Generated_Source\PSoC5/CAN_TX_RX_func.c ****     }
 253:.\Generated_Source\PSoC5/CAN_TX_RX_func.c **** #endif /* CAN_TX0_FUNC_ENABLE */
ARM GAS  C:\Users\charl\AppData\Local\Temp\ccRVL0BE.s 			page 10


 254:.\Generated_Source\PSoC5/CAN_TX_RX_func.c **** 
 255:.\Generated_Source\PSoC5/CAN_TX_RX_func.c **** 
 256:.\Generated_Source\PSoC5/CAN_TX_RX_func.c **** #if (CAN_TX1_FUNC_ENABLE)
 257:.\Generated_Source\PSoC5/CAN_TX_RX_func.c ****     /*******************************************************************************
 258:.\Generated_Source\PSoC5/CAN_TX_RX_func.c ****     * FUNCTION NAME:   CAN_SendMsg1
 259:.\Generated_Source\PSoC5/CAN_TX_RX_func.c ****     ********************************************************************************
 260:.\Generated_Source\PSoC5/CAN_TX_RX_func.c ****     *
 261:.\Generated_Source\PSoC5/CAN_TX_RX_func.c ****     * Summary:
 262:.\Generated_Source\PSoC5/CAN_TX_RX_func.c ****     *  This function is the entry point to Transmit Message 1. The function checks
 263:.\Generated_Source\PSoC5/CAN_TX_RX_func.c ****     *  if mailbox 1 doesn't already have un-transmitted messages waiting for
 264:.\Generated_Source\PSoC5/CAN_TX_RX_func.c ****     *  arbitration. If not initiate transmission of the message.
 265:.\Generated_Source\PSoC5/CAN_TX_RX_func.c ****     *  Generated only for the Transmit mailbox designed as Full.
 266:.\Generated_Source\PSoC5/CAN_TX_RX_func.c ****     *
 267:.\Generated_Source\PSoC5/CAN_TX_RX_func.c ****     * Parameters:
 268:.\Generated_Source\PSoC5/CAN_TX_RX_func.c ****     *  None.
 269:.\Generated_Source\PSoC5/CAN_TX_RX_func.c ****     *
 270:.\Generated_Source\PSoC5/CAN_TX_RX_func.c ****     * Return:
 271:.\Generated_Source\PSoC5/CAN_TX_RX_func.c ****     *  Indication if Message has been sent.
 272:.\Generated_Source\PSoC5/CAN_TX_RX_func.c ****     *   Define                             Description
 273:.\Generated_Source\PSoC5/CAN_TX_RX_func.c ****     *    CYRET_SUCCESS                      The function passed successfully
 274:.\Generated_Source\PSoC5/CAN_TX_RX_func.c ****     *    CAN_FAIL              The function failed
 275:.\Generated_Source\PSoC5/CAN_TX_RX_func.c ****     *
 276:.\Generated_Source\PSoC5/CAN_TX_RX_func.c ****     *******************************************************************************/
 277:.\Generated_Source\PSoC5/CAN_TX_RX_func.c ****     uint8 CAN_SendMsg1(void) 
 278:.\Generated_Source\PSoC5/CAN_TX_RX_func.c ****     {
 279:.\Generated_Source\PSoC5/CAN_TX_RX_func.c ****         uint8 result = CYRET_SUCCESS;
 280:.\Generated_Source\PSoC5/CAN_TX_RX_func.c **** 
 281:.\Generated_Source\PSoC5/CAN_TX_RX_func.c ****         #if (CY_PSOC3 || CY_PSOC5)
 282:.\Generated_Source\PSoC5/CAN_TX_RX_func.c ****             if ((CAN_TX[1u].txcmd.byte[0u] & CAN_TX_REQUEST_PENDING) != 0u)
 283:.\Generated_Source\PSoC5/CAN_TX_RX_func.c ****         #else  /* CY_PSOC4 */
 284:.\Generated_Source\PSoC5/CAN_TX_RX_func.c ****             if ((CAN_TX_CMD_REG(1u) & CAN_TX_REQUEST_PENDING) != 0u)
 285:.\Generated_Source\PSoC5/CAN_TX_RX_func.c ****         #endif /* CY_PSOC3 || CY_PSOC5 */
 286:.\Generated_Source\PSoC5/CAN_TX_RX_func.c ****             {
 287:.\Generated_Source\PSoC5/CAN_TX_RX_func.c ****                 result = CAN_FAIL;
 288:.\Generated_Source\PSoC5/CAN_TX_RX_func.c ****             }
 289:.\Generated_Source\PSoC5/CAN_TX_RX_func.c ****             else
 290:.\Generated_Source\PSoC5/CAN_TX_RX_func.c ****             {
 291:.\Generated_Source\PSoC5/CAN_TX_RX_func.c ****                 /* `#START MESSAGE_1_TRASMITTED` */
 292:.\Generated_Source\PSoC5/CAN_TX_RX_func.c **** 
 293:.\Generated_Source\PSoC5/CAN_TX_RX_func.c ****                 /* `#END` */
 294:.\Generated_Source\PSoC5/CAN_TX_RX_func.c **** 
 295:.\Generated_Source\PSoC5/CAN_TX_RX_func.c ****                 #ifdef CAN_SEND_MSG_1_CALLBACK
 296:.\Generated_Source\PSoC5/CAN_TX_RX_func.c ****                     CAN_SendMsg_1_Callback();
 297:.\Generated_Source\PSoC5/CAN_TX_RX_func.c ****                 #endif /* CAN_SEND_MSG_1_CALLBACK */
 298:.\Generated_Source\PSoC5/CAN_TX_RX_func.c **** 
 299:.\Generated_Source\PSoC5/CAN_TX_RX_func.c ****                 CY_SET_REG32(CAN_TX_CMD_PTR(1u),
 300:.\Generated_Source\PSoC5/CAN_TX_RX_func.c ****                 CY_GET_REG32(CAN_TX_CMD_PTR(1u)) | CAN_SEND_MESSAGE);
 301:.\Generated_Source\PSoC5/CAN_TX_RX_func.c ****             }
 302:.\Generated_Source\PSoC5/CAN_TX_RX_func.c **** 
 303:.\Generated_Source\PSoC5/CAN_TX_RX_func.c ****         return (result);
 304:.\Generated_Source\PSoC5/CAN_TX_RX_func.c ****     }
 305:.\Generated_Source\PSoC5/CAN_TX_RX_func.c **** #endif /* CAN_TX1_FUNC_ENABLE */
 306:.\Generated_Source\PSoC5/CAN_TX_RX_func.c **** 
 307:.\Generated_Source\PSoC5/CAN_TX_RX_func.c **** 
 308:.\Generated_Source\PSoC5/CAN_TX_RX_func.c **** #if (CAN_TX2_FUNC_ENABLE)
 309:.\Generated_Source\PSoC5/CAN_TX_RX_func.c ****     /*******************************************************************************
 310:.\Generated_Source\PSoC5/CAN_TX_RX_func.c ****     * FUNCTION NAME:   CAN_SendMsg2
ARM GAS  C:\Users\charl\AppData\Local\Temp\ccRVL0BE.s 			page 11


 311:.\Generated_Source\PSoC5/CAN_TX_RX_func.c ****     ********************************************************************************
 312:.\Generated_Source\PSoC5/CAN_TX_RX_func.c ****     *
 313:.\Generated_Source\PSoC5/CAN_TX_RX_func.c ****     * Summary:
 314:.\Generated_Source\PSoC5/CAN_TX_RX_func.c ****     *  This function is the entry point to Transmit Message 2. The function checks
 315:.\Generated_Source\PSoC5/CAN_TX_RX_func.c ****     *  if mailbox 2 doesn't already have un-transmitted messages waiting for
 316:.\Generated_Source\PSoC5/CAN_TX_RX_func.c ****     *  arbitration. If not initiate transmission of the message.
 317:.\Generated_Source\PSoC5/CAN_TX_RX_func.c ****     *  Generated only for the Transmit mailbox designed as Full.
 318:.\Generated_Source\PSoC5/CAN_TX_RX_func.c ****     *
 319:.\Generated_Source\PSoC5/CAN_TX_RX_func.c ****     * Parameters:
 320:.\Generated_Source\PSoC5/CAN_TX_RX_func.c ****     *  None.
 321:.\Generated_Source\PSoC5/CAN_TX_RX_func.c ****     *
 322:.\Generated_Source\PSoC5/CAN_TX_RX_func.c ****     * Return:
 323:.\Generated_Source\PSoC5/CAN_TX_RX_func.c ****     *  Indication if Message has been sent.
 324:.\Generated_Source\PSoC5/CAN_TX_RX_func.c ****     *   Define                             Description
 325:.\Generated_Source\PSoC5/CAN_TX_RX_func.c ****     *    CYRET_SUCCESS                      The function passed successfully
 326:.\Generated_Source\PSoC5/CAN_TX_RX_func.c ****     *    CAN_FAIL              The function failed
 327:.\Generated_Source\PSoC5/CAN_TX_RX_func.c ****     *
 328:.\Generated_Source\PSoC5/CAN_TX_RX_func.c ****     *******************************************************************************/
 329:.\Generated_Source\PSoC5/CAN_TX_RX_func.c ****     uint8 CAN_SendMsg2(void) 
 330:.\Generated_Source\PSoC5/CAN_TX_RX_func.c ****     {
 331:.\Generated_Source\PSoC5/CAN_TX_RX_func.c ****         uint8 result = CYRET_SUCCESS;
 332:.\Generated_Source\PSoC5/CAN_TX_RX_func.c **** 
 333:.\Generated_Source\PSoC5/CAN_TX_RX_func.c ****         #if (CY_PSOC3 || CY_PSOC5)
 334:.\Generated_Source\PSoC5/CAN_TX_RX_func.c ****             if ((CAN_TX[2u].txcmd.byte[0u] & CAN_TX_REQUEST_PENDING) != 0u)
 335:.\Generated_Source\PSoC5/CAN_TX_RX_func.c ****         #else  /* CY_PSOC4 */
 336:.\Generated_Source\PSoC5/CAN_TX_RX_func.c ****             if ((CAN_TX_CMD_REG(2u) & CAN_TX_REQUEST_PENDING) != 0u)
 337:.\Generated_Source\PSoC5/CAN_TX_RX_func.c ****         #endif /* CY_PSOC3 || CY_PSOC5 */
 338:.\Generated_Source\PSoC5/CAN_TX_RX_func.c ****             {
 339:.\Generated_Source\PSoC5/CAN_TX_RX_func.c ****                 result = CAN_FAIL;
 340:.\Generated_Source\PSoC5/CAN_TX_RX_func.c ****             }
 341:.\Generated_Source\PSoC5/CAN_TX_RX_func.c ****             else
 342:.\Generated_Source\PSoC5/CAN_TX_RX_func.c ****             {
 343:.\Generated_Source\PSoC5/CAN_TX_RX_func.c ****                 /* `#START MESSAGE_2_TRASMITTED` */
 344:.\Generated_Source\PSoC5/CAN_TX_RX_func.c **** 
 345:.\Generated_Source\PSoC5/CAN_TX_RX_func.c ****                 /* `#END` */
 346:.\Generated_Source\PSoC5/CAN_TX_RX_func.c **** 
 347:.\Generated_Source\PSoC5/CAN_TX_RX_func.c ****                 #ifdef CAN_SEND_MSG_2_CALLBACK
 348:.\Generated_Source\PSoC5/CAN_TX_RX_func.c ****                     CAN_SendMsg_2_Callback();
 349:.\Generated_Source\PSoC5/CAN_TX_RX_func.c ****                 #endif /* CAN_SEND_MSG_2_CALLBACK */
 350:.\Generated_Source\PSoC5/CAN_TX_RX_func.c **** 
 351:.\Generated_Source\PSoC5/CAN_TX_RX_func.c ****                 CY_SET_REG32(CAN_TX_CMD_PTR(2u),
 352:.\Generated_Source\PSoC5/CAN_TX_RX_func.c ****                 CY_GET_REG32(CAN_TX_CMD_PTR(2u)) | CAN_SEND_MESSAGE);
 353:.\Generated_Source\PSoC5/CAN_TX_RX_func.c ****             }
 354:.\Generated_Source\PSoC5/CAN_TX_RX_func.c **** 
 355:.\Generated_Source\PSoC5/CAN_TX_RX_func.c ****         return (result);
 356:.\Generated_Source\PSoC5/CAN_TX_RX_func.c ****     }
 357:.\Generated_Source\PSoC5/CAN_TX_RX_func.c **** #endif /* CAN_TX2_FUNC_ENABLE */
 358:.\Generated_Source\PSoC5/CAN_TX_RX_func.c **** 
 359:.\Generated_Source\PSoC5/CAN_TX_RX_func.c **** 
 360:.\Generated_Source\PSoC5/CAN_TX_RX_func.c **** #if (CAN_TX3_FUNC_ENABLE)
 361:.\Generated_Source\PSoC5/CAN_TX_RX_func.c ****     /*******************************************************************************
 362:.\Generated_Source\PSoC5/CAN_TX_RX_func.c ****     * FUNCTION NAME:   CAN_SendMsg3
 363:.\Generated_Source\PSoC5/CAN_TX_RX_func.c ****     ********************************************************************************
 364:.\Generated_Source\PSoC5/CAN_TX_RX_func.c ****     *
 365:.\Generated_Source\PSoC5/CAN_TX_RX_func.c ****     * Summary:
 366:.\Generated_Source\PSoC5/CAN_TX_RX_func.c ****     *  This function is the entry point to Transmit Message 3. The function checks
 367:.\Generated_Source\PSoC5/CAN_TX_RX_func.c ****     *  if mailbox 3 doesn't already have un-transmitted messages waiting for
ARM GAS  C:\Users\charl\AppData\Local\Temp\ccRVL0BE.s 			page 12


 368:.\Generated_Source\PSoC5/CAN_TX_RX_func.c ****     *  arbitration. If not initiate transmission of the message.
 369:.\Generated_Source\PSoC5/CAN_TX_RX_func.c ****     *  Generated only for the Transmit mailbox designed as Full.
 370:.\Generated_Source\PSoC5/CAN_TX_RX_func.c ****     *
 371:.\Generated_Source\PSoC5/CAN_TX_RX_func.c ****     * Parameters:
 372:.\Generated_Source\PSoC5/CAN_TX_RX_func.c ****     *  None.
 373:.\Generated_Source\PSoC5/CAN_TX_RX_func.c ****     *
 374:.\Generated_Source\PSoC5/CAN_TX_RX_func.c ****     * Return:
 375:.\Generated_Source\PSoC5/CAN_TX_RX_func.c ****     *  Indication if Message has been sent.
 376:.\Generated_Source\PSoC5/CAN_TX_RX_func.c ****     *   Define                             Description
 377:.\Generated_Source\PSoC5/CAN_TX_RX_func.c ****     *    CYRET_SUCCESS                      The function passed successfully
 378:.\Generated_Source\PSoC5/CAN_TX_RX_func.c ****     *    CAN_FAIL              The function failed
 379:.\Generated_Source\PSoC5/CAN_TX_RX_func.c ****     *
 380:.\Generated_Source\PSoC5/CAN_TX_RX_func.c ****     *******************************************************************************/
 381:.\Generated_Source\PSoC5/CAN_TX_RX_func.c ****     uint8 CAN_SendMsg3(void) 
 382:.\Generated_Source\PSoC5/CAN_TX_RX_func.c ****     {
 383:.\Generated_Source\PSoC5/CAN_TX_RX_func.c ****         uint8 result = CYRET_SUCCESS;
 384:.\Generated_Source\PSoC5/CAN_TX_RX_func.c **** 
 385:.\Generated_Source\PSoC5/CAN_TX_RX_func.c ****         #if (CY_PSOC3 || CY_PSOC5)
 386:.\Generated_Source\PSoC5/CAN_TX_RX_func.c ****             if ((CAN_TX[3u].txcmd.byte[0u] & CAN_TX_REQUEST_PENDING) != 0u)
 387:.\Generated_Source\PSoC5/CAN_TX_RX_func.c ****         #else  /* CY_PSOC4 */
 388:.\Generated_Source\PSoC5/CAN_TX_RX_func.c ****             if ((CAN_TX_CMD_REG(3u) & CAN_TX_REQUEST_PENDING) != 0u)
 389:.\Generated_Source\PSoC5/CAN_TX_RX_func.c ****         #endif /* CY_PSOC3 || CY_PSOC5 */
 390:.\Generated_Source\PSoC5/CAN_TX_RX_func.c ****             {
 391:.\Generated_Source\PSoC5/CAN_TX_RX_func.c ****                 result = CAN_FAIL;
 392:.\Generated_Source\PSoC5/CAN_TX_RX_func.c ****             }
 393:.\Generated_Source\PSoC5/CAN_TX_RX_func.c ****             else
 394:.\Generated_Source\PSoC5/CAN_TX_RX_func.c ****             {
 395:.\Generated_Source\PSoC5/CAN_TX_RX_func.c ****                 /* `#START MESSAGE_3_TRASMITTED` */
 396:.\Generated_Source\PSoC5/CAN_TX_RX_func.c **** 
 397:.\Generated_Source\PSoC5/CAN_TX_RX_func.c ****                 /* `#END` */
 398:.\Generated_Source\PSoC5/CAN_TX_RX_func.c **** 
 399:.\Generated_Source\PSoC5/CAN_TX_RX_func.c ****                 #ifdef CAN_SEND_MSG_3_CALLBACK
 400:.\Generated_Source\PSoC5/CAN_TX_RX_func.c ****                     CAN_SendMsg_3_Callback();
 401:.\Generated_Source\PSoC5/CAN_TX_RX_func.c ****                 #endif /* CAN_SEND_MSG_3_CALLBACK */
 402:.\Generated_Source\PSoC5/CAN_TX_RX_func.c **** 
 403:.\Generated_Source\PSoC5/CAN_TX_RX_func.c ****                 CY_SET_REG32(CAN_TX_CMD_PTR(3u),
 404:.\Generated_Source\PSoC5/CAN_TX_RX_func.c ****                 CY_GET_REG32(CAN_TX_CMD_PTR(3u)) | CAN_SEND_MESSAGE);
 405:.\Generated_Source\PSoC5/CAN_TX_RX_func.c ****             }
 406:.\Generated_Source\PSoC5/CAN_TX_RX_func.c **** 
 407:.\Generated_Source\PSoC5/CAN_TX_RX_func.c ****         return (result);
 408:.\Generated_Source\PSoC5/CAN_TX_RX_func.c ****     }
 409:.\Generated_Source\PSoC5/CAN_TX_RX_func.c **** #endif /* CAN_TX3_FUNC_ENABLE */
 410:.\Generated_Source\PSoC5/CAN_TX_RX_func.c **** 
 411:.\Generated_Source\PSoC5/CAN_TX_RX_func.c **** 
 412:.\Generated_Source\PSoC5/CAN_TX_RX_func.c **** #if (CAN_TX4_FUNC_ENABLE)
 413:.\Generated_Source\PSoC5/CAN_TX_RX_func.c ****     /*******************************************************************************
 414:.\Generated_Source\PSoC5/CAN_TX_RX_func.c ****     * FUNCTION NAME:   CAN_SendMsg4
 415:.\Generated_Source\PSoC5/CAN_TX_RX_func.c ****     ********************************************************************************
 416:.\Generated_Source\PSoC5/CAN_TX_RX_func.c ****     *
 417:.\Generated_Source\PSoC5/CAN_TX_RX_func.c ****     * Summary:
 418:.\Generated_Source\PSoC5/CAN_TX_RX_func.c ****     *  This function is the entry point to Transmit Message 4. The function checks
 419:.\Generated_Source\PSoC5/CAN_TX_RX_func.c ****     *  if mailbox 4 doesn't already have un-transmitted messages waiting for
 420:.\Generated_Source\PSoC5/CAN_TX_RX_func.c ****     *  arbitration. If not initiate transmission of the message.
 421:.\Generated_Source\PSoC5/CAN_TX_RX_func.c ****     *  Generated only for the Transmit mailbox designed as Full.
 422:.\Generated_Source\PSoC5/CAN_TX_RX_func.c ****     *
 423:.\Generated_Source\PSoC5/CAN_TX_RX_func.c ****     * Parameters:
 424:.\Generated_Source\PSoC5/CAN_TX_RX_func.c ****     *  None.
ARM GAS  C:\Users\charl\AppData\Local\Temp\ccRVL0BE.s 			page 13


 425:.\Generated_Source\PSoC5/CAN_TX_RX_func.c ****     *
 426:.\Generated_Source\PSoC5/CAN_TX_RX_func.c ****     * Return:
 427:.\Generated_Source\PSoC5/CAN_TX_RX_func.c ****     *  Indication if Message has been sent.
 428:.\Generated_Source\PSoC5/CAN_TX_RX_func.c ****     *   Define                             Description
 429:.\Generated_Source\PSoC5/CAN_TX_RX_func.c ****     *    CYRET_SUCCESS                      The function passed successfully
 430:.\Generated_Source\PSoC5/CAN_TX_RX_func.c ****     *    CAN_FAIL              The function failed
 431:.\Generated_Source\PSoC5/CAN_TX_RX_func.c ****     *
 432:.\Generated_Source\PSoC5/CAN_TX_RX_func.c ****     *******************************************************************************/
 433:.\Generated_Source\PSoC5/CAN_TX_RX_func.c ****     uint8 CAN_SendMsg4(void) 
 434:.\Generated_Source\PSoC5/CAN_TX_RX_func.c ****     {
 435:.\Generated_Source\PSoC5/CAN_TX_RX_func.c ****         uint8 result = CYRET_SUCCESS;
 436:.\Generated_Source\PSoC5/CAN_TX_RX_func.c **** 
 437:.\Generated_Source\PSoC5/CAN_TX_RX_func.c ****         #if (CY_PSOC3 || CY_PSOC5)
 438:.\Generated_Source\PSoC5/CAN_TX_RX_func.c ****             if ((CAN_TX[4u].txcmd.byte[0u] & CAN_TX_REQUEST_PENDING) != 0u)
 439:.\Generated_Source\PSoC5/CAN_TX_RX_func.c ****         #else  /* CY_PSOC4 */
 440:.\Generated_Source\PSoC5/CAN_TX_RX_func.c ****             if ((CAN_TX_CMD_REG(4u) & CAN_TX_REQUEST_PENDING) != 0u)
 441:.\Generated_Source\PSoC5/CAN_TX_RX_func.c ****         #endif /* CY_PSOC3 || CY_PSOC5 */
 442:.\Generated_Source\PSoC5/CAN_TX_RX_func.c ****             {
 443:.\Generated_Source\PSoC5/CAN_TX_RX_func.c ****                 result = CAN_FAIL;
 444:.\Generated_Source\PSoC5/CAN_TX_RX_func.c ****             }
 445:.\Generated_Source\PSoC5/CAN_TX_RX_func.c ****             else
 446:.\Generated_Source\PSoC5/CAN_TX_RX_func.c ****             {
 447:.\Generated_Source\PSoC5/CAN_TX_RX_func.c ****                 /* `#START MESSAGE_4_TRASMITTED` */
 448:.\Generated_Source\PSoC5/CAN_TX_RX_func.c **** 
 449:.\Generated_Source\PSoC5/CAN_TX_RX_func.c ****                 /* `#END` */
 450:.\Generated_Source\PSoC5/CAN_TX_RX_func.c **** 
 451:.\Generated_Source\PSoC5/CAN_TX_RX_func.c ****                 #ifdef CAN_SEND_MSG_4_CALLBACK
 452:.\Generated_Source\PSoC5/CAN_TX_RX_func.c ****                     CAN_SendMsg_4_Callback();
 453:.\Generated_Source\PSoC5/CAN_TX_RX_func.c ****                 #endif /* CAN_SEND_MSG_4_CALLBACK */
 454:.\Generated_Source\PSoC5/CAN_TX_RX_func.c **** 
 455:.\Generated_Source\PSoC5/CAN_TX_RX_func.c ****                 CY_SET_REG32(CAN_TX_CMD_PTR(4u),
 456:.\Generated_Source\PSoC5/CAN_TX_RX_func.c ****                 CY_GET_REG32(CAN_TX_CMD_PTR(4u)) | CAN_SEND_MESSAGE);
 457:.\Generated_Source\PSoC5/CAN_TX_RX_func.c ****             }
 458:.\Generated_Source\PSoC5/CAN_TX_RX_func.c **** 
 459:.\Generated_Source\PSoC5/CAN_TX_RX_func.c ****         return (result);
 460:.\Generated_Source\PSoC5/CAN_TX_RX_func.c ****     }
 461:.\Generated_Source\PSoC5/CAN_TX_RX_func.c **** #endif /* CAN_TX4_FUNC_ENABLE */
 462:.\Generated_Source\PSoC5/CAN_TX_RX_func.c **** 
 463:.\Generated_Source\PSoC5/CAN_TX_RX_func.c **** 
 464:.\Generated_Source\PSoC5/CAN_TX_RX_func.c **** #if (CAN_TX5_FUNC_ENABLE)
 465:.\Generated_Source\PSoC5/CAN_TX_RX_func.c ****     /*******************************************************************************
 466:.\Generated_Source\PSoC5/CAN_TX_RX_func.c ****     * FUNCTION NAME:   CAN_SendMsg5
 467:.\Generated_Source\PSoC5/CAN_TX_RX_func.c ****     ********************************************************************************
 468:.\Generated_Source\PSoC5/CAN_TX_RX_func.c ****     *
 469:.\Generated_Source\PSoC5/CAN_TX_RX_func.c ****     * Summary:
 470:.\Generated_Source\PSoC5/CAN_TX_RX_func.c ****     *  This function is the entry point to Transmit Message 5. The function checks
 471:.\Generated_Source\PSoC5/CAN_TX_RX_func.c ****     *  if mailbox 5 doesn't already have un-transmitted messages waiting for
 472:.\Generated_Source\PSoC5/CAN_TX_RX_func.c ****     *  arbitration. If not initiate transmission of the message.
 473:.\Generated_Source\PSoC5/CAN_TX_RX_func.c ****     *  Generated only for the Transmit mailbox designed as Full.
 474:.\Generated_Source\PSoC5/CAN_TX_RX_func.c ****     *
 475:.\Generated_Source\PSoC5/CAN_TX_RX_func.c ****     * Parameters:
 476:.\Generated_Source\PSoC5/CAN_TX_RX_func.c ****     *  None.
 477:.\Generated_Source\PSoC5/CAN_TX_RX_func.c ****     *
 478:.\Generated_Source\PSoC5/CAN_TX_RX_func.c ****     * Return:
 479:.\Generated_Source\PSoC5/CAN_TX_RX_func.c ****     *  Indication if Message has been sent.
 480:.\Generated_Source\PSoC5/CAN_TX_RX_func.c ****     *   Define                             Description
 481:.\Generated_Source\PSoC5/CAN_TX_RX_func.c ****     *    CYRET_SUCCESS                      The function passed successfully
ARM GAS  C:\Users\charl\AppData\Local\Temp\ccRVL0BE.s 			page 14


 482:.\Generated_Source\PSoC5/CAN_TX_RX_func.c ****     *    CAN_FAIL              The function failed
 483:.\Generated_Source\PSoC5/CAN_TX_RX_func.c ****     *
 484:.\Generated_Source\PSoC5/CAN_TX_RX_func.c ****     *******************************************************************************/
 485:.\Generated_Source\PSoC5/CAN_TX_RX_func.c ****     uint8 CAN_SendMsg5(void) 
 486:.\Generated_Source\PSoC5/CAN_TX_RX_func.c ****     {
 487:.\Generated_Source\PSoC5/CAN_TX_RX_func.c ****         uint8 result = CYRET_SUCCESS;
 488:.\Generated_Source\PSoC5/CAN_TX_RX_func.c **** 
 489:.\Generated_Source\PSoC5/CAN_TX_RX_func.c ****         #if (CY_PSOC3 || CY_PSOC5)
 490:.\Generated_Source\PSoC5/CAN_TX_RX_func.c ****             if ((CAN_TX[5u].txcmd.byte[0u] & CAN_TX_REQUEST_PENDING) != 0u)
 491:.\Generated_Source\PSoC5/CAN_TX_RX_func.c ****         #else  /* CY_PSOC4 */
 492:.\Generated_Source\PSoC5/CAN_TX_RX_func.c ****             if ((CAN_TX_CMD_REG(5u) & CAN_TX_REQUEST_PENDING) != 0u)
 493:.\Generated_Source\PSoC5/CAN_TX_RX_func.c ****         #endif /* CY_PSOC3 || CY_PSOC5 */
 494:.\Generated_Source\PSoC5/CAN_TX_RX_func.c ****             {
 495:.\Generated_Source\PSoC5/CAN_TX_RX_func.c ****                 result = CAN_FAIL;
 496:.\Generated_Source\PSoC5/CAN_TX_RX_func.c ****             }
 497:.\Generated_Source\PSoC5/CAN_TX_RX_func.c ****             else
 498:.\Generated_Source\PSoC5/CAN_TX_RX_func.c ****             {
 499:.\Generated_Source\PSoC5/CAN_TX_RX_func.c ****                 /* `#START MESSAGE_5_TRASMITTED` */
 500:.\Generated_Source\PSoC5/CAN_TX_RX_func.c **** 
 501:.\Generated_Source\PSoC5/CAN_TX_RX_func.c ****                 /* `#END` */
 502:.\Generated_Source\PSoC5/CAN_TX_RX_func.c **** 
 503:.\Generated_Source\PSoC5/CAN_TX_RX_func.c ****                 #ifdef CAN_SEND_MSG_5_CALLBACK
 504:.\Generated_Source\PSoC5/CAN_TX_RX_func.c ****                     CAN_SendMsg_5_Callback();
 505:.\Generated_Source\PSoC5/CAN_TX_RX_func.c ****                 #endif /* CAN_SEND_MSG_5_CALLBACK */
 506:.\Generated_Source\PSoC5/CAN_TX_RX_func.c **** 
 507:.\Generated_Source\PSoC5/CAN_TX_RX_func.c ****                 CY_SET_REG32(CAN_TX_CMD_PTR(5u),
 508:.\Generated_Source\PSoC5/CAN_TX_RX_func.c ****                 CY_GET_REG32(CAN_TX_CMD_PTR(5u)) | CAN_SEND_MESSAGE);
 509:.\Generated_Source\PSoC5/CAN_TX_RX_func.c ****             }
 510:.\Generated_Source\PSoC5/CAN_TX_RX_func.c **** 
 511:.\Generated_Source\PSoC5/CAN_TX_RX_func.c ****         return (result);
 512:.\Generated_Source\PSoC5/CAN_TX_RX_func.c ****     }
 513:.\Generated_Source\PSoC5/CAN_TX_RX_func.c **** #endif /* CAN_TX5_FUNC_ENABLE */
 514:.\Generated_Source\PSoC5/CAN_TX_RX_func.c **** 
 515:.\Generated_Source\PSoC5/CAN_TX_RX_func.c **** 
 516:.\Generated_Source\PSoC5/CAN_TX_RX_func.c **** #if (CAN_TX6_FUNC_ENABLE)
 517:.\Generated_Source\PSoC5/CAN_TX_RX_func.c ****     /*******************************************************************************
 518:.\Generated_Source\PSoC5/CAN_TX_RX_func.c ****     * FUNCTION NAME:   CAN_SendMsg6
 519:.\Generated_Source\PSoC5/CAN_TX_RX_func.c ****     ********************************************************************************
 520:.\Generated_Source\PSoC5/CAN_TX_RX_func.c ****     *
 521:.\Generated_Source\PSoC5/CAN_TX_RX_func.c ****     * Summary:
 522:.\Generated_Source\PSoC5/CAN_TX_RX_func.c ****     *  This function is the entry point to Transmit Message 6. The function checks
 523:.\Generated_Source\PSoC5/CAN_TX_RX_func.c ****     *  if mailbox 6 doesn't already have un-transmitted messages waiting for
 524:.\Generated_Source\PSoC5/CAN_TX_RX_func.c ****     *  arbitration. If not initiate transmission of the message.
 525:.\Generated_Source\PSoC5/CAN_TX_RX_func.c ****     *  Generated only for the Transmit mailbox designed as Full.
 526:.\Generated_Source\PSoC5/CAN_TX_RX_func.c ****     *
 527:.\Generated_Source\PSoC5/CAN_TX_RX_func.c ****     * Parameters:
 528:.\Generated_Source\PSoC5/CAN_TX_RX_func.c ****     *  None.
 529:.\Generated_Source\PSoC5/CAN_TX_RX_func.c ****     *
 530:.\Generated_Source\PSoC5/CAN_TX_RX_func.c ****     * Return:
 531:.\Generated_Source\PSoC5/CAN_TX_RX_func.c ****     *  Indication if Message has been sent.
 532:.\Generated_Source\PSoC5/CAN_TX_RX_func.c ****     *   Define                             Description
 533:.\Generated_Source\PSoC5/CAN_TX_RX_func.c ****     *    CYRET_SUCCESS                      The function passed successfully
 534:.\Generated_Source\PSoC5/CAN_TX_RX_func.c ****     *    CAN_FAIL              The function failed
 535:.\Generated_Source\PSoC5/CAN_TX_RX_func.c ****     *
 536:.\Generated_Source\PSoC5/CAN_TX_RX_func.c ****     *******************************************************************************/
 537:.\Generated_Source\PSoC5/CAN_TX_RX_func.c ****     uint8 CAN_SendMsg6(void) 
 538:.\Generated_Source\PSoC5/CAN_TX_RX_func.c ****     {
ARM GAS  C:\Users\charl\AppData\Local\Temp\ccRVL0BE.s 			page 15


 539:.\Generated_Source\PSoC5/CAN_TX_RX_func.c ****         uint8 result = CYRET_SUCCESS;
 540:.\Generated_Source\PSoC5/CAN_TX_RX_func.c **** 
 541:.\Generated_Source\PSoC5/CAN_TX_RX_func.c ****         #if (CY_PSOC3 || CY_PSOC5)
 542:.\Generated_Source\PSoC5/CAN_TX_RX_func.c ****             if ((CAN_TX[6u].txcmd.byte[0u] & CAN_TX_REQUEST_PENDING) != 0u)
 543:.\Generated_Source\PSoC5/CAN_TX_RX_func.c ****         #else  /* CY_PSOC4 */
 544:.\Generated_Source\PSoC5/CAN_TX_RX_func.c ****             if ((CAN_TX_CMD_REG(6u) & CAN_TX_REQUEST_PENDING) != 0u)
 545:.\Generated_Source\PSoC5/CAN_TX_RX_func.c ****         #endif /* CY_PSOC3 || CY_PSOC5 */
 546:.\Generated_Source\PSoC5/CAN_TX_RX_func.c ****             {
 547:.\Generated_Source\PSoC5/CAN_TX_RX_func.c ****                 result = CAN_FAIL;
 548:.\Generated_Source\PSoC5/CAN_TX_RX_func.c ****             }
 549:.\Generated_Source\PSoC5/CAN_TX_RX_func.c ****             else
 550:.\Generated_Source\PSoC5/CAN_TX_RX_func.c ****             {
 551:.\Generated_Source\PSoC5/CAN_TX_RX_func.c ****                 /* `#START MESSAGE_6_TRASMITTED` */
 552:.\Generated_Source\PSoC5/CAN_TX_RX_func.c **** 
 553:.\Generated_Source\PSoC5/CAN_TX_RX_func.c ****                 /* `#END` */
 554:.\Generated_Source\PSoC5/CAN_TX_RX_func.c **** 
 555:.\Generated_Source\PSoC5/CAN_TX_RX_func.c ****                 #ifdef CAN_SEND_MSG_6_CALLBACK
 556:.\Generated_Source\PSoC5/CAN_TX_RX_func.c ****                     CAN_SendMsg_6_Callback();
 557:.\Generated_Source\PSoC5/CAN_TX_RX_func.c ****                 #endif /* CAN_SEND_MSG_6_CALLBACK */
 558:.\Generated_Source\PSoC5/CAN_TX_RX_func.c **** 
 559:.\Generated_Source\PSoC5/CAN_TX_RX_func.c ****                 CY_SET_REG32(CAN_TX_CMD_PTR(6u),
 560:.\Generated_Source\PSoC5/CAN_TX_RX_func.c ****                 CY_GET_REG32(CAN_TX_CMD_PTR(6u)) | CAN_SEND_MESSAGE);
 561:.\Generated_Source\PSoC5/CAN_TX_RX_func.c ****             }
 562:.\Generated_Source\PSoC5/CAN_TX_RX_func.c **** 
 563:.\Generated_Source\PSoC5/CAN_TX_RX_func.c ****         return (result);
 564:.\Generated_Source\PSoC5/CAN_TX_RX_func.c ****     }
 565:.\Generated_Source\PSoC5/CAN_TX_RX_func.c **** #endif /* CAN_TX6_FUNC_ENABLE */
 566:.\Generated_Source\PSoC5/CAN_TX_RX_func.c **** 
 567:.\Generated_Source\PSoC5/CAN_TX_RX_func.c **** 
 568:.\Generated_Source\PSoC5/CAN_TX_RX_func.c **** #if (CAN_TX7_FUNC_ENABLE)
 569:.\Generated_Source\PSoC5/CAN_TX_RX_func.c ****     /*******************************************************************************
 570:.\Generated_Source\PSoC5/CAN_TX_RX_func.c ****     * FUNCTION NAME:   CAN_SendMsg7)
 571:.\Generated_Source\PSoC5/CAN_TX_RX_func.c ****     ********************************************************************************
 572:.\Generated_Source\PSoC5/CAN_TX_RX_func.c ****     *
 573:.\Generated_Source\PSoC5/CAN_TX_RX_func.c ****     * Summary:
 574:.\Generated_Source\PSoC5/CAN_TX_RX_func.c ****     *  This function is the entry point to Transmit Message 7. The function checks
 575:.\Generated_Source\PSoC5/CAN_TX_RX_func.c ****     *  if mailbox 7 doesn't already have un-transmitted messages waiting for
 576:.\Generated_Source\PSoC5/CAN_TX_RX_func.c ****     *  arbitration. If not initiate transmission of the message.
 577:.\Generated_Source\PSoC5/CAN_TX_RX_func.c ****     *  Generated only for the Transmit mailbox designed as Full.
 578:.\Generated_Source\PSoC5/CAN_TX_RX_func.c ****     *
 579:.\Generated_Source\PSoC5/CAN_TX_RX_func.c ****     * Parameters:
 580:.\Generated_Source\PSoC5/CAN_TX_RX_func.c ****     *  None.
 581:.\Generated_Source\PSoC5/CAN_TX_RX_func.c ****     *
 582:.\Generated_Source\PSoC5/CAN_TX_RX_func.c ****     * Return:
 583:.\Generated_Source\PSoC5/CAN_TX_RX_func.c ****     *  Indication if Message has been sent.
 584:.\Generated_Source\PSoC5/CAN_TX_RX_func.c ****     *   Define                             Description
 585:.\Generated_Source\PSoC5/CAN_TX_RX_func.c ****     *    CYRET_SUCCESS                      The function passed successfully
 586:.\Generated_Source\PSoC5/CAN_TX_RX_func.c ****     *    CAN_FAIL              The function failed
 587:.\Generated_Source\PSoC5/CAN_TX_RX_func.c ****     *
 588:.\Generated_Source\PSoC5/CAN_TX_RX_func.c ****     *******************************************************************************/
 589:.\Generated_Source\PSoC5/CAN_TX_RX_func.c ****     uint8 CAN_SendMsg7(void) 
 590:.\Generated_Source\PSoC5/CAN_TX_RX_func.c ****     {
 591:.\Generated_Source\PSoC5/CAN_TX_RX_func.c ****         uint8 result = CYRET_SUCCESS;
 592:.\Generated_Source\PSoC5/CAN_TX_RX_func.c **** 
 593:.\Generated_Source\PSoC5/CAN_TX_RX_func.c ****         #if (CY_PSOC3 || CY_PSOC5)
 594:.\Generated_Source\PSoC5/CAN_TX_RX_func.c ****             if ((CAN_TX[7u].txcmd.byte[0u] & CAN_TX_REQUEST_PENDING) != 0u)
 595:.\Generated_Source\PSoC5/CAN_TX_RX_func.c ****         #else  /* CY_PSOC4 */
ARM GAS  C:\Users\charl\AppData\Local\Temp\ccRVL0BE.s 			page 16


 596:.\Generated_Source\PSoC5/CAN_TX_RX_func.c ****             if ((CAN_TX_CMD_REG(7u) & CAN_TX_REQUEST_PENDING) != 0u)
 597:.\Generated_Source\PSoC5/CAN_TX_RX_func.c ****         #endif /* CY_PSOC3 || CY_PSOC5 */
 598:.\Generated_Source\PSoC5/CAN_TX_RX_func.c ****             {
 599:.\Generated_Source\PSoC5/CAN_TX_RX_func.c ****                 result = CAN_FAIL;
 600:.\Generated_Source\PSoC5/CAN_TX_RX_func.c ****             }
 601:.\Generated_Source\PSoC5/CAN_TX_RX_func.c ****             else
 602:.\Generated_Source\PSoC5/CAN_TX_RX_func.c ****             {
 603:.\Generated_Source\PSoC5/CAN_TX_RX_func.c ****                 /* `#START MESSAGE_7_TRASMITTED` */
 604:.\Generated_Source\PSoC5/CAN_TX_RX_func.c **** 
 605:.\Generated_Source\PSoC5/CAN_TX_RX_func.c ****                 /* `#END` */
 606:.\Generated_Source\PSoC5/CAN_TX_RX_func.c **** 
 607:.\Generated_Source\PSoC5/CAN_TX_RX_func.c ****                 #ifdef CAN_SEND_MSG_7_CALLBACK
 608:.\Generated_Source\PSoC5/CAN_TX_RX_func.c ****                     CAN_SendMsg_7_Callback();
 609:.\Generated_Source\PSoC5/CAN_TX_RX_func.c ****                 #endif /* CAN_SEND_MSG_7_CALLBACK */
 610:.\Generated_Source\PSoC5/CAN_TX_RX_func.c **** 
 611:.\Generated_Source\PSoC5/CAN_TX_RX_func.c ****                 CY_SET_REG32(CAN_TX_CMD_PTR(7u),
 612:.\Generated_Source\PSoC5/CAN_TX_RX_func.c ****                 CY_GET_REG32(CAN_TX_CMD_PTR(7u)) | CAN_SEND_MESSAGE);
 613:.\Generated_Source\PSoC5/CAN_TX_RX_func.c ****             }
 614:.\Generated_Source\PSoC5/CAN_TX_RX_func.c **** 
 615:.\Generated_Source\PSoC5/CAN_TX_RX_func.c ****         return (result);
 616:.\Generated_Source\PSoC5/CAN_TX_RX_func.c ****     }
 617:.\Generated_Source\PSoC5/CAN_TX_RX_func.c **** #endif /* CAN_TX7_FUNC_ENABLE */
 618:.\Generated_Source\PSoC5/CAN_TX_RX_func.c **** 
 619:.\Generated_Source\PSoC5/CAN_TX_RX_func.c **** 
 620:.\Generated_Source\PSoC5/CAN_TX_RX_func.c **** /*******************************************************************************
 621:.\Generated_Source\PSoC5/CAN_TX_RX_func.c **** * FUNCTION NAME:   CAN_ReceiveMsg
 622:.\Generated_Source\PSoC5/CAN_TX_RX_func.c **** ********************************************************************************
 623:.\Generated_Source\PSoC5/CAN_TX_RX_func.c **** *
 624:.\Generated_Source\PSoC5/CAN_TX_RX_func.c **** * Summary:
 625:.\Generated_Source\PSoC5/CAN_TX_RX_func.c **** *  This function is the entry point to Receive Message Interrupt for Basic
 626:.\Generated_Source\PSoC5/CAN_TX_RX_func.c **** *  mailboxes. Clears the Receive particular Message interrupt flag. Generated
 627:.\Generated_Source\PSoC5/CAN_TX_RX_func.c **** *  only if one of the Receive mailboxes is designed as Basic.
 628:.\Generated_Source\PSoC5/CAN_TX_RX_func.c **** *
 629:.\Generated_Source\PSoC5/CAN_TX_RX_func.c **** * Parameters:
 630:.\Generated_Source\PSoC5/CAN_TX_RX_func.c **** *  rxMailbox: The mailbox number that trig Receive Message Interrupt.
 631:.\Generated_Source\PSoC5/CAN_TX_RX_func.c **** *
 632:.\Generated_Source\PSoC5/CAN_TX_RX_func.c **** * Return:
 633:.\Generated_Source\PSoC5/CAN_TX_RX_func.c **** *  None.
 634:.\Generated_Source\PSoC5/CAN_TX_RX_func.c **** *
 635:.\Generated_Source\PSoC5/CAN_TX_RX_func.c **** * Reentrant:
 636:.\Generated_Source\PSoC5/CAN_TX_RX_func.c **** *  Depends on the Customer code.
 637:.\Generated_Source\PSoC5/CAN_TX_RX_func.c **** *
 638:.\Generated_Source\PSoC5/CAN_TX_RX_func.c **** *******************************************************************************/
 639:.\Generated_Source\PSoC5/CAN_TX_RX_func.c **** void CAN_ReceiveMsg(uint8 rxMailbox) 
 640:.\Generated_Source\PSoC5/CAN_TX_RX_func.c **** {
 254              		.loc 1 640 0
 255              		.cfi_startproc
 256              		@ args = 0, pretend = 0, frame = 0
 257              		@ frame_needed = 0, uses_anonymous_args = 0
 258              		@ link register save eliminated.
 259              	.LVL29:
 641:.\Generated_Source\PSoC5/CAN_TX_RX_func.c ****     #if (CY_PSOC3 || CY_PSOC5)
 642:.\Generated_Source\PSoC5/CAN_TX_RX_func.c ****         if ((CAN_RX[rxMailbox].rxcmd.byte[0u] & CAN_RX_ACK_MSG) != 0u)
 260              		.loc 1 642 0
 261 0000 4001     		lsls	r0, r0, #5
 262              	.LVL30:
 263 0002 054B     		ldr	r3, .L30
ARM GAS  C:\Users\charl\AppData\Local\Temp\ccRVL0BE.s 			page 17


 264 0004 C25C     		ldrb	r2, [r0, r3]	@ zero_extendqisi2
 265 0006 12F0010F 		tst	r2, #1
 266 000a 03D0     		beq	.L28
 643:.\Generated_Source\PSoC5/CAN_TX_RX_func.c ****     #else  /* CY_PSOC4 */
 644:.\Generated_Source\PSoC5/CAN_TX_RX_func.c ****         if ((CAN_RX_CMD_REG(rxMailbox) & CAN_RX_ACK_MSG) != 0u)
 645:.\Generated_Source\PSoC5/CAN_TX_RX_func.c ****     #endif /* CY_PSOC3 || CY_PSOC5 */
 646:.\Generated_Source\PSoC5/CAN_TX_RX_func.c ****         {
 647:.\Generated_Source\PSoC5/CAN_TX_RX_func.c ****             /* `#START MESSAGE_BASIC_RECEIVED` */
 648:.\Generated_Source\PSoC5/CAN_TX_RX_func.c **** 
 649:.\Generated_Source\PSoC5/CAN_TX_RX_func.c ****             /* `#END` */
 650:.\Generated_Source\PSoC5/CAN_TX_RX_func.c **** 
 651:.\Generated_Source\PSoC5/CAN_TX_RX_func.c ****             #ifdef CAN_RECEIVE_MSG_CALLBACK
 652:.\Generated_Source\PSoC5/CAN_TX_RX_func.c ****                 CAN_ReceiveMsg_Callback();
 653:.\Generated_Source\PSoC5/CAN_TX_RX_func.c ****             #endif /* CAN_RECEIVE_MSG_CALLBACK */
 654:.\Generated_Source\PSoC5/CAN_TX_RX_func.c **** 
 655:.\Generated_Source\PSoC5/CAN_TX_RX_func.c ****             #if (CY_PSOC3 || CY_PSOC5)
 656:.\Generated_Source\PSoC5/CAN_TX_RX_func.c ****                 CAN_RX[rxMailbox].rxcmd.byte[0u] |= CAN_RX_ACK_MSG;
 267              		.loc 1 656 0
 268 000c C25C     		ldrb	r2, [r0, r3]	@ zero_extendqisi2
 269 000e 42F00102 		orr	r2, r2, #1
 270 0012 C254     		strb	r2, [r0, r3]
 271              	.L28:
 272 0014 7047     		bx	lr
 273              	.L31:
 274 0016 00BF     		.align	2
 275              	.L30:
 276 0018 A0A00040 		.word	1073782944
 277              		.cfi_endproc
 278              	.LFE2:
 279              		.size	CAN_ReceiveMsg, .-CAN_ReceiveMsg
 280              		.section	.text.CAN_ReceiveMsgInverter1,"ax",%progbits
 281              		.align	2
 282              		.global	CAN_ReceiveMsgInverter1
 283              		.thumb
 284              		.thumb_func
 285              		.type	CAN_ReceiveMsgInverter1, %function
 286              	CAN_ReceiveMsgInverter1:
 287              	.LFB3:
 657:.\Generated_Source\PSoC5/CAN_TX_RX_func.c ****             #else  /* CY_PSOC4 */
 658:.\Generated_Source\PSoC5/CAN_TX_RX_func.c ****                 CAN_RX_CMD_REG(rxMailbox) |= CAN_RX_ACK_MSG;
 659:.\Generated_Source\PSoC5/CAN_TX_RX_func.c ****             #endif /* CY_PSOC3 || CY_PSOC5 */
 660:.\Generated_Source\PSoC5/CAN_TX_RX_func.c ****         }
 661:.\Generated_Source\PSoC5/CAN_TX_RX_func.c **** }
 662:.\Generated_Source\PSoC5/CAN_TX_RX_func.c **** 
 663:.\Generated_Source\PSoC5/CAN_TX_RX_func.c **** 
 664:.\Generated_Source\PSoC5/CAN_TX_RX_func.c **** #if (CAN_RX0_FUNC_ENABLE)
 665:.\Generated_Source\PSoC5/CAN_TX_RX_func.c ****     /*******************************************************************************
 666:.\Generated_Source\PSoC5/CAN_TX_RX_func.c ****     * FUNCTION NAME:   CAN_ReceiveMsgInverter1
 667:.\Generated_Source\PSoC5/CAN_TX_RX_func.c ****     ********************************************************************************
 668:.\Generated_Source\PSoC5/CAN_TX_RX_func.c ****     *
 669:.\Generated_Source\PSoC5/CAN_TX_RX_func.c ****     * Summary:
 670:.\Generated_Source\PSoC5/CAN_TX_RX_func.c ****     *  This function is the entry point to Receive Message 0 Interrupt. Clears the
 671:.\Generated_Source\PSoC5/CAN_TX_RX_func.c ****     *  Receive Message 0 interrupt flag. Generated only for the Receive mailbox
 672:.\Generated_Source\PSoC5/CAN_TX_RX_func.c ****     *  designed as Full.
 673:.\Generated_Source\PSoC5/CAN_TX_RX_func.c ****     *
 674:.\Generated_Source\PSoC5/CAN_TX_RX_func.c ****     * Parameters:
 675:.\Generated_Source\PSoC5/CAN_TX_RX_func.c ****     *  None.
ARM GAS  C:\Users\charl\AppData\Local\Temp\ccRVL0BE.s 			page 18


 676:.\Generated_Source\PSoC5/CAN_TX_RX_func.c ****     *
 677:.\Generated_Source\PSoC5/CAN_TX_RX_func.c ****     * Return:
 678:.\Generated_Source\PSoC5/CAN_TX_RX_func.c ****     *  None.
 679:.\Generated_Source\PSoC5/CAN_TX_RX_func.c ****     *
 680:.\Generated_Source\PSoC5/CAN_TX_RX_func.c ****     * Reentrant:
 681:.\Generated_Source\PSoC5/CAN_TX_RX_func.c ****     *  Depends on the Customer code.
 682:.\Generated_Source\PSoC5/CAN_TX_RX_func.c ****     *
 683:.\Generated_Source\PSoC5/CAN_TX_RX_func.c ****     *******************************************************************************/
 684:.\Generated_Source\PSoC5/CAN_TX_RX_func.c ****     void CAN_ReceiveMsgInverter1(void) 
 685:.\Generated_Source\PSoC5/CAN_TX_RX_func.c ****     {
 288              		.loc 1 685 0
 289              		.cfi_startproc
 290              		@ args = 0, pretend = 0, frame = 0
 291              		@ frame_needed = 0, uses_anonymous_args = 0
 292              		@ link register save eliminated.
 686:.\Generated_Source\PSoC5/CAN_TX_RX_func.c ****         /* `#START MESSAGE_Inverter1_RECEIVED` */
 687:.\Generated_Source\PSoC5/CAN_TX_RX_func.c **** 	RXFlag0 = 1; //Set Flag
 293              		.loc 1 687 0
 294 0000 0122     		movs	r2, #1
 295 0002 124B     		ldr	r3, .L37
 296 0004 1A60     		str	r2, [r3]
 688:.\Generated_Source\PSoC5/CAN_TX_RX_func.c **** 	RXDLC = CAN_GET_DLC(0);
 297              		.loc 1 688 0
 298 0006 124B     		ldr	r3, .L37+4
 299 0008 9878     		ldrb	r0, [r3, #2]	@ zero_extendqisi2
 300 000a 00F00F00 		and	r0, r0, #15
 301 000e 114B     		ldr	r3, .L37+8
 302 0010 1860     		str	r0, [r3]
 689:.\Generated_Source\PSoC5/CAN_TX_RX_func.c **** 	for(bIndex = 0;bIndex<RXDLC;bIndex++)
 303              		.loc 1 689 0
 304 0012 0022     		movs	r2, #0
 305 0014 104B     		ldr	r3, .L37+12
 306 0016 1A60     		str	r2, [r3]
 307 0018 0EE0     		b	.L33
 308              	.L36:
 690:.\Generated_Source\PSoC5/CAN_TX_RX_func.c **** 	{
 691:.\Generated_Source\PSoC5/CAN_TX_RX_func.c **** 		RXMessage0[bIndex] = CAN_RX_DATA_BYTE(0,bIndex);
 309              		.loc 1 691 0
 310 001a 032B     		cmp	r3, #3
 311 001c 02D9     		bls	.L34
 312              		.loc 1 691 0 is_stmt 0 discriminator 1
 313 001e C3F10B01 		rsb	r1, r3, #11
 314 0022 01E0     		b	.L35
 315              	.L34:
 316              		.loc 1 691 0 discriminator 2
 317 0024 C3F10301 		rsb	r1, r3, #3
 318              	.L35:
 319              		.loc 1 691 0 discriminator 4
 320 0028 0C4A     		ldr	r2, .L37+16
 321 002a 515C     		ldrb	r1, [r2, r1]	@ zero_extendqisi2
 322 002c 0C4A     		ldr	r2, .L37+20
 323 002e 42F82310 		str	r1, [r2, r3, lsl #2]
 689:.\Generated_Source\PSoC5/CAN_TX_RX_func.c **** 	for(bIndex = 0;bIndex<RXDLC;bIndex++)
 324              		.loc 1 689 0 is_stmt 1 discriminator 4
 325 0032 0133     		adds	r3, r3, #1
 326 0034 084A     		ldr	r2, .L37+12
 327 0036 1360     		str	r3, [r2]
ARM GAS  C:\Users\charl\AppData\Local\Temp\ccRVL0BE.s 			page 19


 328              	.L33:
 689:.\Generated_Source\PSoC5/CAN_TX_RX_func.c **** 	for(bIndex = 0;bIndex<RXDLC;bIndex++)
 329              		.loc 1 689 0 is_stmt 0 discriminator 2
 330 0038 074B     		ldr	r3, .L37+12
 331 003a 1B68     		ldr	r3, [r3]
 332 003c 9842     		cmp	r0, r3
 333 003e ECD8     		bhi	.L36
 692:.\Generated_Source\PSoC5/CAN_TX_RX_func.c **** 	}
 693:.\Generated_Source\PSoC5/CAN_TX_RX_func.c ****         /* `#END` */
 694:.\Generated_Source\PSoC5/CAN_TX_RX_func.c **** 
 695:.\Generated_Source\PSoC5/CAN_TX_RX_func.c ****         #ifdef CAN_RECEIVE_MSG_Inverter1_CALLBACK
 696:.\Generated_Source\PSoC5/CAN_TX_RX_func.c ****             CAN_ReceiveMsg_Inverter1_Callback();
 697:.\Generated_Source\PSoC5/CAN_TX_RX_func.c ****         #endif /* CAN_RECEIVE_MSG_Inverter1_CALLBACK */
 698:.\Generated_Source\PSoC5/CAN_TX_RX_func.c **** 
 699:.\Generated_Source\PSoC5/CAN_TX_RX_func.c ****         CAN_RX[0u].rxcmd.byte[0u] |= CAN_RX_ACK_MSG;
 334              		.loc 1 699 0 is_stmt 1
 335 0040 034A     		ldr	r2, .L37+4
 336 0042 1378     		ldrb	r3, [r2]	@ zero_extendqisi2
 337 0044 43F00103 		orr	r3, r3, #1
 338 0048 1370     		strb	r3, [r2]
 339 004a 7047     		bx	lr
 340              	.L38:
 341              		.align	2
 342              	.L37:
 343 004c 00000000 		.word	RXFlag0
 344 0050 A0A00040 		.word	1073782944
 345 0054 00000000 		.word	RXDLC
 346 0058 00000000 		.word	.LANCHOR0
 347 005c A8A00040 		.word	1073782952
 348 0060 00000000 		.word	RXMessage0
 349              		.cfi_endproc
 350              	.LFE3:
 351              		.size	CAN_ReceiveMsgInverter1, .-CAN_ReceiveMsgInverter1
 352              		.section	.text.CAN_ReceiveMsgInverter2,"ax",%progbits
 353              		.align	2
 354              		.global	CAN_ReceiveMsgInverter2
 355              		.thumb
 356              		.thumb_func
 357              		.type	CAN_ReceiveMsgInverter2, %function
 358              	CAN_ReceiveMsgInverter2:
 359              	.LFB4:
 700:.\Generated_Source\PSoC5/CAN_TX_RX_func.c ****     }
 701:.\Generated_Source\PSoC5/CAN_TX_RX_func.c **** #endif /* CAN_RX0_FUNC_ENABLE */
 702:.\Generated_Source\PSoC5/CAN_TX_RX_func.c **** 
 703:.\Generated_Source\PSoC5/CAN_TX_RX_func.c **** 
 704:.\Generated_Source\PSoC5/CAN_TX_RX_func.c **** #if (CAN_RX1_FUNC_ENABLE)
 705:.\Generated_Source\PSoC5/CAN_TX_RX_func.c ****     /*******************************************************************************
 706:.\Generated_Source\PSoC5/CAN_TX_RX_func.c ****     * FUNCTION NAME:    CAN_ReceiveMsgInverter2
 707:.\Generated_Source\PSoC5/CAN_TX_RX_func.c ****     ********************************************************************************
 708:.\Generated_Source\PSoC5/CAN_TX_RX_func.c ****     *
 709:.\Generated_Source\PSoC5/CAN_TX_RX_func.c ****     * Summary:
 710:.\Generated_Source\PSoC5/CAN_TX_RX_func.c ****     *  This function is the entry point to Receive Message 1 Interrupt. Clears the
 711:.\Generated_Source\PSoC5/CAN_TX_RX_func.c ****     *  Receive Message 1 interrupt flag. Generated only for the Receive mailbox
 712:.\Generated_Source\PSoC5/CAN_TX_RX_func.c ****     *  designed as Full.
 713:.\Generated_Source\PSoC5/CAN_TX_RX_func.c ****     *
 714:.\Generated_Source\PSoC5/CAN_TX_RX_func.c ****     * Parameters:
 715:.\Generated_Source\PSoC5/CAN_TX_RX_func.c ****     *  None.
ARM GAS  C:\Users\charl\AppData\Local\Temp\ccRVL0BE.s 			page 20


 716:.\Generated_Source\PSoC5/CAN_TX_RX_func.c ****     *
 717:.\Generated_Source\PSoC5/CAN_TX_RX_func.c ****     * Return:
 718:.\Generated_Source\PSoC5/CAN_TX_RX_func.c ****     *  None.
 719:.\Generated_Source\PSoC5/CAN_TX_RX_func.c ****     *
 720:.\Generated_Source\PSoC5/CAN_TX_RX_func.c ****     * Reentrant:
 721:.\Generated_Source\PSoC5/CAN_TX_RX_func.c ****     *  Depends on the Customer code.
 722:.\Generated_Source\PSoC5/CAN_TX_RX_func.c ****     *
 723:.\Generated_Source\PSoC5/CAN_TX_RX_func.c ****     *******************************************************************************/
 724:.\Generated_Source\PSoC5/CAN_TX_RX_func.c ****     void CAN_ReceiveMsgInverter2(void) 
 725:.\Generated_Source\PSoC5/CAN_TX_RX_func.c ****     {
 360              		.loc 1 725 0
 361              		.cfi_startproc
 362              		@ args = 0, pretend = 0, frame = 0
 363              		@ frame_needed = 0, uses_anonymous_args = 0
 364              		@ link register save eliminated.
 726:.\Generated_Source\PSoC5/CAN_TX_RX_func.c ****         /* `#START MESSAGE_Inverter2_RECEIVED` */
 727:.\Generated_Source\PSoC5/CAN_TX_RX_func.c **** 	RXFlag1 = 1; //Set Flag
 365              		.loc 1 727 0
 366 0000 0122     		movs	r2, #1
 367 0002 124B     		ldr	r3, .L44
 368 0004 1A60     		str	r2, [r3]
 728:.\Generated_Source\PSoC5/CAN_TX_RX_func.c **** 	RXDLC = CAN_GET_DLC(1);
 369              		.loc 1 728 0
 370 0006 124B     		ldr	r3, .L44+4
 371 0008 9878     		ldrb	r0, [r3, #2]	@ zero_extendqisi2
 372 000a 00F00F00 		and	r0, r0, #15
 373 000e 114B     		ldr	r3, .L44+8
 374 0010 1860     		str	r0, [r3]
 729:.\Generated_Source\PSoC5/CAN_TX_RX_func.c **** 	for(bIndex = 0;bIndex<RXDLC;bIndex++)
 375              		.loc 1 729 0
 376 0012 0022     		movs	r2, #0
 377 0014 104B     		ldr	r3, .L44+12
 378 0016 1A60     		str	r2, [r3]
 379 0018 0EE0     		b	.L40
 380              	.L43:
 730:.\Generated_Source\PSoC5/CAN_TX_RX_func.c **** 	{
 731:.\Generated_Source\PSoC5/CAN_TX_RX_func.c **** 		RXMessage1[bIndex] = CAN_RX_DATA_BYTE(1,bIndex);
 381              		.loc 1 731 0
 382 001a 032B     		cmp	r3, #3
 383 001c 02D9     		bls	.L41
 384              		.loc 1 731 0 is_stmt 0 discriminator 1
 385 001e C3F10B01 		rsb	r1, r3, #11
 386 0022 01E0     		b	.L42
 387              	.L41:
 388              		.loc 1 731 0 discriminator 2
 389 0024 C3F10301 		rsb	r1, r3, #3
 390              	.L42:
 391              		.loc 1 731 0 discriminator 4
 392 0028 0C4A     		ldr	r2, .L44+16
 393 002a 515C     		ldrb	r1, [r2, r1]	@ zero_extendqisi2
 394 002c 0C4A     		ldr	r2, .L44+20
 395 002e 42F82310 		str	r1, [r2, r3, lsl #2]
 729:.\Generated_Source\PSoC5/CAN_TX_RX_func.c **** 	for(bIndex = 0;bIndex<RXDLC;bIndex++)
 396              		.loc 1 729 0 is_stmt 1 discriminator 4
 397 0032 0133     		adds	r3, r3, #1
 398 0034 084A     		ldr	r2, .L44+12
 399 0036 1360     		str	r3, [r2]
ARM GAS  C:\Users\charl\AppData\Local\Temp\ccRVL0BE.s 			page 21


 400              	.L40:
 729:.\Generated_Source\PSoC5/CAN_TX_RX_func.c **** 	for(bIndex = 0;bIndex<RXDLC;bIndex++)
 401              		.loc 1 729 0 is_stmt 0 discriminator 2
 402 0038 074B     		ldr	r3, .L44+12
 403 003a 1B68     		ldr	r3, [r3]
 404 003c 9842     		cmp	r0, r3
 405 003e ECD8     		bhi	.L43
 732:.\Generated_Source\PSoC5/CAN_TX_RX_func.c **** 	}
 733:.\Generated_Source\PSoC5/CAN_TX_RX_func.c ****         /* `#END` */
 734:.\Generated_Source\PSoC5/CAN_TX_RX_func.c **** 
 735:.\Generated_Source\PSoC5/CAN_TX_RX_func.c ****         #ifdef CAN_RECEIVE_MSG_Inverter2_CALLBACK
 736:.\Generated_Source\PSoC5/CAN_TX_RX_func.c ****             CAN_ReceiveMsg_Inverter2_Callback();
 737:.\Generated_Source\PSoC5/CAN_TX_RX_func.c ****         #endif /* CAN_RECEIVE_MSG_Inverter2_CALLBACK */
 738:.\Generated_Source\PSoC5/CAN_TX_RX_func.c **** 
 739:.\Generated_Source\PSoC5/CAN_TX_RX_func.c ****         CAN_RX[1u].rxcmd.byte[0u] |= CAN_RX_ACK_MSG;
 406              		.loc 1 739 0 is_stmt 1
 407 0040 034A     		ldr	r2, .L44+4
 408 0042 1378     		ldrb	r3, [r2]	@ zero_extendqisi2
 409 0044 43F00103 		orr	r3, r3, #1
 410 0048 1370     		strb	r3, [r2]
 411 004a 7047     		bx	lr
 412              	.L45:
 413              		.align	2
 414              	.L44:
 415 004c 00000000 		.word	RXFlag1
 416 0050 C0A00040 		.word	1073782976
 417 0054 00000000 		.word	RXDLC
 418 0058 00000000 		.word	.LANCHOR0
 419 005c C8A00040 		.word	1073782984
 420 0060 00000000 		.word	RXMessage1
 421              		.cfi_endproc
 422              	.LFE4:
 423              		.size	CAN_ReceiveMsgInverter2, .-CAN_ReceiveMsgInverter2
 424              		.section	.text.CAN_ReceiveMsgVMC30_1,"ax",%progbits
 425              		.align	2
 426              		.global	CAN_ReceiveMsgVMC30_1
 427              		.thumb
 428              		.thumb_func
 429              		.type	CAN_ReceiveMsgVMC30_1, %function
 430              	CAN_ReceiveMsgVMC30_1:
 431              	.LFB5:
 740:.\Generated_Source\PSoC5/CAN_TX_RX_func.c ****     }
 741:.\Generated_Source\PSoC5/CAN_TX_RX_func.c **** #endif /* CAN_RX1_FUNC_ENABLE */
 742:.\Generated_Source\PSoC5/CAN_TX_RX_func.c **** 
 743:.\Generated_Source\PSoC5/CAN_TX_RX_func.c **** 
 744:.\Generated_Source\PSoC5/CAN_TX_RX_func.c **** #if (CAN_RX2_FUNC_ENABLE)
 745:.\Generated_Source\PSoC5/CAN_TX_RX_func.c ****     /*******************************************************************************
 746:.\Generated_Source\PSoC5/CAN_TX_RX_func.c ****     * FUNCTION NAME:   CAN_ReceiveMsgVMC30_1
 747:.\Generated_Source\PSoC5/CAN_TX_RX_func.c ****     ********************************************************************************
 748:.\Generated_Source\PSoC5/CAN_TX_RX_func.c ****     *
 749:.\Generated_Source\PSoC5/CAN_TX_RX_func.c ****     * Summary:
 750:.\Generated_Source\PSoC5/CAN_TX_RX_func.c ****     *  This function is the entry point to Receive Message 2 Interrupt. Clears the
 751:.\Generated_Source\PSoC5/CAN_TX_RX_func.c ****     *  Receive Message 2 interrupt flag. Generated only for the Receive mailbox
 752:.\Generated_Source\PSoC5/CAN_TX_RX_func.c ****     *  designed as Full.
 753:.\Generated_Source\PSoC5/CAN_TX_RX_func.c ****     *
 754:.\Generated_Source\PSoC5/CAN_TX_RX_func.c ****     * Parameters:
 755:.\Generated_Source\PSoC5/CAN_TX_RX_func.c ****     *  None.
ARM GAS  C:\Users\charl\AppData\Local\Temp\ccRVL0BE.s 			page 22


 756:.\Generated_Source\PSoC5/CAN_TX_RX_func.c ****     *
 757:.\Generated_Source\PSoC5/CAN_TX_RX_func.c ****     * Return:
 758:.\Generated_Source\PSoC5/CAN_TX_RX_func.c ****     *  None.
 759:.\Generated_Source\PSoC5/CAN_TX_RX_func.c ****     *
 760:.\Generated_Source\PSoC5/CAN_TX_RX_func.c ****     * Reentrant:
 761:.\Generated_Source\PSoC5/CAN_TX_RX_func.c ****     *  Depends on the Customer code.
 762:.\Generated_Source\PSoC5/CAN_TX_RX_func.c ****     *
 763:.\Generated_Source\PSoC5/CAN_TX_RX_func.c ****     *******************************************************************************/
 764:.\Generated_Source\PSoC5/CAN_TX_RX_func.c ****     void CAN_ReceiveMsgVMC30_1(void) 
 765:.\Generated_Source\PSoC5/CAN_TX_RX_func.c ****     {
 432              		.loc 1 765 0
 433              		.cfi_startproc
 434              		@ args = 0, pretend = 0, frame = 0
 435              		@ frame_needed = 0, uses_anonymous_args = 0
 436              		@ link register save eliminated.
 766:.\Generated_Source\PSoC5/CAN_TX_RX_func.c ****         /* `#START MESSAGE_VMC30_1_RECEIVED` */
 767:.\Generated_Source\PSoC5/CAN_TX_RX_func.c **** 	RXFlag2 = 1; //Set Flag
 437              		.loc 1 767 0
 438 0000 0122     		movs	r2, #1
 439 0002 124B     		ldr	r3, .L51
 440 0004 1A60     		str	r2, [r3]
 768:.\Generated_Source\PSoC5/CAN_TX_RX_func.c **** 	RXDLC = CAN_GET_DLC(2);
 441              		.loc 1 768 0
 442 0006 124B     		ldr	r3, .L51+4
 443 0008 9878     		ldrb	r0, [r3, #2]	@ zero_extendqisi2
 444 000a 00F00F00 		and	r0, r0, #15
 445 000e 114B     		ldr	r3, .L51+8
 446 0010 1860     		str	r0, [r3]
 769:.\Generated_Source\PSoC5/CAN_TX_RX_func.c **** 	for(bIndex = 0;bIndex<RXDLC;bIndex++)
 447              		.loc 1 769 0
 448 0012 0022     		movs	r2, #0
 449 0014 104B     		ldr	r3, .L51+12
 450 0016 1A60     		str	r2, [r3]
 451 0018 0EE0     		b	.L47
 452              	.L50:
 770:.\Generated_Source\PSoC5/CAN_TX_RX_func.c **** 	{
 771:.\Generated_Source\PSoC5/CAN_TX_RX_func.c **** 		RXMessage2[bIndex] = CAN_RX_DATA_BYTE(2,bIndex);
 453              		.loc 1 771 0
 454 001a 032B     		cmp	r3, #3
 455 001c 02D9     		bls	.L48
 456              		.loc 1 771 0 is_stmt 0 discriminator 1
 457 001e C3F10B01 		rsb	r1, r3, #11
 458 0022 01E0     		b	.L49
 459              	.L48:
 460              		.loc 1 771 0 discriminator 2
 461 0024 C3F10301 		rsb	r1, r3, #3
 462              	.L49:
 463              		.loc 1 771 0 discriminator 4
 464 0028 0C4A     		ldr	r2, .L51+16
 465 002a 515C     		ldrb	r1, [r2, r1]	@ zero_extendqisi2
 466 002c 0C4A     		ldr	r2, .L51+20
 467 002e 42F82310 		str	r1, [r2, r3, lsl #2]
 769:.\Generated_Source\PSoC5/CAN_TX_RX_func.c **** 	for(bIndex = 0;bIndex<RXDLC;bIndex++)
 468              		.loc 1 769 0 is_stmt 1 discriminator 4
 469 0032 0133     		adds	r3, r3, #1
 470 0034 084A     		ldr	r2, .L51+12
 471 0036 1360     		str	r3, [r2]
ARM GAS  C:\Users\charl\AppData\Local\Temp\ccRVL0BE.s 			page 23


 472              	.L47:
 769:.\Generated_Source\PSoC5/CAN_TX_RX_func.c **** 	for(bIndex = 0;bIndex<RXDLC;bIndex++)
 473              		.loc 1 769 0 is_stmt 0 discriminator 2
 474 0038 074B     		ldr	r3, .L51+12
 475 003a 1B68     		ldr	r3, [r3]
 476 003c 9842     		cmp	r0, r3
 477 003e ECD8     		bhi	.L50
 772:.\Generated_Source\PSoC5/CAN_TX_RX_func.c **** 	}
 773:.\Generated_Source\PSoC5/CAN_TX_RX_func.c ****         /* `#END` */
 774:.\Generated_Source\PSoC5/CAN_TX_RX_func.c **** 
 775:.\Generated_Source\PSoC5/CAN_TX_RX_func.c ****         #ifdef CAN_RECEIVE_MSG_VMC30_1_CALLBACK
 776:.\Generated_Source\PSoC5/CAN_TX_RX_func.c ****             CAN_ReceiveMsg_VMC30_1_Callback();
 777:.\Generated_Source\PSoC5/CAN_TX_RX_func.c ****         #endif /* CAN_RECEIVE_MSG_VMC30_1_CALLBACK */
 778:.\Generated_Source\PSoC5/CAN_TX_RX_func.c **** 
 779:.\Generated_Source\PSoC5/CAN_TX_RX_func.c ****         CAN_RX[2u].rxcmd.byte[0u] |= CAN_RX_ACK_MSG;
 478              		.loc 1 779 0 is_stmt 1
 479 0040 034A     		ldr	r2, .L51+4
 480 0042 1378     		ldrb	r3, [r2]	@ zero_extendqisi2
 481 0044 43F00103 		orr	r3, r3, #1
 482 0048 1370     		strb	r3, [r2]
 483 004a 7047     		bx	lr
 484              	.L52:
 485              		.align	2
 486              	.L51:
 487 004c 00000000 		.word	RXFlag2
 488 0050 E0A00040 		.word	1073783008
 489 0054 00000000 		.word	RXDLC
 490 0058 00000000 		.word	.LANCHOR0
 491 005c E8A00040 		.word	1073783016
 492 0060 00000000 		.word	RXMessage2
 493              		.cfi_endproc
 494              	.LFE5:
 495              		.size	CAN_ReceiveMsgVMC30_1, .-CAN_ReceiveMsgVMC30_1
 496              		.section	.text.CAN_ReceiveMsgVMC30_2,"ax",%progbits
 497              		.align	2
 498              		.global	CAN_ReceiveMsgVMC30_2
 499              		.thumb
 500              		.thumb_func
 501              		.type	CAN_ReceiveMsgVMC30_2, %function
 502              	CAN_ReceiveMsgVMC30_2:
 503              	.LFB6:
 780:.\Generated_Source\PSoC5/CAN_TX_RX_func.c ****     }
 781:.\Generated_Source\PSoC5/CAN_TX_RX_func.c **** #endif /* CAN_RX2_FUNC_ENABLE */
 782:.\Generated_Source\PSoC5/CAN_TX_RX_func.c **** 
 783:.\Generated_Source\PSoC5/CAN_TX_RX_func.c **** 
 784:.\Generated_Source\PSoC5/CAN_TX_RX_func.c **** #if (CAN_RX3_FUNC_ENABLE)
 785:.\Generated_Source\PSoC5/CAN_TX_RX_func.c ****     /*******************************************************************************
 786:.\Generated_Source\PSoC5/CAN_TX_RX_func.c ****     * FUNCTION NAME:   CAN_ReceiveMsgVMC30_2
 787:.\Generated_Source\PSoC5/CAN_TX_RX_func.c ****     ********************************************************************************
 788:.\Generated_Source\PSoC5/CAN_TX_RX_func.c ****     *
 789:.\Generated_Source\PSoC5/CAN_TX_RX_func.c ****     * Summary:
 790:.\Generated_Source\PSoC5/CAN_TX_RX_func.c ****     *  This function is the entry point to Receive Message 3 Interrupt. Clears the
 791:.\Generated_Source\PSoC5/CAN_TX_RX_func.c ****     *  Receive Message 3 interrupt flag. Generated only for the Receive mailbox
 792:.\Generated_Source\PSoC5/CAN_TX_RX_func.c ****     *  designed as Full.
 793:.\Generated_Source\PSoC5/CAN_TX_RX_func.c ****     *
 794:.\Generated_Source\PSoC5/CAN_TX_RX_func.c ****     * Parameters:
 795:.\Generated_Source\PSoC5/CAN_TX_RX_func.c ****     *  None.
ARM GAS  C:\Users\charl\AppData\Local\Temp\ccRVL0BE.s 			page 24


 796:.\Generated_Source\PSoC5/CAN_TX_RX_func.c ****     *
 797:.\Generated_Source\PSoC5/CAN_TX_RX_func.c ****     * Return:
 798:.\Generated_Source\PSoC5/CAN_TX_RX_func.c ****     *  None.
 799:.\Generated_Source\PSoC5/CAN_TX_RX_func.c ****     *
 800:.\Generated_Source\PSoC5/CAN_TX_RX_func.c ****     * Reentrant:
 801:.\Generated_Source\PSoC5/CAN_TX_RX_func.c ****     *  Depends on the Customer code.
 802:.\Generated_Source\PSoC5/CAN_TX_RX_func.c ****     *
 803:.\Generated_Source\PSoC5/CAN_TX_RX_func.c ****     *******************************************************************************/
 804:.\Generated_Source\PSoC5/CAN_TX_RX_func.c ****     void CAN_ReceiveMsgVMC30_2(void) 
 805:.\Generated_Source\PSoC5/CAN_TX_RX_func.c ****     {
 504              		.loc 1 805 0
 505              		.cfi_startproc
 506              		@ args = 0, pretend = 0, frame = 0
 507              		@ frame_needed = 0, uses_anonymous_args = 0
 508              		@ link register save eliminated.
 806:.\Generated_Source\PSoC5/CAN_TX_RX_func.c ****         /* `#START MESSAGE_VMC30_2_RECEIVED` */
 807:.\Generated_Source\PSoC5/CAN_TX_RX_func.c **** 	RXFlag3 = 1; //Set Flag
 509              		.loc 1 807 0
 510 0000 0122     		movs	r2, #1
 511 0002 144B     		ldr	r3, .L58
 512 0004 1A60     		str	r2, [r3]
 808:.\Generated_Source\PSoC5/CAN_TX_RX_func.c **** 	RXDLC = CAN_GET_DLC(3);
 513              		.loc 1 808 0
 514 0006 144B     		ldr	r3, .L58+4
 515 0008 9878     		ldrb	r0, [r3, #2]	@ zero_extendqisi2
 516 000a 00F00F00 		and	r0, r0, #15
 517 000e 134B     		ldr	r3, .L58+8
 518 0010 1860     		str	r0, [r3]
 809:.\Generated_Source\PSoC5/CAN_TX_RX_func.c **** 	for(bIndex = 0;bIndex<RXDLC;bIndex++)
 519              		.loc 1 809 0
 520 0012 0022     		movs	r2, #0
 521 0014 124B     		ldr	r3, .L58+12
 522 0016 1A60     		str	r2, [r3]
 523 0018 11E0     		b	.L54
 524              	.L57:
 810:.\Generated_Source\PSoC5/CAN_TX_RX_func.c **** 	{
 811:.\Generated_Source\PSoC5/CAN_TX_RX_func.c **** 		RXMessage3[bIndex] = CAN_RX_DATA_BYTE(3,bIndex);
 525              		.loc 1 811 0
 526 001a 032B     		cmp	r3, #3
 527 001c 02D9     		bls	.L55
 528              		.loc 1 811 0 is_stmt 0 discriminator 1
 529 001e C3F10B02 		rsb	r2, r3, #11
 530 0022 01E0     		b	.L56
 531              	.L55:
 532              		.loc 1 811 0 discriminator 2
 533 0024 C3F10302 		rsb	r2, r3, #3
 534              	.L56:
 535              		.loc 1 811 0 discriminator 4
 536 0028 02F18042 		add	r2, r2, #1073741824
 537 002c 02F52142 		add	r2, r2, #41216
 538 0030 117A     		ldrb	r1, [r2, #8]	@ zero_extendqisi2
 539 0032 0C4A     		ldr	r2, .L58+16
 540 0034 42F82310 		str	r1, [r2, r3, lsl #2]
 809:.\Generated_Source\PSoC5/CAN_TX_RX_func.c **** 	for(bIndex = 0;bIndex<RXDLC;bIndex++)
 541              		.loc 1 809 0 is_stmt 1 discriminator 4
 542 0038 0133     		adds	r3, r3, #1
 543 003a 094A     		ldr	r2, .L58+12
ARM GAS  C:\Users\charl\AppData\Local\Temp\ccRVL0BE.s 			page 25


 544 003c 1360     		str	r3, [r2]
 545              	.L54:
 809:.\Generated_Source\PSoC5/CAN_TX_RX_func.c **** 	for(bIndex = 0;bIndex<RXDLC;bIndex++)
 546              		.loc 1 809 0 is_stmt 0 discriminator 2
 547 003e 084B     		ldr	r3, .L58+12
 548 0040 1B68     		ldr	r3, [r3]
 549 0042 9842     		cmp	r0, r3
 550 0044 E9D8     		bhi	.L57
 812:.\Generated_Source\PSoC5/CAN_TX_RX_func.c **** 	}
 813:.\Generated_Source\PSoC5/CAN_TX_RX_func.c ****         /* `#END` */
 814:.\Generated_Source\PSoC5/CAN_TX_RX_func.c **** 
 815:.\Generated_Source\PSoC5/CAN_TX_RX_func.c ****         #ifdef CAN_RECEIVE_MSG_VMC30_2_CALLBACK
 816:.\Generated_Source\PSoC5/CAN_TX_RX_func.c ****             CAN_ReceiveMsg_VMC30_2_Callback();
 817:.\Generated_Source\PSoC5/CAN_TX_RX_func.c ****         #endif /* CAN_RECEIVE_MSG_VMC30_2_CALLBACK */
 818:.\Generated_Source\PSoC5/CAN_TX_RX_func.c **** 
 819:.\Generated_Source\PSoC5/CAN_TX_RX_func.c ****         CAN_RX[3u].rxcmd.byte[0u] |= CAN_RX_ACK_MSG;
 551              		.loc 1 819 0 is_stmt 1
 552 0046 044A     		ldr	r2, .L58+4
 553 0048 1378     		ldrb	r3, [r2]	@ zero_extendqisi2
 554 004a 43F00103 		orr	r3, r3, #1
 555 004e 1370     		strb	r3, [r2]
 556 0050 7047     		bx	lr
 557              	.L59:
 558 0052 00BF     		.align	2
 559              	.L58:
 560 0054 00000000 		.word	RXFlag3
 561 0058 00A10040 		.word	1073783040
 562 005c 00000000 		.word	RXDLC
 563 0060 00000000 		.word	.LANCHOR0
 564 0064 00000000 		.word	RXMessage3
 565              		.cfi_endproc
 566              	.LFE6:
 567              		.size	CAN_ReceiveMsgVMC30_2, .-CAN_ReceiveMsgVMC30_2
 568              		.section	.text.CAN_ReceiveMsgBMS1,"ax",%progbits
 569              		.align	2
 570              		.global	CAN_ReceiveMsgBMS1
 571              		.thumb
 572              		.thumb_func
 573              		.type	CAN_ReceiveMsgBMS1, %function
 574              	CAN_ReceiveMsgBMS1:
 575              	.LFB7:
 820:.\Generated_Source\PSoC5/CAN_TX_RX_func.c ****     }
 821:.\Generated_Source\PSoC5/CAN_TX_RX_func.c **** #endif /* CAN_RX3_FUNC_ENABLE */
 822:.\Generated_Source\PSoC5/CAN_TX_RX_func.c **** 
 823:.\Generated_Source\PSoC5/CAN_TX_RX_func.c **** 
 824:.\Generated_Source\PSoC5/CAN_TX_RX_func.c **** #if (CAN_RX4_FUNC_ENABLE)
 825:.\Generated_Source\PSoC5/CAN_TX_RX_func.c ****     /*******************************************************************************
 826:.\Generated_Source\PSoC5/CAN_TX_RX_func.c ****     * FUNCTION NAME:   CAN_ReceiveMsgBMS1
 827:.\Generated_Source\PSoC5/CAN_TX_RX_func.c ****     ********************************************************************************
 828:.\Generated_Source\PSoC5/CAN_TX_RX_func.c ****     *
 829:.\Generated_Source\PSoC5/CAN_TX_RX_func.c ****     * Summary:
 830:.\Generated_Source\PSoC5/CAN_TX_RX_func.c ****     *  This function is the entry point to Receive Message 4 Interrupt. Clears the
 831:.\Generated_Source\PSoC5/CAN_TX_RX_func.c ****     *  Receive Message 4 interrupt flag. Generated only for the Receive mailbox
 832:.\Generated_Source\PSoC5/CAN_TX_RX_func.c ****     *  designed as Full.
 833:.\Generated_Source\PSoC5/CAN_TX_RX_func.c ****     *
 834:.\Generated_Source\PSoC5/CAN_TX_RX_func.c ****     * Parameters:
 835:.\Generated_Source\PSoC5/CAN_TX_RX_func.c ****     *  None.
ARM GAS  C:\Users\charl\AppData\Local\Temp\ccRVL0BE.s 			page 26


 836:.\Generated_Source\PSoC5/CAN_TX_RX_func.c ****     *
 837:.\Generated_Source\PSoC5/CAN_TX_RX_func.c ****     * Return:
 838:.\Generated_Source\PSoC5/CAN_TX_RX_func.c ****     *  None.
 839:.\Generated_Source\PSoC5/CAN_TX_RX_func.c ****     *
 840:.\Generated_Source\PSoC5/CAN_TX_RX_func.c ****     * Reentrant:
 841:.\Generated_Source\PSoC5/CAN_TX_RX_func.c ****     *  Depends on the Customer code.
 842:.\Generated_Source\PSoC5/CAN_TX_RX_func.c ****     *
 843:.\Generated_Source\PSoC5/CAN_TX_RX_func.c ****     *******************************************************************************/
 844:.\Generated_Source\PSoC5/CAN_TX_RX_func.c ****     void CAN_ReceiveMsgBMS1(void) 
 845:.\Generated_Source\PSoC5/CAN_TX_RX_func.c ****     {
 576              		.loc 1 845 0
 577              		.cfi_startproc
 578              		@ args = 0, pretend = 0, frame = 0
 579              		@ frame_needed = 0, uses_anonymous_args = 0
 580              		@ link register save eliminated.
 846:.\Generated_Source\PSoC5/CAN_TX_RX_func.c ****         /* `#START MESSAGE_BMS1_RECEIVED` */
 847:.\Generated_Source\PSoC5/CAN_TX_RX_func.c **** 	RXFlag4 = 1; //Set Flag
 581              		.loc 1 847 0
 582 0000 0122     		movs	r2, #1
 583 0002 124B     		ldr	r3, .L65
 584 0004 1A60     		str	r2, [r3]
 848:.\Generated_Source\PSoC5/CAN_TX_RX_func.c **** 	RXDLC = CAN_GET_DLC(4);
 585              		.loc 1 848 0
 586 0006 124B     		ldr	r3, .L65+4
 587 0008 9878     		ldrb	r0, [r3, #2]	@ zero_extendqisi2
 588 000a 00F00F00 		and	r0, r0, #15
 589 000e 114B     		ldr	r3, .L65+8
 590 0010 1860     		str	r0, [r3]
 849:.\Generated_Source\PSoC5/CAN_TX_RX_func.c **** 	for(bIndex = 0;bIndex<RXDLC;bIndex++)
 591              		.loc 1 849 0
 592 0012 0022     		movs	r2, #0
 593 0014 104B     		ldr	r3, .L65+12
 594 0016 1A60     		str	r2, [r3]
 595 0018 0EE0     		b	.L61
 596              	.L64:
 850:.\Generated_Source\PSoC5/CAN_TX_RX_func.c **** 	{
 851:.\Generated_Source\PSoC5/CAN_TX_RX_func.c **** 		RXMessage4[bIndex] = CAN_RX_DATA_BYTE(4,bIndex);
 597              		.loc 1 851 0
 598 001a 032B     		cmp	r3, #3
 599 001c 02D9     		bls	.L62
 600              		.loc 1 851 0 is_stmt 0 discriminator 1
 601 001e C3F10B01 		rsb	r1, r3, #11
 602 0022 01E0     		b	.L63
 603              	.L62:
 604              		.loc 1 851 0 discriminator 2
 605 0024 C3F10301 		rsb	r1, r3, #3
 606              	.L63:
 607              		.loc 1 851 0 discriminator 4
 608 0028 0C4A     		ldr	r2, .L65+16
 609 002a 515C     		ldrb	r1, [r2, r1]	@ zero_extendqisi2
 610 002c 0C4A     		ldr	r2, .L65+20
 611 002e 42F82310 		str	r1, [r2, r3, lsl #2]
 849:.\Generated_Source\PSoC5/CAN_TX_RX_func.c **** 	for(bIndex = 0;bIndex<RXDLC;bIndex++)
 612              		.loc 1 849 0 is_stmt 1 discriminator 4
 613 0032 0133     		adds	r3, r3, #1
 614 0034 084A     		ldr	r2, .L65+12
 615 0036 1360     		str	r3, [r2]
ARM GAS  C:\Users\charl\AppData\Local\Temp\ccRVL0BE.s 			page 27


 616              	.L61:
 849:.\Generated_Source\PSoC5/CAN_TX_RX_func.c **** 	for(bIndex = 0;bIndex<RXDLC;bIndex++)
 617              		.loc 1 849 0 is_stmt 0 discriminator 2
 618 0038 074B     		ldr	r3, .L65+12
 619 003a 1B68     		ldr	r3, [r3]
 620 003c 9842     		cmp	r0, r3
 621 003e ECD8     		bhi	.L64
 852:.\Generated_Source\PSoC5/CAN_TX_RX_func.c **** 	}
 853:.\Generated_Source\PSoC5/CAN_TX_RX_func.c ****         /* `#END` */
 854:.\Generated_Source\PSoC5/CAN_TX_RX_func.c **** 
 855:.\Generated_Source\PSoC5/CAN_TX_RX_func.c ****         #ifdef CAN_RECEIVE_MSG_BMS1_CALLBACK
 856:.\Generated_Source\PSoC5/CAN_TX_RX_func.c ****             CAN_ReceiveMsg_BMS1_Callback();
 857:.\Generated_Source\PSoC5/CAN_TX_RX_func.c ****         #endif /* CAN_RECEIVE_MSG_BMS1_CALLBACK */
 858:.\Generated_Source\PSoC5/CAN_TX_RX_func.c **** 
 859:.\Generated_Source\PSoC5/CAN_TX_RX_func.c ****         CAN_RX[4u].rxcmd.byte[0u] |= CAN_RX_ACK_MSG;
 622              		.loc 1 859 0 is_stmt 1
 623 0040 034A     		ldr	r2, .L65+4
 624 0042 1378     		ldrb	r3, [r2]	@ zero_extendqisi2
 625 0044 43F00103 		orr	r3, r3, #1
 626 0048 1370     		strb	r3, [r2]
 627 004a 7047     		bx	lr
 628              	.L66:
 629              		.align	2
 630              	.L65:
 631 004c 00000000 		.word	RXFlag4
 632 0050 20A10040 		.word	1073783072
 633 0054 00000000 		.word	RXDLC
 634 0058 00000000 		.word	.LANCHOR0
 635 005c 28A10040 		.word	1073783080
 636 0060 00000000 		.word	RXMessage4
 637              		.cfi_endproc
 638              	.LFE7:
 639              		.size	CAN_ReceiveMsgBMS1, .-CAN_ReceiveMsgBMS1
 640              		.section	.text.CAN_ReceiveMsgVMC30_3,"ax",%progbits
 641              		.align	2
 642              		.global	CAN_ReceiveMsgVMC30_3
 643              		.thumb
 644              		.thumb_func
 645              		.type	CAN_ReceiveMsgVMC30_3, %function
 646              	CAN_ReceiveMsgVMC30_3:
 647              	.LFB8:
 860:.\Generated_Source\PSoC5/CAN_TX_RX_func.c ****     }
 861:.\Generated_Source\PSoC5/CAN_TX_RX_func.c **** #endif /* CAN_RX4_FUNC_ENABLE */
 862:.\Generated_Source\PSoC5/CAN_TX_RX_func.c **** 
 863:.\Generated_Source\PSoC5/CAN_TX_RX_func.c **** 
 864:.\Generated_Source\PSoC5/CAN_TX_RX_func.c **** #if (CAN_RX5_FUNC_ENABLE)
 865:.\Generated_Source\PSoC5/CAN_TX_RX_func.c ****     /*******************************************************************************
 866:.\Generated_Source\PSoC5/CAN_TX_RX_func.c ****     * FUNCTION NAME:   CAN_ReceiveMsgVMC30_3
 867:.\Generated_Source\PSoC5/CAN_TX_RX_func.c ****     ********************************************************************************
 868:.\Generated_Source\PSoC5/CAN_TX_RX_func.c ****     *
 869:.\Generated_Source\PSoC5/CAN_TX_RX_func.c ****     * Summary:
 870:.\Generated_Source\PSoC5/CAN_TX_RX_func.c ****     *  This function is the entry point to Receive Message 5 Interrupt. Clears the
 871:.\Generated_Source\PSoC5/CAN_TX_RX_func.c ****     *  Receive Message 5 interrupt flag. Generated only for the Receive mailbox
 872:.\Generated_Source\PSoC5/CAN_TX_RX_func.c ****     *  designed as Full.
 873:.\Generated_Source\PSoC5/CAN_TX_RX_func.c ****     *
 874:.\Generated_Source\PSoC5/CAN_TX_RX_func.c ****     * Parameters:
 875:.\Generated_Source\PSoC5/CAN_TX_RX_func.c ****     *  None.
ARM GAS  C:\Users\charl\AppData\Local\Temp\ccRVL0BE.s 			page 28


 876:.\Generated_Source\PSoC5/CAN_TX_RX_func.c ****     *
 877:.\Generated_Source\PSoC5/CAN_TX_RX_func.c ****     * Return:
 878:.\Generated_Source\PSoC5/CAN_TX_RX_func.c ****     *  None.
 879:.\Generated_Source\PSoC5/CAN_TX_RX_func.c ****     *
 880:.\Generated_Source\PSoC5/CAN_TX_RX_func.c ****     * Reentrant:
 881:.\Generated_Source\PSoC5/CAN_TX_RX_func.c ****     *  Depends on the Customer code.
 882:.\Generated_Source\PSoC5/CAN_TX_RX_func.c ****     *
 883:.\Generated_Source\PSoC5/CAN_TX_RX_func.c ****     *******************************************************************************/
 884:.\Generated_Source\PSoC5/CAN_TX_RX_func.c ****     void CAN_ReceiveMsgVMC30_3(void) 
 885:.\Generated_Source\PSoC5/CAN_TX_RX_func.c ****     {
 648              		.loc 1 885 0
 649              		.cfi_startproc
 650              		@ args = 0, pretend = 0, frame = 0
 651              		@ frame_needed = 0, uses_anonymous_args = 0
 652              		@ link register save eliminated.
 886:.\Generated_Source\PSoC5/CAN_TX_RX_func.c ****         /* `#START MESSAGE_VMC30_3_RECEIVED` */
 887:.\Generated_Source\PSoC5/CAN_TX_RX_func.c **** 	RXFlag5 = 1; //Set Flag
 653              		.loc 1 887 0
 654 0000 0122     		movs	r2, #1
 655 0002 124B     		ldr	r3, .L72
 656 0004 1A60     		str	r2, [r3]
 888:.\Generated_Source\PSoC5/CAN_TX_RX_func.c **** 	RXDLC = CAN_GET_DLC(5);
 657              		.loc 1 888 0
 658 0006 124B     		ldr	r3, .L72+4
 659 0008 9878     		ldrb	r0, [r3, #2]	@ zero_extendqisi2
 660 000a 00F00F00 		and	r0, r0, #15
 661 000e 114B     		ldr	r3, .L72+8
 662 0010 1860     		str	r0, [r3]
 889:.\Generated_Source\PSoC5/CAN_TX_RX_func.c **** 	for(bIndex = 0;bIndex<RXDLC;bIndex++)
 663              		.loc 1 889 0
 664 0012 0022     		movs	r2, #0
 665 0014 104B     		ldr	r3, .L72+12
 666 0016 1A60     		str	r2, [r3]
 667 0018 0EE0     		b	.L68
 668              	.L71:
 890:.\Generated_Source\PSoC5/CAN_TX_RX_func.c **** 	{
 891:.\Generated_Source\PSoC5/CAN_TX_RX_func.c **** 		RXMessage5[bIndex] = CAN_RX_DATA_BYTE(5,bIndex);
 669              		.loc 1 891 0
 670 001a 032B     		cmp	r3, #3
 671 001c 02D9     		bls	.L69
 672              		.loc 1 891 0 is_stmt 0 discriminator 1
 673 001e C3F10B01 		rsb	r1, r3, #11
 674 0022 01E0     		b	.L70
 675              	.L69:
 676              		.loc 1 891 0 discriminator 2
 677 0024 C3F10301 		rsb	r1, r3, #3
 678              	.L70:
 679              		.loc 1 891 0 discriminator 4
 680 0028 0C4A     		ldr	r2, .L72+16
 681 002a 515C     		ldrb	r1, [r2, r1]	@ zero_extendqisi2
 682 002c 0C4A     		ldr	r2, .L72+20
 683 002e 42F82310 		str	r1, [r2, r3, lsl #2]
 889:.\Generated_Source\PSoC5/CAN_TX_RX_func.c **** 	for(bIndex = 0;bIndex<RXDLC;bIndex++)
 684              		.loc 1 889 0 is_stmt 1 discriminator 4
 685 0032 0133     		adds	r3, r3, #1
 686 0034 084A     		ldr	r2, .L72+12
 687 0036 1360     		str	r3, [r2]
ARM GAS  C:\Users\charl\AppData\Local\Temp\ccRVL0BE.s 			page 29


 688              	.L68:
 889:.\Generated_Source\PSoC5/CAN_TX_RX_func.c **** 	for(bIndex = 0;bIndex<RXDLC;bIndex++)
 689              		.loc 1 889 0 is_stmt 0 discriminator 2
 690 0038 074B     		ldr	r3, .L72+12
 691 003a 1B68     		ldr	r3, [r3]
 692 003c 9842     		cmp	r0, r3
 693 003e ECD8     		bhi	.L71
 892:.\Generated_Source\PSoC5/CAN_TX_RX_func.c **** 	}
 893:.\Generated_Source\PSoC5/CAN_TX_RX_func.c ****         /* `#END` */
 894:.\Generated_Source\PSoC5/CAN_TX_RX_func.c **** 
 895:.\Generated_Source\PSoC5/CAN_TX_RX_func.c ****         #ifdef CAN_RECEIVE_MSG_VMC30_3_CALLBACK
 896:.\Generated_Source\PSoC5/CAN_TX_RX_func.c ****             CAN_ReceiveMsg_VMC30_3_Callback();
 897:.\Generated_Source\PSoC5/CAN_TX_RX_func.c ****         #endif /* CAN_RECEIVE_MSG_VMC30_3_CALLBACK */
 898:.\Generated_Source\PSoC5/CAN_TX_RX_func.c **** 
 899:.\Generated_Source\PSoC5/CAN_TX_RX_func.c ****         CAN_RX[5u].rxcmd.byte[0u] |= CAN_RX_ACK_MSG;
 694              		.loc 1 899 0 is_stmt 1
 695 0040 034A     		ldr	r2, .L72+4
 696 0042 1378     		ldrb	r3, [r2]	@ zero_extendqisi2
 697 0044 43F00103 		orr	r3, r3, #1
 698 0048 1370     		strb	r3, [r2]
 699 004a 7047     		bx	lr
 700              	.L73:
 701              		.align	2
 702              	.L72:
 703 004c 00000000 		.word	RXFlag5
 704 0050 40A10040 		.word	1073783104
 705 0054 00000000 		.word	RXDLC
 706 0058 00000000 		.word	.LANCHOR0
 707 005c 48A10040 		.word	1073783112
 708 0060 00000000 		.word	RXMessage5
 709              		.cfi_endproc
 710              	.LFE8:
 711              		.size	CAN_ReceiveMsgVMC30_3, .-CAN_ReceiveMsgVMC30_3
 712              		.section	.text.CAN_ReceiveMsgBMS2,"ax",%progbits
 713              		.align	2
 714              		.global	CAN_ReceiveMsgBMS2
 715              		.thumb
 716              		.thumb_func
 717              		.type	CAN_ReceiveMsgBMS2, %function
 718              	CAN_ReceiveMsgBMS2:
 719              	.LFB9:
 900:.\Generated_Source\PSoC5/CAN_TX_RX_func.c ****     }
 901:.\Generated_Source\PSoC5/CAN_TX_RX_func.c **** #endif /* CAN_RX5_FUNC_ENABLE */
 902:.\Generated_Source\PSoC5/CAN_TX_RX_func.c **** 
 903:.\Generated_Source\PSoC5/CAN_TX_RX_func.c **** 
 904:.\Generated_Source\PSoC5/CAN_TX_RX_func.c **** #if (CAN_RX6_FUNC_ENABLE)
 905:.\Generated_Source\PSoC5/CAN_TX_RX_func.c ****     /*******************************************************************************
 906:.\Generated_Source\PSoC5/CAN_TX_RX_func.c ****     * FUNCTION NAME:   CAN_ReceiveMsgBMS2
 907:.\Generated_Source\PSoC5/CAN_TX_RX_func.c ****     ********************************************************************************
 908:.\Generated_Source\PSoC5/CAN_TX_RX_func.c ****     *
 909:.\Generated_Source\PSoC5/CAN_TX_RX_func.c ****     * Summary:
 910:.\Generated_Source\PSoC5/CAN_TX_RX_func.c ****     *  This function is the entry point to Receive Message 6 Interrupt. Clears the
 911:.\Generated_Source\PSoC5/CAN_TX_RX_func.c ****     *  Receive Message 6 interrupt flag. Generated only for the Receive mailbox
 912:.\Generated_Source\PSoC5/CAN_TX_RX_func.c ****     *  designed as Full.
 913:.\Generated_Source\PSoC5/CAN_TX_RX_func.c ****     *
 914:.\Generated_Source\PSoC5/CAN_TX_RX_func.c ****     * Parameters:
 915:.\Generated_Source\PSoC5/CAN_TX_RX_func.c ****     *  None.
ARM GAS  C:\Users\charl\AppData\Local\Temp\ccRVL0BE.s 			page 30


 916:.\Generated_Source\PSoC5/CAN_TX_RX_func.c ****     *
 917:.\Generated_Source\PSoC5/CAN_TX_RX_func.c ****     * Return:
 918:.\Generated_Source\PSoC5/CAN_TX_RX_func.c ****     *  None.
 919:.\Generated_Source\PSoC5/CAN_TX_RX_func.c ****     *
 920:.\Generated_Source\PSoC5/CAN_TX_RX_func.c ****     * Reentrant:
 921:.\Generated_Source\PSoC5/CAN_TX_RX_func.c ****     *  Depends on the Customer code.
 922:.\Generated_Source\PSoC5/CAN_TX_RX_func.c ****     *
 923:.\Generated_Source\PSoC5/CAN_TX_RX_func.c ****     *******************************************************************************/
 924:.\Generated_Source\PSoC5/CAN_TX_RX_func.c ****     void CAN_ReceiveMsgBMS2(void) 
 925:.\Generated_Source\PSoC5/CAN_TX_RX_func.c ****     {
 720              		.loc 1 925 0
 721              		.cfi_startproc
 722              		@ args = 0, pretend = 0, frame = 0
 723              		@ frame_needed = 0, uses_anonymous_args = 0
 724              		@ link register save eliminated.
 926:.\Generated_Source\PSoC5/CAN_TX_RX_func.c ****         /* `#START MESSAGE_BMS2_RECEIVED` */
 927:.\Generated_Source\PSoC5/CAN_TX_RX_func.c **** 	RXFlag6 = 1; //Set Flag
 725              		.loc 1 927 0
 726 0000 0122     		movs	r2, #1
 727 0002 124B     		ldr	r3, .L79
 728 0004 1A60     		str	r2, [r3]
 928:.\Generated_Source\PSoC5/CAN_TX_RX_func.c **** 	RXDLC = CAN_GET_DLC(5);
 729              		.loc 1 928 0
 730 0006 124B     		ldr	r3, .L79+4
 731 0008 9878     		ldrb	r0, [r3, #2]	@ zero_extendqisi2
 732 000a 00F00F00 		and	r0, r0, #15
 733 000e 114B     		ldr	r3, .L79+8
 734 0010 1860     		str	r0, [r3]
 929:.\Generated_Source\PSoC5/CAN_TX_RX_func.c **** 	for(bIndex = 0;bIndex<RXDLC;bIndex++)
 735              		.loc 1 929 0
 736 0012 0022     		movs	r2, #0
 737 0014 104B     		ldr	r3, .L79+12
 738 0016 1A60     		str	r2, [r3]
 739 0018 0EE0     		b	.L75
 740              	.L78:
 930:.\Generated_Source\PSoC5/CAN_TX_RX_func.c **** 	{
 931:.\Generated_Source\PSoC5/CAN_TX_RX_func.c **** 		RXMessage6[bIndex] = CAN_RX_DATA_BYTE(5,bIndex);
 741              		.loc 1 931 0
 742 001a 032B     		cmp	r3, #3
 743 001c 02D9     		bls	.L76
 744              		.loc 1 931 0 is_stmt 0 discriminator 1
 745 001e C3F10B01 		rsb	r1, r3, #11
 746 0022 01E0     		b	.L77
 747              	.L76:
 748              		.loc 1 931 0 discriminator 2
 749 0024 C3F10301 		rsb	r1, r3, #3
 750              	.L77:
 751              		.loc 1 931 0 discriminator 4
 752 0028 0C4A     		ldr	r2, .L79+16
 753 002a 515C     		ldrb	r1, [r2, r1]	@ zero_extendqisi2
 754 002c 0C4A     		ldr	r2, .L79+20
 755 002e 42F82310 		str	r1, [r2, r3, lsl #2]
 929:.\Generated_Source\PSoC5/CAN_TX_RX_func.c **** 	for(bIndex = 0;bIndex<RXDLC;bIndex++)
 756              		.loc 1 929 0 is_stmt 1 discriminator 4
 757 0032 0133     		adds	r3, r3, #1
 758 0034 084A     		ldr	r2, .L79+12
 759 0036 1360     		str	r3, [r2]
ARM GAS  C:\Users\charl\AppData\Local\Temp\ccRVL0BE.s 			page 31


 760              	.L75:
 929:.\Generated_Source\PSoC5/CAN_TX_RX_func.c **** 	for(bIndex = 0;bIndex<RXDLC;bIndex++)
 761              		.loc 1 929 0 is_stmt 0 discriminator 2
 762 0038 074B     		ldr	r3, .L79+12
 763 003a 1B68     		ldr	r3, [r3]
 764 003c 9842     		cmp	r0, r3
 765 003e ECD8     		bhi	.L78
 932:.\Generated_Source\PSoC5/CAN_TX_RX_func.c **** 	}
 933:.\Generated_Source\PSoC5/CAN_TX_RX_func.c ****         /* `#END` */
 934:.\Generated_Source\PSoC5/CAN_TX_RX_func.c **** 
 935:.\Generated_Source\PSoC5/CAN_TX_RX_func.c ****         #ifdef CAN_RECEIVE_MSG_BMS2_CALLBACK
 936:.\Generated_Source\PSoC5/CAN_TX_RX_func.c ****             CAN_ReceiveMsg_BMS2_Callback();
 937:.\Generated_Source\PSoC5/CAN_TX_RX_func.c ****         #endif /* CAN_RECEIVE_MSG_BMS2_CALLBACK */
 938:.\Generated_Source\PSoC5/CAN_TX_RX_func.c **** 
 939:.\Generated_Source\PSoC5/CAN_TX_RX_func.c ****         CAN_RX[6u].rxcmd.byte[0u] |= CAN_RX_ACK_MSG;
 766              		.loc 1 939 0 is_stmt 1
 767 0040 084A     		ldr	r2, .L79+24
 768 0042 1378     		ldrb	r3, [r2]	@ zero_extendqisi2
 769 0044 43F00103 		orr	r3, r3, #1
 770 0048 1370     		strb	r3, [r2]
 771 004a 7047     		bx	lr
 772              	.L80:
 773              		.align	2
 774              	.L79:
 775 004c 00000000 		.word	RXFlag6
 776 0050 40A10040 		.word	1073783104
 777 0054 00000000 		.word	RXDLC
 778 0058 00000000 		.word	.LANCHOR0
 779 005c 48A10040 		.word	1073783112
 780 0060 00000000 		.word	RXMessage6
 781 0064 60A10040 		.word	1073783136
 782              		.cfi_endproc
 783              	.LFE9:
 784              		.size	CAN_ReceiveMsgBMS2, .-CAN_ReceiveMsgBMS2
 785              		.global	bIndex
 786              		.bss
 787              		.align	2
 788              		.set	.LANCHOR0,. + 0
 789              		.type	bIndex, %object
 790              		.size	bIndex, 4
 791              	bIndex:
 792 0000 00000000 		.space	4
 793              		.text
 794              	.Letext0:
 795              		.file 2 ".\\Generated_Source\\PSoC5\\cytypes.h"
 796              		.file 3 ".\\Generated_Source\\PSoC5\\CAN.h"
 797              		.file 4 "c:\\program files (x86)\\cypress\\psoc creator\\3.3\\psoc creator\\import\\gnu\\arm\\4.9.