ARM GAS  C:\Users\charl\AppData\Local\Temp\cc1E4r6O.s 			page 1


   1              		.syntax unified
   2              		.cpu cortex-m3
   3              		.fpu softvfp
   4              		.eabi_attribute 20, 1
   5              		.eabi_attribute 21, 1
   6              		.eabi_attribute 23, 3
   7              		.eabi_attribute 24, 1
   8              		.eabi_attribute 25, 1
   9              		.eabi_attribute 26, 1
  10              		.eabi_attribute 30, 1
  11              		.eabi_attribute 34, 1
  12              		.eabi_attribute 18, 4
  13              		.thumb
  14              		.file	"Dash_Funcs.c"
  15              		.text
  16              	.Ltext0:
  17              		.cfi_sections	.debug_frame
  18              		.global	__aeabi_ui2d
  19              		.global	__aeabi_dmul
  20              		.section	.text.ParseCAN,"ax",%progbits
  21              		.align	2
  22              		.global	ParseCAN
  23              		.thumb
  24              		.thumb_func
  25              		.type	ParseCAN, %function
  26              	ParseCAN:
  27              	.LFB63:
  28              		.file 1 ".\\Dash_Funcs.c"
   1:.\Dash_Funcs.c **** #include <device.h>
   2:.\Dash_Funcs.c **** #include <stdio.h>
   3:.\Dash_Funcs.c **** #include "Dash_Funcs.h"
   4:.\Dash_Funcs.c **** 
   5:.\Dash_Funcs.c **** 
   6:.\Dash_Funcs.c **** //This function parses the CAN data from Motec into usable and displayable values
   7:.\Dash_Funcs.c **** int ParseCAN()
   8:.\Dash_Funcs.c **** {
  29              		.loc 1 8 0
  30              		.cfi_startproc
  31              		@ args = 0, pretend = 0, frame = 0
  32              		@ frame_needed = 0, uses_anonymous_args = 0
  33 0000 10B5     		push	{r4, lr}
  34              		.cfi_def_cfa_offset 8
  35              		.cfi_offset 4, -8
  36              		.cfi_offset 14, -4
   9:.\Dash_Funcs.c ****     //Message ID 0x187
  10:.\Dash_Funcs.c ****     motorSpeed = (RXMessage0[0] | (RXMessage0[1]<<8));
  37              		.loc 1 10 0
  38 0002 5B4C     		ldr	r4, .L3+8
  39 0004 2368     		ldr	r3, [r4]
  40 0006 6268     		ldr	r2, [r4, #4]
  41 0008 43EA0223 		orr	r3, r3, r2, lsl #8
  42 000c 594A     		ldr	r2, .L3+12
  43 000e 1380     		strh	r3, [r2]	@ movhi
  11:.\Dash_Funcs.c ****     nodeStatus =(RXMessage0[2] | (RXMessage0[3]<<8));
  44              		.loc 1 11 0
  45 0010 A368     		ldr	r3, [r4, #8]
  46 0012 E268     		ldr	r2, [r4, #12]
ARM GAS  C:\Users\charl\AppData\Local\Temp\cc1E4r6O.s 			page 2


  47 0014 43EA0223 		orr	r3, r3, r2, lsl #8
  48 0018 574A     		ldr	r2, .L3+16
  49 001a 1380     		strh	r3, [r2]	@ movhi
  12:.\Dash_Funcs.c ****     nodeDCVoltage = (RXMessage0[4] | (RXMessage0[5]<<8))*0.01; //Centivolts //Make variable a float
  50              		.loc 1 12 0
  51 001c 2369     		ldr	r3, [r4, #16]
  52 001e 6069     		ldr	r0, [r4, #20]
  53 0020 43EA0020 		orr	r0, r3, r0, lsl #8
  54 0024 FFF7FEFF 		bl	__aeabi_ui2d
  55              	.LVL0:
  56 0028 4FA3     		adr	r3, .L3
  57 002a D3E90023 		ldrd	r2, [r3]
  58 002e FFF7FEFF 		bl	__aeabi_dmul
  59              	.LVL1:
  60 0032 524B     		ldr	r3, .L3+20
  61 0034 C3E90001 		strd	r0, [r3]
  13:.\Dash_Funcs.c ****     rmsMotorCurrent = (RXMessage0[6] | (RXMessage0[7]<<8));
  62              		.loc 1 13 0
  63 0038 A369     		ldr	r3, [r4, #24]
  64 003a E269     		ldr	r2, [r4, #28]
  65 003c 43EA0223 		orr	r3, r3, r2, lsl #8
  66 0040 4F4A     		ldr	r2, .L3+24
  67 0042 1380     		strh	r3, [r2]	@ movhi
  14:.\Dash_Funcs.c ****     //Message ID 0x287
  15:.\Dash_Funcs.c ****     heatSinkTemp = (RXMessage1[0] | (RXMessage1[1]<<8));
  68              		.loc 1 15 0
  69 0044 4F4B     		ldr	r3, .L3+28
  70 0046 1A68     		ldr	r2, [r3]
  71 0048 5968     		ldr	r1, [r3, #4]
  72 004a 42EA0122 		orr	r2, r2, r1, lsl #8
  73 004e 4E49     		ldr	r1, .L3+32
  74 0050 0A80     		strh	r2, [r1]	@ movhi
  16:.\Dash_Funcs.c ****     motorTemp =(RXMessage1[2] | (RXMessage1[3]<<8));
  75              		.loc 1 16 0
  76 0052 9A68     		ldr	r2, [r3, #8]
  77 0054 D968     		ldr	r1, [r3, #12]
  78 0056 42EA0122 		orr	r2, r2, r1, lsl #8
  79 005a 4C49     		ldr	r1, .L3+36
  80 005c 0A80     		strh	r2, [r1]	@ movhi
  17:.\Dash_Funcs.c ****     dcCurrent = (RXMessage1[4] | (RXMessage1[5]<<8));
  81              		.loc 1 17 0
  82 005e 1A69     		ldr	r2, [r3, #16]
  83 0060 5969     		ldr	r1, [r3, #20]
  84 0062 42EA0122 		orr	r2, r2, r1, lsl #8
  85 0066 4A49     		ldr	r1, .L3+40
  86 0068 0A80     		strh	r2, [r1]	@ movhi
  18:.\Dash_Funcs.c ****     voltageAngle = (RXMessage1[6] | (RXMessage1[7]<<8));
  87              		.loc 1 18 0
  88 006a 1A8B     		ldrh	r2, [r3, #24]
  89 006c DB69     		ldr	r3, [r3, #28]
  90 006e 42EA0323 		orr	r3, r2, r3, lsl #8
  91 0072 4849     		ldr	r1, .L3+44
  92 0074 0B80     		strh	r3, [r1]	@ movhi
  19:.\Dash_Funcs.c ****     //Message ID 0x205
  20:.\Dash_Funcs.c ****     vmc30State = (RXMessage2[0] | (RXMessage2[1]<<8));
  93              		.loc 1 20 0
  94 0076 484B     		ldr	r3, .L3+48
ARM GAS  C:\Users\charl\AppData\Local\Temp\cc1E4r6O.s 			page 3


  95 0078 1968     		ldr	r1, [r3]
  96 007a 5868     		ldr	r0, [r3, #4]
  97 007c 41EA0021 		orr	r1, r1, r0, lsl #8
  98 0080 4648     		ldr	r0, .L3+52
  99 0082 0180     		strh	r1, [r0]	@ movhi
  21:.\Dash_Funcs.c ****     steeringFiltered =(RXMessage2[2] | (RXMessage2[3]<<8));
 100              		.loc 1 21 0
 101 0084 9968     		ldr	r1, [r3, #8]
 102 0086 D868     		ldr	r0, [r3, #12]
 103 0088 41EA0021 		orr	r1, r1, r0, lsl #8
 104 008c 4448     		ldr	r0, .L3+56
 105 008e 0180     		strh	r1, [r0]	@ movhi
  22:.\Dash_Funcs.c ****     throttleFiltered = (RXMessage2[4] | (RXMessage2[5]<<8));
 106              		.loc 1 22 0
 107 0090 1969     		ldr	r1, [r3, #16]
 108 0092 5869     		ldr	r0, [r3, #20]
 109 0094 41EA0021 		orr	r1, r1, r0, lsl #8
 110 0098 4248     		ldr	r0, .L3+60
 111 009a 0180     		strh	r1, [r0]	@ movhi
  23:.\Dash_Funcs.c ****     errorBits = (RXMessage1[6] | (RXMessage2[7]<<8)); 
 112              		.loc 1 23 0
 113 009c DB69     		ldr	r3, [r3, #28]
 114 009e 42EA0322 		orr	r2, r2, r3, lsl #8
 115 00a2 414B     		ldr	r3, .L3+64
 116 00a4 1A80     		strh	r2, [r3]	@ movhi
  24:.\Dash_Funcs.c ****     //Message ID 0x201
  25:.\Dash_Funcs.c ****     commandWord = (RXMessage3[0] | (RXMessage3[1]<<8));
 117              		.loc 1 25 0
 118 00a6 414B     		ldr	r3, .L3+68
 119 00a8 1A68     		ldr	r2, [r3]
 120 00aa 5968     		ldr	r1, [r3, #4]
 121 00ac 42EA0122 		orr	r2, r2, r1, lsl #8
 122 00b0 3F49     		ldr	r1, .L3+72
 123 00b2 0A80     		strh	r2, [r1]	@ movhi
  26:.\Dash_Funcs.c ****     commandCurrent =(RXMessage3[2] | (RXMessage3[3]<<8));
 124              		.loc 1 26 0
 125 00b4 9A68     		ldr	r2, [r3, #8]
 126 00b6 D968     		ldr	r1, [r3, #12]
 127 00b8 42EA0122 		orr	r2, r2, r1, lsl #8
 128 00bc 3D49     		ldr	r1, .L3+76
 129 00be 0A80     		strh	r2, [r1]	@ movhi
  27:.\Dash_Funcs.c ****     accelCurrentLimit = (RXMessage3[4] | (RXMessage3[5]<<8));
 130              		.loc 1 27 0
 131 00c0 1A69     		ldr	r2, [r3, #16]
 132 00c2 5969     		ldr	r1, [r3, #20]
 133 00c4 42EA0122 		orr	r2, r2, r1, lsl #8
 134 00c8 3B49     		ldr	r1, .L3+80
 135 00ca 0A80     		strh	r2, [r1]	@ movhi
  28:.\Dash_Funcs.c ****     decelCurrentLimit = (RXMessage3[6] | (RXMessage3[7]<<8));   
 136              		.loc 1 28 0
 137 00cc 9A69     		ldr	r2, [r3, #24]
 138 00ce DB69     		ldr	r3, [r3, #28]
 139 00d0 42EA0323 		orr	r3, r2, r3, lsl #8
 140 00d4 394A     		ldr	r2, .L3+84
 141 00d6 1380     		strh	r3, [r2]	@ movhi
  29:.\Dash_Funcs.c ****     //Message ID 0x183
  30:.\Dash_Funcs.c ****     bmsCCL = (RXMessage4[0] | (RXMessage4[1]<<8));
ARM GAS  C:\Users\charl\AppData\Local\Temp\cc1E4r6O.s 			page 4


 142              		.loc 1 30 0
 143 00d8 394B     		ldr	r3, .L3+88
 144 00da 1A68     		ldr	r2, [r3]
 145 00dc 5968     		ldr	r1, [r3, #4]
 146 00de 42EA0122 		orr	r2, r2, r1, lsl #8
 147 00e2 3849     		ldr	r1, .L3+92
 148 00e4 0A80     		strh	r2, [r1]	@ movhi
  31:.\Dash_Funcs.c ****     bmsDCL =(RXMessage4[2] | (RXMessage4[3]<<8));
 149              		.loc 1 31 0
 150 00e6 9A68     		ldr	r2, [r3, #8]
 151 00e8 D968     		ldr	r1, [r3, #12]
 152 00ea 42EA0122 		orr	r2, r2, r1, lsl #8
 153 00ee 3649     		ldr	r1, .L3+96
 154 00f0 0A80     		strh	r2, [r1]	@ movhi
  32:.\Dash_Funcs.c ****     bmsHighTemp = (RXMessage4[4] | (RXMessage4[5]<<8));
 155              		.loc 1 32 0
 156 00f2 1A69     		ldr	r2, [r3, #16]
 157 00f4 5969     		ldr	r1, [r3, #20]
 158 00f6 42EA0122 		orr	r2, r2, r1, lsl #8
 159 00fa 3449     		ldr	r1, .L3+100
 160 00fc 0A80     		strh	r2, [r1]	@ movhi
  33:.\Dash_Funcs.c ****     bmsPackCurrent = (RXMessage4[6] | (RXMessage4[7]<<8));
 161              		.loc 1 33 0
 162 00fe 9A69     		ldr	r2, [r3, #24]
 163 0100 DB69     		ldr	r3, [r3, #28]
 164 0102 42EA0323 		orr	r3, r2, r3, lsl #8
 165 0106 324A     		ldr	r2, .L3+104
 166 0108 1380     		strh	r3, [r2]	@ movhi
  34:.\Dash_Funcs.c ****     //Message ID 0x305
  35:.\Dash_Funcs.c ****     regen1 = (RXMessage5[0]);
 167              		.loc 1 35 0
 168 010a 324B     		ldr	r3, .L3+108
 169 010c 1968     		ldr	r1, [r3]
 170 010e 324A     		ldr	r2, .L3+112
 171 0110 1180     		strh	r1, [r2]	@ movhi
  36:.\Dash_Funcs.c ****     regen2 = (RXMessage5[1]);
 172              		.loc 1 36 0
 173 0112 5968     		ldr	r1, [r3, #4]
 174 0114 314A     		ldr	r2, .L3+116
 175 0116 1180     		strh	r1, [r2]	@ movhi
  37:.\Dash_Funcs.c ****     brakePercent = (RXMessage5[2] | (RXMessage5[3]<<8));
 176              		.loc 1 37 0
 177 0118 9A68     		ldr	r2, [r3, #8]
 178 011a D968     		ldr	r1, [r3, #12]
 179 011c 42EA0122 		orr	r2, r2, r1, lsl #8
 180 0120 2F49     		ldr	r1, .L3+120
 181 0122 0A80     		strh	r2, [r1]	@ movhi
  38:.\Dash_Funcs.c ****     throttlePercent = (RXMessage5[4] | (RXMessage5[5]<<8));
 182              		.loc 1 38 0
 183 0124 1A69     		ldr	r2, [r3, #16]
 184 0126 5B69     		ldr	r3, [r3, #20]
 185 0128 42EA0323 		orr	r3, r2, r3, lsl #8
 186 012c 2D4A     		ldr	r2, .L3+124
 187 012e 1380     		strh	r3, [r2]	@ movhi
  39:.\Dash_Funcs.c ****     
  40:.\Dash_Funcs.c ****     //Message ID 0x100
  41:.\Dash_Funcs.c ****     cellID = RXMessage6[0]+1;
ARM GAS  C:\Users\charl\AppData\Local\Temp\cc1E4r6O.s 			page 5


 188              		.loc 1 41 0
 189 0130 2D4B     		ldr	r3, .L3+128
 190 0132 1A68     		ldr	r2, [r3]
 191 0134 0132     		adds	r2, r2, #1
 192 0136 2D49     		ldr	r1, .L3+132
 193 0138 0A80     		strh	r2, [r1]	@ movhi
  42:.\Dash_Funcs.c ****     instVoltage =(RXMessage6[2] | (RXMessage6[3]<<8));
 194              		.loc 1 42 0
 195 013a 9A68     		ldr	r2, [r3, #8]
 196 013c D968     		ldr	r1, [r3, #12]
 197 013e 42EA0122 		orr	r2, r2, r1, lsl #8
 198 0142 2B49     		ldr	r1, .L3+136
 199 0144 0A80     		strh	r2, [r1]	@ movhi
  43:.\Dash_Funcs.c ****     openVoltage = (RXMessage6[4] | (RXMessage6[5]<<8));
 200              		.loc 1 43 0
 201 0146 1A69     		ldr	r2, [r3, #16]
 202 0148 5969     		ldr	r1, [r3, #20]
 203 014a 42EA0122 		orr	r2, r2, r1, lsl #8
 204 014e 2949     		ldr	r1, .L3+140
 205 0150 0A80     		strh	r2, [r1]	@ movhi
  44:.\Dash_Funcs.c ****     checkSum = (RXMessage6[7]);
 206              		.loc 1 44 0
 207 0152 DA69     		ldr	r2, [r3, #28]
 208 0154 284B     		ldr	r3, .L3+144
 209 0156 1A80     		strh	r2, [r3]	@ movhi
  45:.\Dash_Funcs.c ****     //All messages received, update the display
  46:.\Dash_Funcs.c ****     DispUpdate = 1;
 210              		.loc 1 46 0
 211 0158 0122     		movs	r2, #1
 212 015a 284B     		ldr	r3, .L3+148
 213 015c 1A60     		str	r2, [r3]
  47:.\Dash_Funcs.c ****     
  48:.\Dash_Funcs.c ****     return 0;
  49:.\Dash_Funcs.c **** }
 214              		.loc 1 49 0
 215 015e 0020     		movs	r0, #0
 216 0160 10BD     		pop	{r4, pc}
 217              	.L4:
 218 0162 00BFAFF3 		.align	3
 218      0080
 219              	.L3:
 220 0168 7B14AE47 		.word	1202590843
 221 016c E17A843F 		.word	1065646817
 222 0170 00000000 		.word	RXMessage0
 223 0174 00000000 		.word	motorSpeed
 224 0178 00000000 		.word	nodeStatus
 225 017c 00000000 		.word	nodeDCVoltage
 226 0180 00000000 		.word	rmsMotorCurrent
 227 0184 00000000 		.word	RXMessage1
 228 0188 00000000 		.word	heatSinkTemp
 229 018c 00000000 		.word	motorTemp
 230 0190 00000000 		.word	dcCurrent
 231 0194 00000000 		.word	voltageAngle
 232 0198 00000000 		.word	RXMessage2
 233 019c 00000000 		.word	vmc30State
 234 01a0 00000000 		.word	steeringFiltered
 235 01a4 00000000 		.word	throttleFiltered
ARM GAS  C:\Users\charl\AppData\Local\Temp\cc1E4r6O.s 			page 6


 236 01a8 00000000 		.word	errorBits
 237 01ac 00000000 		.word	RXMessage3
 238 01b0 00000000 		.word	commandWord
 239 01b4 00000000 		.word	commandCurrent
 240 01b8 00000000 		.word	accelCurrentLimit
 241 01bc 00000000 		.word	decelCurrentLimit
 242 01c0 00000000 		.word	RXMessage4
 243 01c4 00000000 		.word	bmsCCL
 244 01c8 00000000 		.word	bmsDCL
 245 01cc 00000000 		.word	bmsHighTemp
 246 01d0 00000000 		.word	bmsPackCurrent
 247 01d4 00000000 		.word	RXMessage5
 248 01d8 00000000 		.word	regen1
 249 01dc 00000000 		.word	regen2
 250 01e0 00000000 		.word	brakePercent
 251 01e4 00000000 		.word	throttlePercent
 252 01e8 00000000 		.word	RXMessage6
 253 01ec 00000000 		.word	cellID
 254 01f0 00000000 		.word	instVoltage
 255 01f4 00000000 		.word	openVoltage
 256 01f8 00000000 		.word	checkSum
 257 01fc 00000000 		.word	DispUpdate
 258              		.cfi_endproc
 259              	.LFE63:
 260              		.size	ParseCAN, .-ParseCAN
 261              		.section	.text.Brightness,"ax",%progbits
 262              		.align	2
 263              		.global	Brightness
 264              		.thumb
 265              		.thumb_func
 266              		.type	Brightness, %function
 267              	Brightness:
 268              	.LFB64:
  50:.\Dash_Funcs.c **** 
  51:.\Dash_Funcs.c **** //I'd like to change this function to not include the shift lights so that they don't flash, or mak
  52:.\Dash_Funcs.c **** //This function changes the brightness of the display
  53:.\Dash_Funcs.c **** //int TargBrightness -> This is the value for the brightness of the shift lights, 4 digit displays
  54:.\Dash_Funcs.c **** //int GearBrightness -> This is the value for the brightness of the gear indicator
  55:.\Dash_Funcs.c **** int Brightness(int TargBrightness, int GearBrightness)
  56:.\Dash_Funcs.c **** {
 269              		.loc 1 56 0
 270              		.cfi_startproc
 271              		@ args = 0, pretend = 0, frame = 0
 272              		@ frame_needed = 0, uses_anonymous_args = 0
 273              	.LVL2:
 274 0000 70B5     		push	{r4, r5, r6, lr}
 275              		.cfi_def_cfa_offset 16
 276              		.cfi_offset 4, -16
 277              		.cfi_offset 5, -12
 278              		.cfi_offset 6, -8
 279              		.cfi_offset 14, -4
 280 0002 0546     		mov	r5, r0
 281 0004 0E46     		mov	r6, r1
 282              	.LVL3:
  57:.\Dash_Funcs.c ****     int i = 0;
  58:.\Dash_Funcs.c ****     for(i = 0;i < 13; i++)
 283              		.loc 1 58 0
ARM GAS  C:\Users\charl\AppData\Local\Temp\cc1E4r6O.s 			page 7


 284 0006 0024     		movs	r4, #0
 285 0008 04E0     		b	.L6
 286              	.LVL4:
 287              	.L7:
  59:.\Dash_Funcs.c ****     {
  60:.\Dash_Funcs.c ****     LED_Driver_LRBWS_SetBrightness(TargBrightness,i);
 288              		.loc 1 60 0 discriminator 3
 289 000a E8B2     		uxtb	r0, r5
 290 000c E1B2     		uxtb	r1, r4
 291 000e FFF7FEFF 		bl	LED_Driver_LRBWS_SetBrightness
 292              	.LVL5:
  58:.\Dash_Funcs.c ****     {
 293              		.loc 1 58 0 discriminator 3
 294 0012 0134     		adds	r4, r4, #1
 295              	.LVL6:
 296              	.L6:
  58:.\Dash_Funcs.c ****     {
 297              		.loc 1 58 0 is_stmt 0 discriminator 1
 298 0014 0C2C     		cmp	r4, #12
 299 0016 F8DD     		ble	.L7
  61:.\Dash_Funcs.c ****     }
  62:.\Dash_Funcs.c ****     LED_Driver_Gear_SetBrightness(GearBrightness,0);
 300              		.loc 1 62 0 is_stmt 1
 301 0018 F0B2     		uxtb	r0, r6
 302 001a 0021     		movs	r1, #0
 303 001c FFF7FEFF 		bl	LED_Driver_Gear_SetBrightness
 304              	.LVL7:
  63:.\Dash_Funcs.c ****     return 0;
  64:.\Dash_Funcs.c **** }
 305              		.loc 1 64 0
 306 0020 0020     		movs	r0, #0
 307 0022 70BD     		pop	{r4, r5, r6, pc}
 308              		.cfi_endproc
 309              	.LFE64:
 310              		.size	Brightness, .-Brightness
 311              		.global	__aeabi_d2iz
 312              		.section	.text.DriveUpdate,"ax",%progbits
 313              		.align	2
 314              		.global	DriveUpdate
 315              		.thumb
 316              		.thumb_func
 317              		.type	DriveUpdate, %function
 318              	DriveUpdate:
 319              	.LFB65:
  65:.\Dash_Funcs.c **** 
  66:.\Dash_Funcs.c **** //This function updates the display in the driving state
  67:.\Dash_Funcs.c **** int DriveUpdate(int Gear)
  68:.\Dash_Funcs.c **** {
 320              		.loc 1 68 0
 321              		.cfi_startproc
 322              		@ args = 0, pretend = 0, frame = 0
 323              		@ frame_needed = 0, uses_anonymous_args = 0
 324              	.LVL8:
 325 0000 10B5     		push	{r4, lr}
 326              		.cfi_def_cfa_offset 8
 327              		.cfi_offset 4, -8
 328              		.cfi_offset 14, -4
ARM GAS  C:\Users\charl\AppData\Local\Temp\cc1E4r6O.s 			page 8


 329 0002 0446     		mov	r4, r0
  69:.\Dash_Funcs.c ****     //Display the selected values
  70:.\Dash_Funcs.c ****     LED_Driver_LRBWS_Write7SegNumberDec(motorSpeed,LeftDisp,4,LED_Driver_LRBWS_RIGHT_ALIGN);       
 330              		.loc 1 70 0
 331 0004 134B     		ldr	r3, .L11
 332 0006 B3F90000 		ldrsh	r0, [r3]
 333              	.LVL9:
 334 000a 0021     		movs	r1, #0
 335 000c 0422     		movs	r2, #4
 336 000e 0B46     		mov	r3, r1
 337 0010 FFF7FEFF 		bl	LED_Driver_LRBWS_Write7SegNumberDec
 338              	.LVL10:
  71:.\Dash_Funcs.c ****     LED_Driver_LRBWS_Write7SegNumberDec(100*nodeDCVoltage,RightDisp,4,LED_Driver_LRBWS_RIGHT_ALIGN)
 339              		.loc 1 71 0
 340 0014 104B     		ldr	r3, .L11+4
 341 0016 D3E90001 		ldrd	r0, [r3]
 342 001a 0022     		movs	r2, #0
 343 001c 0F4B     		ldr	r3, .L11+8
 344 001e FFF7FEFF 		bl	__aeabi_dmul
 345              	.LVL11:
 346 0022 FFF7FEFF 		bl	__aeabi_d2iz
 347              	.LVL12:
 348 0026 0521     		movs	r1, #5
 349 0028 0422     		movs	r2, #4
 350 002a 0023     		movs	r3, #0
 351 002c FFF7FEFF 		bl	LED_Driver_LRBWS_Write7SegNumberDec
 352              	.LVL13:
  72:.\Dash_Funcs.c ****     LED_Driver_LRBWS_SetRC(15,1);//Set DP on position 6 of display
 353              		.loc 1 72 0
 354 0030 0F20     		movs	r0, #15
 355 0032 0121     		movs	r1, #1
 356 0034 FFF7FEFF 		bl	LED_Driver_LRBWS_SetRC
 357              	.LVL14:
  73:.\Dash_Funcs.c ****     LED_Driver_LRBWS_Write7SegNumberDec(motorTemp,BottomDisp,4,LED_Driver_LRBWS_RIGHT_ALIGN); 
 358              		.loc 1 73 0
 359 0038 094B     		ldr	r3, .L11+12
 360 003a 1888     		ldrh	r0, [r3]
 361 003c 0A21     		movs	r1, #10
 362 003e 0422     		movs	r2, #4
 363 0040 0023     		movs	r3, #0
 364 0042 FFF7FEFF 		bl	LED_Driver_LRBWS_Write7SegNumberDec
 365              	.LVL15:
  74:.\Dash_Funcs.c ****     LED_Driver_Gear_Write7SegDigitDec(Gear,0);
 366              		.loc 1 74 0
 367 0046 E0B2     		uxtb	r0, r4
 368 0048 0021     		movs	r1, #0
 369 004a FFF7FEFF 		bl	LED_Driver_Gear_Write7SegDigitDec
 370              	.LVL16:
  75:.\Dash_Funcs.c ****                
  76:.\Dash_Funcs.c **** return 0;
  77:.\Dash_Funcs.c **** }
 371              		.loc 1 77 0
 372 004e 0020     		movs	r0, #0
 373 0050 10BD     		pop	{r4, pc}
 374              	.LVL17:
 375              	.L12:
 376 0052 00BF     		.align	2
ARM GAS  C:\Users\charl\AppData\Local\Temp\cc1E4r6O.s 			page 9


 377              	.L11:
 378 0054 00000000 		.word	motorSpeed
 379 0058 00000000 		.word	nodeDCVoltage
 380 005c 00005940 		.word	1079574528
 381 0060 00000000 		.word	motorTemp
 382              		.cfi_endproc
 383              	.LFE65:
 384              		.size	DriveUpdate, .-DriveUpdate
 385              		.section	.text.DiagUpdate,"ax",%progbits
 386              		.align	2
 387              		.global	DiagUpdate
 388              		.thumb
 389              		.thumb_func
 390              		.type	DiagUpdate, %function
 391              	DiagUpdate:
 392              	.LFB66:
  78:.\Dash_Funcs.c **** 
  79:.\Dash_Funcs.c **** //This function updates the display in the diagnostic state.
  80:.\Dash_Funcs.c **** int DiagUpdate(int Gear)
  81:.\Dash_Funcs.c **** {
 393              		.loc 1 81 0
 394              		.cfi_startproc
 395              		@ args = 0, pretend = 0, frame = 0
 396              		@ frame_needed = 0, uses_anonymous_args = 0
 397              	.LVL18:
 398 0000 10B5     		push	{r4, lr}
 399              		.cfi_def_cfa_offset 8
 400              		.cfi_offset 4, -8
 401              		.cfi_offset 14, -4
 402 0002 0446     		mov	r4, r0
  82:.\Dash_Funcs.c ****      //Display the selected values
  83:.\Dash_Funcs.c ****     LED_Driver_LRBWS_Write7SegNumberDec(throttleFiltered,LeftDisp,4,LED_Driver_LRBWS_RIGHT_ALIGN);
 403              		.loc 1 83 0
 404 0004 0F4B     		ldr	r3, .L15
 405 0006 1888     		ldrh	r0, [r3]
 406              	.LVL19:
 407 0008 0021     		movs	r1, #0
 408 000a 0422     		movs	r2, #4
 409 000c 0B46     		mov	r3, r1
 410 000e FFF7FEFF 		bl	LED_Driver_LRBWS_Write7SegNumberDec
 411              	.LVL20:
  84:.\Dash_Funcs.c ****     LED_Driver_LRBWS_Write7SegNumberDec(vmc30State,RightDisp,4,LED_Driver_LRBWS_RIGHT_ALIGN);
 412              		.loc 1 84 0
 413 0012 0D4B     		ldr	r3, .L15+4
 414 0014 1888     		ldrh	r0, [r3]
 415 0016 0521     		movs	r1, #5
 416 0018 0422     		movs	r2, #4
 417 001a 0023     		movs	r3, #0
 418 001c FFF7FEFF 		bl	LED_Driver_LRBWS_Write7SegNumberDec
 419              	.LVL21:
  85:.\Dash_Funcs.c ****     LED_Driver_LRBWS_SetRC(15,1);//Set DP on position 6 of display
 420              		.loc 1 85 0
 421 0020 0F20     		movs	r0, #15
 422 0022 0121     		movs	r1, #1
 423 0024 FFF7FEFF 		bl	LED_Driver_LRBWS_SetRC
 424              	.LVL22:
  86:.\Dash_Funcs.c ****     LED_Driver_LRBWS_Write7SegNumberDec(throttlePercent,BottomDisp,4,LED_Driver_LRBWS_RIGHT_ALIGN);
ARM GAS  C:\Users\charl\AppData\Local\Temp\cc1E4r6O.s 			page 10


 425              		.loc 1 86 0
 426 0028 084B     		ldr	r3, .L15+8
 427 002a 1888     		ldrh	r0, [r3]
 428 002c 0A21     		movs	r1, #10
 429 002e 0422     		movs	r2, #4
 430 0030 0023     		movs	r3, #0
 431 0032 FFF7FEFF 		bl	LED_Driver_LRBWS_Write7SegNumberDec
 432              	.LVL23:
  87:.\Dash_Funcs.c ****     LED_Driver_Gear_Write7SegDigitDec(Gear,0);
 433              		.loc 1 87 0
 434 0036 E0B2     		uxtb	r0, r4
 435 0038 0021     		movs	r1, #0
 436 003a FFF7FEFF 		bl	LED_Driver_Gear_Write7SegDigitDec
 437              	.LVL24:
  88:.\Dash_Funcs.c **** return 0;
  89:.\Dash_Funcs.c **** }
 438              		.loc 1 89 0
 439 003e 0020     		movs	r0, #0
 440 0040 10BD     		pop	{r4, pc}
 441              	.LVL25:
 442              	.L16:
 443 0042 00BF     		.align	2
 444              	.L15:
 445 0044 00000000 		.word	throttleFiltered
 446 0048 00000000 		.word	vmc30State
 447 004c 00000000 		.word	throttlePercent
 448              		.cfi_endproc
 449              	.LFE66:
 450              		.size	DiagUpdate, .-DiagUpdate
 451              		.section	.text.SwitchButtonCheck,"ax",%progbits
 452              		.align	2
 453              		.global	SwitchButtonCheck
 454              		.thumb
 455              		.thumb_func
 456              		.type	SwitchButtonCheck, %function
 457              	SwitchButtonCheck:
 458              	.LFB67:
  90:.\Dash_Funcs.c **** 
  91:.\Dash_Funcs.c **** 
  92:.\Dash_Funcs.c **** //This function performs that state switch, called when an external button is pressed
  93:.\Dash_Funcs.c **** int SwitchButtonCheck(int StillPressed)
  94:.\Dash_Funcs.c **** {
 459              		.loc 1 94 0
 460              		.cfi_startproc
 461              		@ args = 0, pretend = 0, frame = 0
 462              		@ frame_needed = 0, uses_anonymous_args = 0
 463              	.LVL26:
 464 0000 10B5     		push	{r4, lr}
 465              		.cfi_def_cfa_offset 8
 466              		.cfi_offset 4, -8
 467              		.cfi_offset 14, -4
 468 0002 0446     		mov	r4, r0
 469              	.LVL27:
  95:.\Dash_Funcs.c ****     int ButtonVal = 0;
  96:.\Dash_Funcs.c ****     ButtonVal = Page_Button_Read();
 470              		.loc 1 96 0
 471 0004 FFF7FEFF 		bl	Page_Button_Read
ARM GAS  C:\Users\charl\AppData\Local\Temp\cc1E4r6O.s 			page 11


 472              	.LVL28:
  97:.\Dash_Funcs.c **** //Switch State to the other state
  98:.\Dash_Funcs.c **** if(StillPressed == 0 && ButtonVal == 1) //Only switch state first time through the loop, prevent co
 473              		.loc 1 98 0
 474 0008 9CB9     		cbnz	r4, .L18
 475              		.loc 1 98 0 is_stmt 0 discriminator 1
 476 000a 0128     		cmp	r0, #1
 477 000c 11D1     		bne	.L18
  99:.\Dash_Funcs.c **** {
 100:.\Dash_Funcs.c ****     if(PrevState == Drive)
 478              		.loc 1 100 0 is_stmt 1
 479 000e 0C4B     		ldr	r3, .L24
 480 0010 1B78     		ldrb	r3, [r3]	@ zero_extendqisi2
 481 0012 1BB9     		cbnz	r3, .L19
 101:.\Dash_Funcs.c ****     {
 102:.\Dash_Funcs.c ****         state = Diag;
 482              		.loc 1 102 0
 483 0014 0122     		movs	r2, #1
 484 0016 0B4B     		ldr	r3, .L24+4
 485 0018 1A70     		strb	r2, [r3]
 486 001a 04E0     		b	.L20
 487              	.L19:
 103:.\Dash_Funcs.c ****     }
 104:.\Dash_Funcs.c ****     else if(PrevState == Diag)
 488              		.loc 1 104 0
 489 001c 012B     		cmp	r3, #1
 490 001e 02D1     		bne	.L20
 105:.\Dash_Funcs.c ****     {
 106:.\Dash_Funcs.c ****         state = Drive;
 491              		.loc 1 106 0
 492 0020 0022     		movs	r2, #0
 493 0022 084B     		ldr	r3, .L24+4
 494 0024 1A70     		strb	r2, [r3]
 495              	.L20:
 107:.\Dash_Funcs.c ****     }
 108:.\Dash_Funcs.c ****     PrevState = state; //Set the "prevstate" variable to the current state now that it has changed
 496              		.loc 1 108 0
 497 0026 074B     		ldr	r3, .L24+4
 498 0028 1A78     		ldrb	r2, [r3]	@ zero_extendqisi2
 499 002a 054B     		ldr	r3, .L24
 500 002c 1A70     		strb	r2, [r3]
 501              	.LVL29:
 109:.\Dash_Funcs.c ****     StillPressed = 1;
 502              		.loc 1 109 0
 503 002e 0124     		movs	r4, #1
 504 0030 03E0     		b	.L21
 505              	.LVL30:
 506              	.L18:
 110:.\Dash_Funcs.c **** }
 111:.\Dash_Funcs.c **** else if(StillPressed == 1 && ButtonVal == 0)
 507              		.loc 1 111 0
 508 0032 012C     		cmp	r4, #1
 509 0034 01D1     		bne	.L21
 510              		.loc 1 111 0 is_stmt 0 discriminator 1
 511 0036 00B9     		cbnz	r0, .L21
 112:.\Dash_Funcs.c ****     StillPressed = 0;
 512              		.loc 1 112 0 is_stmt 1
ARM GAS  C:\Users\charl\AppData\Local\Temp\cc1E4r6O.s 			page 12


 513 0038 0024     		movs	r4, #0
 514              	.LVL31:
 515              	.L21:
 113:.\Dash_Funcs.c **** return StillPressed;
 114:.\Dash_Funcs.c **** }
 516              		.loc 1 114 0
 517 003a 2046     		mov	r0, r4
 518              	.LVL32:
 519 003c 10BD     		pop	{r4, pc}
 520              	.LVL33:
 521              	.L25:
 522 003e 00BF     		.align	2
 523              	.L24:
 524 0040 00000000 		.word	PrevState
 525 0044 00000000 		.word	state
 526              		.cfi_endproc
 527              	.LFE67:
 528              		.size	SwitchButtonCheck, .-SwitchButtonCheck
 529              		.section	.text.ShiftLights,"ax",%progbits
 530              		.align	2
 531              		.global	ShiftLights
 532              		.thumb
 533              		.thumb_func
 534              		.type	ShiftLights, %function
 535              	ShiftLights:
 536              	.LFB68:
 115:.\Dash_Funcs.c **** 
 116:.\Dash_Funcs.c **** //Gear Calculation not neccesary on EV
 117:.\Dash_Funcs.c **** //int GearCalculation()
 118:.\Dash_Funcs.c **** //{
 119:.\Dash_Funcs.c **** ////Gear Calculation
 120:.\Dash_Funcs.c **** ////Convert Wheel speed to wheel RPM
 121:.\Dash_Funcs.c **** //int Gear = 0;
 122:.\Dash_Funcs.c **** ////Gear Reduction values for each gear.    
 123:.\Dash_Funcs.c **** //float Red1 = 18.6955;
 124:.\Dash_Funcs.c **** //float Red2 = 13.4048;
 125:.\Dash_Funcs.c **** //float Red3 = 10.1561;
 126:.\Dash_Funcs.c **** //float Red4 = 8.1218;
 127:.\Dash_Funcs.c **** //float Red5 = 6.4974;
 128:.\Dash_Funcs.c **** //
 129:.\Dash_Funcs.c **** //float ToleranceHighGear =  1;
 130:.\Dash_Funcs.c **** //float ToleranceLowGear = 2.25;
 131:.\Dash_Funcs.c **** // 
 132:.\Dash_Funcs.c **** //float TireD = 18;
 133:.\Dash_Funcs.c **** //float TireC = TireD*3.14159;
 134:.\Dash_Funcs.c **** //float TireMPR = TireC/(5280*12);
 135:.\Dash_Funcs.c **** //
 136:.\Dash_Funcs.c **** //float AvgRWhlSpd = motorSpeed;
 137:.\Dash_Funcs.c **** //
 138:.\Dash_Funcs.c **** //float wheelRPM = AvgRWhlSpd/(60*TireMPR);
 139:.\Dash_Funcs.c **** //float CalcRed = 0;
 140:.\Dash_Funcs.c **** //
 141:.\Dash_Funcs.c **** //CalcRed = rpm/wheelRPM;
 142:.\Dash_Funcs.c **** //
 143:.\Dash_Funcs.c **** ////Calculate the Gear
 144:.\Dash_Funcs.c **** //if(Red1-ToleranceLowGear < CalcRed && Red1+ToleranceLowGear > CalcRed)
 145:.\Dash_Funcs.c **** //    Gear = 1;
ARM GAS  C:\Users\charl\AppData\Local\Temp\cc1E4r6O.s 			page 13


 146:.\Dash_Funcs.c **** //else if(Red2-ToleranceLowGear < CalcRed && Red2+ToleranceLowGear > CalcRed)
 147:.\Dash_Funcs.c **** //    Gear = 2;
 148:.\Dash_Funcs.c **** //else if(Red3-ToleranceHighGear < CalcRed && Red3+ToleranceHighGear > CalcRed)
 149:.\Dash_Funcs.c **** //    Gear = 3;
 150:.\Dash_Funcs.c **** //else if(Red4-ToleranceHighGear < CalcRed && Red4+ToleranceHighGear > CalcRed)
 151:.\Dash_Funcs.c **** //    Gear = 4;
 152:.\Dash_Funcs.c **** //else if(Red5-ToleranceHighGear < CalcRed && Red5+ToleranceHighGear > CalcRed)
 153:.\Dash_Funcs.c **** //    Gear = 5;
 154:.\Dash_Funcs.c **** //else
 155:.\Dash_Funcs.c **** //    Gear = 0;
 156:.\Dash_Funcs.c **** //    
 157:.\Dash_Funcs.c **** //return Gear;
 158:.\Dash_Funcs.c **** //}
 159:.\Dash_Funcs.c **** 
 160:.\Dash_Funcs.c **** int ShiftLights() //Need to decide what to display here
 161:.\Dash_Funcs.c **** {
 537              		.loc 1 161 0
 538              		.cfi_startproc
 539              		@ args = 0, pretend = 0, frame = 0
 540              		@ frame_needed = 0, uses_anonymous_args = 0
 541 0000 10B5     		push	{r4, lr}
 542              		.cfi_def_cfa_offset 8
 543              		.cfi_offset 4, -8
 544              		.cfi_offset 14, -4
 545              	.LVL34:
 162:.\Dash_Funcs.c ****     int Column = 4;
 163:.\Dash_Funcs.c ****     int i = 0;
 164:.\Dash_Funcs.c ****     int Light1 = 8;
 165:.\Dash_Funcs.c ****     int Light2 = 10;
 166:.\Dash_Funcs.c ****     int Light3 = 12;
 167:.\Dash_Funcs.c ****     int Light4 = 15;
 168:.\Dash_Funcs.c ****     int Light5 = 17;
 169:.\Dash_Funcs.c ****     
 170:.\Dash_Funcs.c ****     if(motorSpeed>= Shift1 && motorSpeed < Shift2)
 546              		.loc 1 170 0
 547 0002 A34B     		ldr	r3, .L42
 548 0004 1988     		ldrh	r1, [r3]
 549 0006 8AB2     		uxth	r2, r1
 550 0008 A2F5DA53 		sub	r3, r2, #6976
 551 000c 183B     		subs	r3, r3, #24
 552 000e 9BB2     		uxth	r3, r3
 553 0010 B3F5FA7F 		cmp	r3, #500
 554 0014 2BD2     		bcs	.L27
 171:.\Dash_Funcs.c ****     {
 172:.\Dash_Funcs.c ****         LED_Driver_LRBWS_SetRC(8,Column);
 555              		.loc 1 172 0
 556 0016 0820     		movs	r0, #8
 557 0018 0421     		movs	r1, #4
 558 001a FFF7FEFF 		bl	LED_Driver_LRBWS_SetRC
 559              	.LVL35:
 173:.\Dash_Funcs.c ****         LED_Driver_LRBWS_SetRC(9,Column);
 560              		.loc 1 173 0
 561 001e 0920     		movs	r0, #9
 562 0020 0421     		movs	r1, #4
 563 0022 FFF7FEFF 		bl	LED_Driver_LRBWS_SetRC
 564              	.LVL36:
 174:.\Dash_Funcs.c ****         
ARM GAS  C:\Users\charl\AppData\Local\Temp\cc1E4r6O.s 			page 14


 175:.\Dash_Funcs.c ****         LED_Driver_LRBWS_ClearRC(10,Column);
 565              		.loc 1 175 0
 566 0026 0A20     		movs	r0, #10
 567 0028 0421     		movs	r1, #4
 568 002a FFF7FEFF 		bl	LED_Driver_LRBWS_ClearRC
 569              	.LVL37:
 176:.\Dash_Funcs.c ****         LED_Driver_LRBWS_ClearRC(11,Column);
 570              		.loc 1 176 0
 571 002e 0B20     		movs	r0, #11
 572 0030 0421     		movs	r1, #4
 573 0032 FFF7FEFF 		bl	LED_Driver_LRBWS_ClearRC
 574              	.LVL38:
 177:.\Dash_Funcs.c ****         LED_Driver_LRBWS_ClearRC(12,Column);
 575              		.loc 1 177 0
 576 0036 0C20     		movs	r0, #12
 577 0038 0421     		movs	r1, #4
 578 003a FFF7FEFF 		bl	LED_Driver_LRBWS_ClearRC
 579              	.LVL39:
 178:.\Dash_Funcs.c ****         LED_Driver_LRBWS_ClearRC(13,Column);
 580              		.loc 1 178 0
 581 003e 0D20     		movs	r0, #13
 582 0040 0421     		movs	r1, #4
 583 0042 FFF7FEFF 		bl	LED_Driver_LRBWS_ClearRC
 584              	.LVL40:
 179:.\Dash_Funcs.c ****         LED_Driver_LRBWS_ClearRC(14,Column);
 585              		.loc 1 179 0
 586 0046 0E20     		movs	r0, #14
 587 0048 0421     		movs	r1, #4
 588 004a FFF7FEFF 		bl	LED_Driver_LRBWS_ClearRC
 589              	.LVL41:
 180:.\Dash_Funcs.c ****         LED_Driver_LRBWS_ClearRC(15,Column);
 590              		.loc 1 180 0
 591 004e 0F20     		movs	r0, #15
 592 0050 0421     		movs	r1, #4
 593 0052 FFF7FEFF 		bl	LED_Driver_LRBWS_ClearRC
 594              	.LVL42:
 181:.\Dash_Funcs.c ****         LED_Driver_LRBWS_ClearRC(16,Column);
 595              		.loc 1 181 0
 596 0056 1020     		movs	r0, #16
 597 0058 0421     		movs	r1, #4
 598 005a FFF7FEFF 		bl	LED_Driver_LRBWS_ClearRC
 599              	.LVL43:
 182:.\Dash_Funcs.c ****         LED_Driver_LRBWS_ClearRC(17,Column);
 600              		.loc 1 182 0
 601 005e 1120     		movs	r0, #17
 602 0060 0421     		movs	r1, #4
 603 0062 FFF7FEFF 		bl	LED_Driver_LRBWS_ClearRC
 604              	.LVL44:
 183:.\Dash_Funcs.c ****         
 184:.\Dash_Funcs.c ****         OffsetFlash = 0;
 605              		.loc 1 184 0
 606 0066 0022     		movs	r2, #0
 607 0068 8A4B     		ldr	r3, .L42+4
 608 006a 1A60     		str	r2, [r3]
 609 006c 02E1     		b	.L28
 610              	.L27:
 185:.\Dash_Funcs.c ****     }
ARM GAS  C:\Users\charl\AppData\Local\Temp\cc1E4r6O.s 			page 15


 186:.\Dash_Funcs.c ****     else if(motorSpeed>= Shift2 && motorSpeed < Shift3)
 611              		.loc 1 186 0
 612 006e A2F5EA53 		sub	r3, r2, #7488
 613 0072 0C3B     		subs	r3, r3, #12
 614 0074 9BB2     		uxth	r3, r3
 615 0076 B3F5FA7F 		cmp	r3, #500
 616 007a 2BD2     		bcs	.L29
 187:.\Dash_Funcs.c ****     {
 188:.\Dash_Funcs.c ****         LED_Driver_LRBWS_SetRC(8,Column);
 617              		.loc 1 188 0
 618 007c 0820     		movs	r0, #8
 619 007e 0421     		movs	r1, #4
 620 0080 FFF7FEFF 		bl	LED_Driver_LRBWS_SetRC
 621              	.LVL45:
 189:.\Dash_Funcs.c ****         LED_Driver_LRBWS_SetRC(9,Column);
 622              		.loc 1 189 0
 623 0084 0920     		movs	r0, #9
 624 0086 0421     		movs	r1, #4
 625 0088 FFF7FEFF 		bl	LED_Driver_LRBWS_SetRC
 626              	.LVL46:
 190:.\Dash_Funcs.c ****         LED_Driver_LRBWS_SetRC(10,Column);
 627              		.loc 1 190 0
 628 008c 0A20     		movs	r0, #10
 629 008e 0421     		movs	r1, #4
 630 0090 FFF7FEFF 		bl	LED_Driver_LRBWS_SetRC
 631              	.LVL47:
 191:.\Dash_Funcs.c ****         LED_Driver_LRBWS_SetRC(11,Column);
 632              		.loc 1 191 0
 633 0094 0B20     		movs	r0, #11
 634 0096 0421     		movs	r1, #4
 635 0098 FFF7FEFF 		bl	LED_Driver_LRBWS_SetRC
 636              	.LVL48:
 192:.\Dash_Funcs.c ****         
 193:.\Dash_Funcs.c ****         LED_Driver_LRBWS_ClearRC(12,Column);
 637              		.loc 1 193 0
 638 009c 0C20     		movs	r0, #12
 639 009e 0421     		movs	r1, #4
 640 00a0 FFF7FEFF 		bl	LED_Driver_LRBWS_ClearRC
 641              	.LVL49:
 194:.\Dash_Funcs.c ****         LED_Driver_LRBWS_ClearRC(13,Column);
 642              		.loc 1 194 0
 643 00a4 0D20     		movs	r0, #13
 644 00a6 0421     		movs	r1, #4
 645 00a8 FFF7FEFF 		bl	LED_Driver_LRBWS_ClearRC
 646              	.LVL50:
 195:.\Dash_Funcs.c ****         LED_Driver_LRBWS_ClearRC(14,Column);
 647              		.loc 1 195 0
 648 00ac 0E20     		movs	r0, #14
 649 00ae 0421     		movs	r1, #4
 650 00b0 FFF7FEFF 		bl	LED_Driver_LRBWS_ClearRC
 651              	.LVL51:
 196:.\Dash_Funcs.c ****         LED_Driver_LRBWS_ClearRC(15,Column);
 652              		.loc 1 196 0
 653 00b4 0F20     		movs	r0, #15
 654 00b6 0421     		movs	r1, #4
 655 00b8 FFF7FEFF 		bl	LED_Driver_LRBWS_ClearRC
 656              	.LVL52:
ARM GAS  C:\Users\charl\AppData\Local\Temp\cc1E4r6O.s 			page 16


 197:.\Dash_Funcs.c ****         LED_Driver_LRBWS_ClearRC(16,Column);
 657              		.loc 1 197 0
 658 00bc 1020     		movs	r0, #16
 659 00be 0421     		movs	r1, #4
 660 00c0 FFF7FEFF 		bl	LED_Driver_LRBWS_ClearRC
 661              	.LVL53:
 198:.\Dash_Funcs.c ****         LED_Driver_LRBWS_ClearRC(17,Column);
 662              		.loc 1 198 0
 663 00c4 1120     		movs	r0, #17
 664 00c6 0421     		movs	r1, #4
 665 00c8 FFF7FEFF 		bl	LED_Driver_LRBWS_ClearRC
 666              	.LVL54:
 199:.\Dash_Funcs.c ****         
 200:.\Dash_Funcs.c ****         OffsetFlash = 0;
 667              		.loc 1 200 0
 668 00cc 0022     		movs	r2, #0
 669 00ce 714B     		ldr	r3, .L42+4
 670 00d0 1A60     		str	r2, [r3]
 671 00d2 CFE0     		b	.L28
 672              	.L29:
 201:.\Dash_Funcs.c ****     }
 202:.\Dash_Funcs.c ****     else if(motorSpeed>= Shift3 && motorSpeed < Shift4)
 673              		.loc 1 202 0
 674 00d4 A2F5FA53 		sub	r3, r2, #8000
 675 00d8 9BB2     		uxth	r3, r3
 676 00da B3F5FA7F 		cmp	r3, #500
 677 00de 2BD2     		bcs	.L30
 203:.\Dash_Funcs.c ****     {
 204:.\Dash_Funcs.c ****         LED_Driver_LRBWS_SetRC(8,Column);
 678              		.loc 1 204 0
 679 00e0 0820     		movs	r0, #8
 680 00e2 0421     		movs	r1, #4
 681 00e4 FFF7FEFF 		bl	LED_Driver_LRBWS_SetRC
 682              	.LVL55:
 205:.\Dash_Funcs.c ****         LED_Driver_LRBWS_SetRC(9,Column);
 683              		.loc 1 205 0
 684 00e8 0920     		movs	r0, #9
 685 00ea 0421     		movs	r1, #4
 686 00ec FFF7FEFF 		bl	LED_Driver_LRBWS_SetRC
 687              	.LVL56:
 206:.\Dash_Funcs.c ****         LED_Driver_LRBWS_SetRC(10,Column);
 688              		.loc 1 206 0
 689 00f0 0A20     		movs	r0, #10
 690 00f2 0421     		movs	r1, #4
 691 00f4 FFF7FEFF 		bl	LED_Driver_LRBWS_SetRC
 692              	.LVL57:
 207:.\Dash_Funcs.c ****         LED_Driver_LRBWS_SetRC(11,Column);
 693              		.loc 1 207 0
 694 00f8 0B20     		movs	r0, #11
 695 00fa 0421     		movs	r1, #4
 696 00fc FFF7FEFF 		bl	LED_Driver_LRBWS_SetRC
 697              	.LVL58:
 208:.\Dash_Funcs.c ****         LED_Driver_LRBWS_SetRC(12,Column);
 698              		.loc 1 208 0
 699 0100 0C20     		movs	r0, #12
 700 0102 0421     		movs	r1, #4
 701 0104 FFF7FEFF 		bl	LED_Driver_LRBWS_SetRC
ARM GAS  C:\Users\charl\AppData\Local\Temp\cc1E4r6O.s 			page 17


 702              	.LVL59:
 209:.\Dash_Funcs.c ****         LED_Driver_LRBWS_SetRC(13,Column);
 703              		.loc 1 209 0
 704 0108 0D20     		movs	r0, #13
 705 010a 0421     		movs	r1, #4
 706 010c FFF7FEFF 		bl	LED_Driver_LRBWS_SetRC
 707              	.LVL60:
 210:.\Dash_Funcs.c ****         
 211:.\Dash_Funcs.c ****         LED_Driver_LRBWS_ClearRC(14,Column);
 708              		.loc 1 211 0
 709 0110 0E20     		movs	r0, #14
 710 0112 0421     		movs	r1, #4
 711 0114 FFF7FEFF 		bl	LED_Driver_LRBWS_ClearRC
 712              	.LVL61:
 212:.\Dash_Funcs.c ****         LED_Driver_LRBWS_ClearRC(15,Column);
 713              		.loc 1 212 0
 714 0118 0F20     		movs	r0, #15
 715 011a 0421     		movs	r1, #4
 716 011c FFF7FEFF 		bl	LED_Driver_LRBWS_ClearRC
 717              	.LVL62:
 213:.\Dash_Funcs.c ****         LED_Driver_LRBWS_ClearRC(16,Column);
 718              		.loc 1 213 0
 719 0120 1020     		movs	r0, #16
 720 0122 0421     		movs	r1, #4
 721 0124 FFF7FEFF 		bl	LED_Driver_LRBWS_ClearRC
 722              	.LVL63:
 214:.\Dash_Funcs.c ****         LED_Driver_LRBWS_ClearRC(17,Column);
 723              		.loc 1 214 0
 724 0128 1120     		movs	r0, #17
 725 012a 0421     		movs	r1, #4
 726 012c FFF7FEFF 		bl	LED_Driver_LRBWS_ClearRC
 727              	.LVL64:
 215:.\Dash_Funcs.c ****         
 216:.\Dash_Funcs.c ****         OffsetFlash = 0;
 728              		.loc 1 216 0
 729 0130 0022     		movs	r2, #0
 730 0132 584B     		ldr	r3, .L42+4
 731 0134 1A60     		str	r2, [r3]
 732 0136 9DE0     		b	.L28
 733              	.L30:
 217:.\Dash_Funcs.c ****     }
 218:.\Dash_Funcs.c ****     else if(motorSpeed>= Shift4 && motorSpeed < Shift5)
 734              		.loc 1 218 0
 735 0138 A2F50453 		sub	r3, r2, #8448
 736 013c 343B     		subs	r3, r3, #52
 737 013e 9BB2     		uxth	r3, r3
 738 0140 B3F5FA7F 		cmp	r3, #500
 739 0144 2BD2     		bcs	.L31
 219:.\Dash_Funcs.c ****     {
 220:.\Dash_Funcs.c ****         LED_Driver_LRBWS_SetRC(8,Column);
 740              		.loc 1 220 0
 741 0146 0820     		movs	r0, #8
 742 0148 0421     		movs	r1, #4
 743 014a FFF7FEFF 		bl	LED_Driver_LRBWS_SetRC
 744              	.LVL65:
 221:.\Dash_Funcs.c ****         LED_Driver_LRBWS_SetRC(9,Column);
 745              		.loc 1 221 0
ARM GAS  C:\Users\charl\AppData\Local\Temp\cc1E4r6O.s 			page 18


 746 014e 0920     		movs	r0, #9
 747 0150 0421     		movs	r1, #4
 748 0152 FFF7FEFF 		bl	LED_Driver_LRBWS_SetRC
 749              	.LVL66:
 222:.\Dash_Funcs.c ****         LED_Driver_LRBWS_SetRC(10,Column);
 750              		.loc 1 222 0
 751 0156 0A20     		movs	r0, #10
 752 0158 0421     		movs	r1, #4
 753 015a FFF7FEFF 		bl	LED_Driver_LRBWS_SetRC
 754              	.LVL67:
 223:.\Dash_Funcs.c ****         LED_Driver_LRBWS_SetRC(11,Column);
 755              		.loc 1 223 0
 756 015e 0B20     		movs	r0, #11
 757 0160 0421     		movs	r1, #4
 758 0162 FFF7FEFF 		bl	LED_Driver_LRBWS_SetRC
 759              	.LVL68:
 224:.\Dash_Funcs.c ****         LED_Driver_LRBWS_SetRC(12,Column);
 760              		.loc 1 224 0
 761 0166 0C20     		movs	r0, #12
 762 0168 0421     		movs	r1, #4
 763 016a FFF7FEFF 		bl	LED_Driver_LRBWS_SetRC
 764              	.LVL69:
 225:.\Dash_Funcs.c ****         LED_Driver_LRBWS_SetRC(13,Column);
 765              		.loc 1 225 0
 766 016e 0D20     		movs	r0, #13
 767 0170 0421     		movs	r1, #4
 768 0172 FFF7FEFF 		bl	LED_Driver_LRBWS_SetRC
 769              	.LVL70:
 226:.\Dash_Funcs.c ****         LED_Driver_LRBWS_SetRC(14,Column);
 770              		.loc 1 226 0
 771 0176 0E20     		movs	r0, #14
 772 0178 0421     		movs	r1, #4
 773 017a FFF7FEFF 		bl	LED_Driver_LRBWS_SetRC
 774              	.LVL71:
 227:.\Dash_Funcs.c ****         LED_Driver_LRBWS_SetRC(15,Column);
 775              		.loc 1 227 0
 776 017e 0F20     		movs	r0, #15
 777 0180 0421     		movs	r1, #4
 778 0182 FFF7FEFF 		bl	LED_Driver_LRBWS_SetRC
 779              	.LVL72:
 228:.\Dash_Funcs.c ****         
 229:.\Dash_Funcs.c ****         LED_Driver_LRBWS_ClearRC(16,Column);
 780              		.loc 1 229 0
 781 0186 1020     		movs	r0, #16
 782 0188 0421     		movs	r1, #4
 783 018a FFF7FEFF 		bl	LED_Driver_LRBWS_ClearRC
 784              	.LVL73:
 230:.\Dash_Funcs.c ****         LED_Driver_LRBWS_ClearRC(17,Column);  
 785              		.loc 1 230 0
 786 018e 1120     		movs	r0, #17
 787 0190 0421     		movs	r1, #4
 788 0192 FFF7FEFF 		bl	LED_Driver_LRBWS_ClearRC
 789              	.LVL74:
 231:.\Dash_Funcs.c ****         
 232:.\Dash_Funcs.c ****         OffsetFlash = 0;
 790              		.loc 1 232 0
 791 0196 0022     		movs	r2, #0
ARM GAS  C:\Users\charl\AppData\Local\Temp\cc1E4r6O.s 			page 19


 792 0198 3E4B     		ldr	r3, .L42+4
 793 019a 1A60     		str	r2, [r3]
 794 019c 6AE0     		b	.L28
 795              	.L31:
 233:.\Dash_Funcs.c ****     }
 234:.\Dash_Funcs.c ****     else if(motorSpeed >= Shift5 && motorSpeed < Shift5+Overrev)
 796              		.loc 1 234 0
 797 019e A2F50C52 		sub	r2, r2, #8960
 798 01a2 283A     		subs	r2, r2, #40
 799 01a4 92B2     		uxth	r2, r2
 800 01a6 B2F5FA7F 		cmp	r2, #500
 801 01aa 2BD2     		bcs	.L32
 235:.\Dash_Funcs.c ****     {
 236:.\Dash_Funcs.c ****         LED_Driver_LRBWS_SetRC(8,Column);
 802              		.loc 1 236 0
 803 01ac 0820     		movs	r0, #8
 804 01ae 0421     		movs	r1, #4
 805 01b0 FFF7FEFF 		bl	LED_Driver_LRBWS_SetRC
 806              	.LVL75:
 237:.\Dash_Funcs.c ****         LED_Driver_LRBWS_SetRC(9,Column);
 807              		.loc 1 237 0
 808 01b4 0920     		movs	r0, #9
 809 01b6 0421     		movs	r1, #4
 810 01b8 FFF7FEFF 		bl	LED_Driver_LRBWS_SetRC
 811              	.LVL76:
 238:.\Dash_Funcs.c ****         LED_Driver_LRBWS_SetRC(10,Column);
 812              		.loc 1 238 0
 813 01bc 0A20     		movs	r0, #10
 814 01be 0421     		movs	r1, #4
 815 01c0 FFF7FEFF 		bl	LED_Driver_LRBWS_SetRC
 816              	.LVL77:
 239:.\Dash_Funcs.c ****         LED_Driver_LRBWS_SetRC(11,Column);
 817              		.loc 1 239 0
 818 01c4 0B20     		movs	r0, #11
 819 01c6 0421     		movs	r1, #4
 820 01c8 FFF7FEFF 		bl	LED_Driver_LRBWS_SetRC
 821              	.LVL78:
 240:.\Dash_Funcs.c ****         LED_Driver_LRBWS_SetRC(12,Column);
 822              		.loc 1 240 0
 823 01cc 0C20     		movs	r0, #12
 824 01ce 0421     		movs	r1, #4
 825 01d0 FFF7FEFF 		bl	LED_Driver_LRBWS_SetRC
 826              	.LVL79:
 241:.\Dash_Funcs.c ****         LED_Driver_LRBWS_SetRC(13,Column);
 827              		.loc 1 241 0
 828 01d4 0D20     		movs	r0, #13
 829 01d6 0421     		movs	r1, #4
 830 01d8 FFF7FEFF 		bl	LED_Driver_LRBWS_SetRC
 831              	.LVL80:
 242:.\Dash_Funcs.c ****         LED_Driver_LRBWS_SetRC(14,Column);
 832              		.loc 1 242 0
 833 01dc 0E20     		movs	r0, #14
 834 01de 0421     		movs	r1, #4
 835 01e0 FFF7FEFF 		bl	LED_Driver_LRBWS_SetRC
 836              	.LVL81:
 243:.\Dash_Funcs.c ****         LED_Driver_LRBWS_SetRC(15,Column);
 837              		.loc 1 243 0
ARM GAS  C:\Users\charl\AppData\Local\Temp\cc1E4r6O.s 			page 20


 838 01e4 0F20     		movs	r0, #15
 839 01e6 0421     		movs	r1, #4
 840 01e8 FFF7FEFF 		bl	LED_Driver_LRBWS_SetRC
 841              	.LVL82:
 244:.\Dash_Funcs.c ****         LED_Driver_LRBWS_SetRC(16,Column);
 842              		.loc 1 244 0
 843 01ec 1020     		movs	r0, #16
 844 01ee 0421     		movs	r1, #4
 845 01f0 FFF7FEFF 		bl	LED_Driver_LRBWS_SetRC
 846              	.LVL83:
 245:.\Dash_Funcs.c ****         LED_Driver_LRBWS_SetRC(17,Column);
 847              		.loc 1 245 0
 848 01f4 1120     		movs	r0, #17
 849 01f6 0421     		movs	r1, #4
 850 01f8 FFF7FEFF 		bl	LED_Driver_LRBWS_SetRC
 851              	.LVL84:
 246:.\Dash_Funcs.c ****         
 247:.\Dash_Funcs.c ****         OffsetFlash = 0;
 852              		.loc 1 247 0
 853 01fc 0022     		movs	r2, #0
 854 01fe 254B     		ldr	r3, .L42+4
 855 0200 1A60     		str	r2, [r3]
 856 0202 37E0     		b	.L28
 857              	.L32:
 248:.\Dash_Funcs.c ****     }
 249:.\Dash_Funcs.c ****     else if(motorSpeed >= Shift5+Overrev && FlashCounter > FlashFreq)
 858              		.loc 1 249 0
 859 0204 0AB2     		sxth	r2, r1
 860 0206 42F21B53 		movw	r3, #9499
 861 020a 9A42     		cmp	r2, r3
 862 020c 20DD     		ble	.L33
 863              		.loc 1 249 0 is_stmt 0 discriminator 1
 864 020e 224B     		ldr	r3, .L42+8
 865 0210 1A68     		ldr	r2, [r3]
 866 0212 224B     		ldr	r3, .L42+12
 867 0214 1B68     		ldr	r3, [r3]
 868 0216 9A42     		cmp	r2, r3
 869 0218 1ADD     		ble	.L33
 250:.\Dash_Funcs.c ****     {
 251:.\Dash_Funcs.c ****         if(OffsetFlash == 0)
 870              		.loc 1 251 0 is_stmt 1
 871 021a 1E4B     		ldr	r3, .L42+4
 872 021c 1B68     		ldr	r3, [r3]
 873 021e 53B9     		cbnz	r3, .L34
 252:.\Dash_Funcs.c ****         {
 253:.\Dash_Funcs.c ****         LED_Driver_LRBWS_ToggleRC(16,Column);
 874              		.loc 1 253 0
 875 0220 1020     		movs	r0, #16
 876 0222 0421     		movs	r1, #4
 877 0224 FFF7FEFF 		bl	LED_Driver_LRBWS_ToggleRC
 878              	.LVL85:
 254:.\Dash_Funcs.c ****         LED_Driver_LRBWS_ToggleRC(17,Column);
 879              		.loc 1 254 0
 880 0228 1120     		movs	r0, #17
 881 022a 0421     		movs	r1, #4
 882 022c FFF7FEFF 		bl	LED_Driver_LRBWS_ToggleRC
 883              	.LVL86:
ARM GAS  C:\Users\charl\AppData\Local\Temp\cc1E4r6O.s 			page 21


 255:.\Dash_Funcs.c ****         OffsetFlash = 1;
 884              		.loc 1 255 0
 885 0230 0122     		movs	r2, #1
 886 0232 184B     		ldr	r3, .L42+4
 887 0234 1A60     		str	r2, [r3]
 888              	.L34:
 161:.\Dash_Funcs.c ****     int Column = 4;
 889              		.loc 1 161 0 discriminator 1
 890 0236 0824     		movs	r4, #8
 891 0238 04E0     		b	.L35
 892              	.LVL87:
 893              	.L36:
 256:.\Dash_Funcs.c ****         }
 257:.\Dash_Funcs.c ****                 
 258:.\Dash_Funcs.c ****         //Flash all Lights
 259:.\Dash_Funcs.c ****         for(i = Light1; i<=Light5; i++)
 260:.\Dash_Funcs.c ****         {
 261:.\Dash_Funcs.c ****         LED_Driver_LRBWS_ToggleRC(i,Column);
 894              		.loc 1 261 0 discriminator 3
 895 023a E0B2     		uxtb	r0, r4
 896 023c 0421     		movs	r1, #4
 897 023e FFF7FEFF 		bl	LED_Driver_LRBWS_ToggleRC
 898              	.LVL88:
 259:.\Dash_Funcs.c ****         {
 899              		.loc 1 259 0 discriminator 3
 900 0242 0134     		adds	r4, r4, #1
 901              	.LVL89:
 902              	.L35:
 259:.\Dash_Funcs.c ****         {
 903              		.loc 1 259 0 is_stmt 0 discriminator 1
 904 0244 112C     		cmp	r4, #17
 905 0246 F8DD     		ble	.L36
 262:.\Dash_Funcs.c ****         }
 263:.\Dash_Funcs.c ****         FlashCounter = 0;
 906              		.loc 1 263 0 is_stmt 1
 907 0248 0022     		movs	r2, #0
 908 024a 134B     		ldr	r3, .L42+8
 909 024c 1A60     		str	r2, [r3]
 910 024e 11E0     		b	.L28
 911              	.LVL90:
 912              	.L33:
 264:.\Dash_Funcs.c ****     }
 265:.\Dash_Funcs.c ****     else if(motorSpeed < Shift1)
 913              		.loc 1 265 0
 914 0250 09B2     		sxth	r1, r1
 915 0252 41F65733 		movw	r3, #6999
 916 0256 9942     		cmp	r1, r3
 917 0258 06DD     		ble	.L40
 918 025a 0BE0     		b	.L28
 919              	.LVL91:
 920              	.L38:
 266:.\Dash_Funcs.c ****     {
 267:.\Dash_Funcs.c ****     //Turn off all lights
 268:.\Dash_Funcs.c ****         for(i = Light1; i<=Light5; i++)
 269:.\Dash_Funcs.c ****         {
 270:.\Dash_Funcs.c ****         LED_Driver_LRBWS_ClearRC(i,Column);
 921              		.loc 1 270 0 discriminator 3
ARM GAS  C:\Users\charl\AppData\Local\Temp\cc1E4r6O.s 			page 22


 922 025c E0B2     		uxtb	r0, r4
 923 025e 0421     		movs	r1, #4
 924 0260 FFF7FEFF 		bl	LED_Driver_LRBWS_ClearRC
 925              	.LVL92:
 268:.\Dash_Funcs.c ****         {
 926              		.loc 1 268 0 discriminator 3
 927 0264 0134     		adds	r4, r4, #1
 928              	.LVL93:
 929 0266 00E0     		b	.L37
 930              	.LVL94:
 931              	.L40:
 932 0268 0824     		movs	r4, #8
 933              	.LVL95:
 934              	.L37:
 268:.\Dash_Funcs.c ****         {
 935              		.loc 1 268 0 is_stmt 0 discriminator 1
 936 026a 112C     		cmp	r4, #17
 937 026c F6DD     		ble	.L38
 271:.\Dash_Funcs.c ****         }
 272:.\Dash_Funcs.c ****         OffsetFlash = 0;
 938              		.loc 1 272 0 is_stmt 1
 939 026e 0022     		movs	r2, #0
 940 0270 084B     		ldr	r3, .L42+4
 941 0272 1A60     		str	r2, [r3]
 942              	.LVL96:
 943              	.L28:
 273:.\Dash_Funcs.c ****     }
 274:.\Dash_Funcs.c ****     FlashCounter++;
 944              		.loc 1 274 0
 945 0274 084A     		ldr	r2, .L42+8
 946 0276 1368     		ldr	r3, [r2]
 947 0278 0133     		adds	r3, r3, #1
 948 027a 1360     		str	r3, [r2]
 275:.\Dash_Funcs.c ****     if(FlashCounter > 10000)
 949              		.loc 1 275 0
 950 027c 42F21072 		movw	r2, #10000
 951 0280 9342     		cmp	r3, r2
 952 0282 02DD     		ble	.L39
 276:.\Dash_Funcs.c ****         FlashCounter = 0;
 953              		.loc 1 276 0
 954 0284 0022     		movs	r2, #0
 955 0286 044B     		ldr	r3, .L42+8
 956 0288 1A60     		str	r2, [r3]
 957              	.L39:
 277:.\Dash_Funcs.c **** return 0;
 278:.\Dash_Funcs.c **** }
 958              		.loc 1 278 0
 959 028a 0020     		movs	r0, #0
 960 028c 10BD     		pop	{r4, pc}
 961              	.L43:
 962 028e 00BF     		.align	2
 963              	.L42:
 964 0290 00000000 		.word	motorSpeed
 965 0294 00000000 		.word	OffsetFlash
 966 0298 00000000 		.word	FlashCounter
 967 029c 00000000 		.word	FlashFreq
 968              		.cfi_endproc
ARM GAS  C:\Users\charl\AppData\Local\Temp\cc1E4r6O.s 			page 23


 969              	.LFE68:
 970              		.size	ShiftLights, .-ShiftLights
 971              		.global	__aeabi_dcmplt
 972              		.section	.text.WarningLights,"ax",%progbits
 973              		.align	2
 974              		.global	WarningLights
 975              		.thumb
 976              		.thumb_func
 977              		.type	WarningLights, %function
 978              	WarningLights:
 979              	.LFB69:
 279:.\Dash_Funcs.c **** 
 280:.\Dash_Funcs.c **** //Motortemp, voltage, battery temp?, 
 281:.\Dash_Funcs.c **** int WarningLights()
 282:.\Dash_Funcs.c **** {
 980              		.loc 1 282 0
 981              		.cfi_startproc
 982              		@ args = 0, pretend = 0, frame = 0
 983              		@ frame_needed = 0, uses_anonymous_args = 0
 984 0000 38B5     		push	{r3, r4, r5, lr}
 985              		.cfi_def_cfa_offset 16
 986              		.cfi_offset 3, -16
 987              		.cfi_offset 4, -12
 988              		.cfi_offset 5, -8
 989              		.cfi_offset 14, -4
 283:.\Dash_Funcs.c ****     //Values to be checked for warning 
 284:.\Dash_Funcs.c ****     int Left1 = motorTemp;
 990              		.loc 1 284 0
 991 0002 194B     		ldr	r3, .L53
 992 0004 1B88     		ldrh	r3, [r3]
 993              	.LVL97:
 285:.\Dash_Funcs.c ****     int Left2 = 1;
 286:.\Dash_Funcs.c ****     int Left3 = 1;
 287:.\Dash_Funcs.c ****     double Right1 = nodeDCVoltage;
 994              		.loc 1 287 0
 995 0006 194A     		ldr	r2, .L53+4
 996 0008 D2E90045 		ldrd	r4, [r2]
 997              	.LVL98:
 288:.\Dash_Funcs.c ****     int Right2 = 0;
 289:.\Dash_Funcs.c ****     int Right3 = 1;
 290:.\Dash_Funcs.c ****     //Warning Thresholds
 291:.\Dash_Funcs.c ****     int Left1Thresh = 215; //>
 292:.\Dash_Funcs.c ****     int Left2Thresh = 1600;//>
 293:.\Dash_Funcs.c ****     int Left3Thresh = 250;//>
 294:.\Dash_Funcs.c ****     double Right1Thresh = 12.00;//<
 295:.\Dash_Funcs.c ****     int Right2Thresh = 0;
 296:.\Dash_Funcs.c ****     int Right3Thresh = 40;//<
 297:.\Dash_Funcs.c ****         
 298:.\Dash_Funcs.c ****     //Left1
 299:.\Dash_Funcs.c ****         if(Left1 > Left1Thresh)
 998              		.loc 1 299 0
 999 000c D72B     		cmp	r3, #215
 1000 000e 04DD     		ble	.L45
 300:.\Dash_Funcs.c ****         {
 301:.\Dash_Funcs.c ****         LED_Driver_LRBWS_SetRC(0,4);
 1001              		.loc 1 301 0
 1002 0010 0020     		movs	r0, #0
ARM GAS  C:\Users\charl\AppData\Local\Temp\cc1E4r6O.s 			page 24


 1003 0012 0421     		movs	r1, #4
 1004 0014 FFF7FEFF 		bl	LED_Driver_LRBWS_SetRC
 1005              	.LVL99:
 1006 0018 03E0     		b	.L46
 1007              	.LVL100:
 1008              	.L45:
 302:.\Dash_Funcs.c ****         }
 303:.\Dash_Funcs.c ****         else
 304:.\Dash_Funcs.c ****         {
 305:.\Dash_Funcs.c ****         LED_Driver_LRBWS_ClearRC(0,4);
 1009              		.loc 1 305 0
 1010 001a 0020     		movs	r0, #0
 1011 001c 0421     		movs	r1, #4
 1012 001e FFF7FEFF 		bl	LED_Driver_LRBWS_ClearRC
 1013              	.LVL101:
 1014              	.L46:
 306:.\Dash_Funcs.c ****         }
 307:.\Dash_Funcs.c ****     //Left2
 308:.\Dash_Funcs.c ****         if(Left2 > Left2Thresh)
 309:.\Dash_Funcs.c ****         {
 310:.\Dash_Funcs.c ****         LED_Driver_LRBWS_SetRC(1,4);
 311:.\Dash_Funcs.c ****         }
 312:.\Dash_Funcs.c ****         else
 313:.\Dash_Funcs.c ****         {
 314:.\Dash_Funcs.c ****         LED_Driver_LRBWS_ClearRC(1,4);
 1015              		.loc 1 314 0
 1016 0022 0120     		movs	r0, #1
 1017 0024 0421     		movs	r1, #4
 1018 0026 FFF7FEFF 		bl	LED_Driver_LRBWS_ClearRC
 1019              	.LVL102:
 315:.\Dash_Funcs.c ****         }        
 316:.\Dash_Funcs.c ****     //Left3
 317:.\Dash_Funcs.c ****          if(Left3 > Left3Thresh)
 318:.\Dash_Funcs.c ****         {
 319:.\Dash_Funcs.c ****         LED_Driver_LRBWS_SetRC(2,4);
 320:.\Dash_Funcs.c ****         }
 321:.\Dash_Funcs.c ****         else
 322:.\Dash_Funcs.c ****         {
 323:.\Dash_Funcs.c ****         LED_Driver_LRBWS_ClearRC(2,4);
 1020              		.loc 1 323 0
 1021 002a 0220     		movs	r0, #2
 1022 002c 0421     		movs	r1, #4
 1023 002e FFF7FEFF 		bl	LED_Driver_LRBWS_ClearRC
 1024              	.LVL103:
 324:.\Dash_Funcs.c ****         }       
 325:.\Dash_Funcs.c ****     //Right1
 326:.\Dash_Funcs.c ****         if(Right1 < Right1Thresh)
 1025              		.loc 1 326 0
 1026 0032 2046     		mov	r0, r4
 1027 0034 2946     		mov	r1, r5
 1028 0036 0022     		movs	r2, #0
 1029 0038 0D4B     		ldr	r3, .L53+8
 1030 003a FFF7FEFF 		bl	__aeabi_dcmplt
 1031              	.LVL104:
 1032 003e 20B1     		cbz	r0, .L51
 327:.\Dash_Funcs.c ****         {
 328:.\Dash_Funcs.c ****         LED_Driver_LRBWS_SetRC(3,4);
ARM GAS  C:\Users\charl\AppData\Local\Temp\cc1E4r6O.s 			page 25


 1033              		.loc 1 328 0
 1034 0040 0320     		movs	r0, #3
 1035 0042 0421     		movs	r1, #4
 1036 0044 FFF7FEFF 		bl	LED_Driver_LRBWS_SetRC
 1037              	.LVL105:
 1038 0048 03E0     		b	.L49
 1039              	.L51:
 329:.\Dash_Funcs.c ****         }
 330:.\Dash_Funcs.c ****         else
 331:.\Dash_Funcs.c ****         {
 332:.\Dash_Funcs.c ****         LED_Driver_LRBWS_ClearRC(3,4);
 1040              		.loc 1 332 0
 1041 004a 0320     		movs	r0, #3
 1042 004c 0421     		movs	r1, #4
 1043 004e FFF7FEFF 		bl	LED_Driver_LRBWS_ClearRC
 1044              	.LVL106:
 1045              	.L49:
 333:.\Dash_Funcs.c ****         }        
 334:.\Dash_Funcs.c ****     //Right2
 335:.\Dash_Funcs.c ****         if(Right2 > Right2Thresh)
 336:.\Dash_Funcs.c ****         {
 337:.\Dash_Funcs.c ****         LED_Driver_LRBWS_SetRC(4,4);
 338:.\Dash_Funcs.c ****         }
 339:.\Dash_Funcs.c ****         else
 340:.\Dash_Funcs.c ****         {
 341:.\Dash_Funcs.c ****         LED_Driver_LRBWS_ClearRC(4,4);
 1046              		.loc 1 341 0
 1047 0052 0420     		movs	r0, #4
 1048 0054 0146     		mov	r1, r0
 1049 0056 FFF7FEFF 		bl	LED_Driver_LRBWS_ClearRC
 1050              	.LVL107:
 342:.\Dash_Funcs.c ****         }        
 343:.\Dash_Funcs.c ****     //Right3
 344:.\Dash_Funcs.c ****         if(Right3 < Right3Thresh)
 345:.\Dash_Funcs.c ****         {
 346:.\Dash_Funcs.c ****         LED_Driver_LRBWS_SetRC(5,4);
 1051              		.loc 1 346 0
 1052 005a 0520     		movs	r0, #5
 1053 005c 0421     		movs	r1, #4
 1054 005e FFF7FEFF 		bl	LED_Driver_LRBWS_SetRC
 1055              	.LVL108:
 347:.\Dash_Funcs.c ****         }
 348:.\Dash_Funcs.c ****         else
 349:.\Dash_Funcs.c ****         {
 350:.\Dash_Funcs.c ****         LED_Driver_LRBWS_ClearRC(5,4);
 351:.\Dash_Funcs.c ****         }        
 352:.\Dash_Funcs.c ****     return 0;
 353:.\Dash_Funcs.c **** }
 1056              		.loc 1 353 0
 1057 0062 0020     		movs	r0, #0
 1058 0064 38BD     		pop	{r3, r4, r5, pc}
 1059              	.LVL109:
 1060              	.L54:
 1061 0066 00BF     		.align	2
 1062              	.L53:
 1063 0068 00000000 		.word	motorTemp
 1064 006c 00000000 		.word	nodeDCVoltage
ARM GAS  C:\Users\charl\AppData\Local\Temp\cc1E4r6O.s 			page 26


 1065 0070 00002840 		.word	1076363264
 1066              		.cfi_endproc
 1067              	.LFE69:
 1068              		.size	WarningLights, .-WarningLights
 1069              		.comm	PrevState,1,1
 1070              		.comm	state,1,1
 1071              		.text
 1072              	.Letext0:
 1073              		.file 2 "c:\\program files (x86)\\cypress\\psoc creator\\3.3\\psoc creator\\import\\gnu\\arm\\4.9.
 1074              		.file 3 "c:\\program files (x86)\\cypress\\psoc creator\\3.3\\psoc creator\\import\\gnu\\arm\\4.9.
 1075              		.file 4 "Generated_Source\\PSoC5/cytypes.h"
 1076              		.file 5 "c:\\program files (x86)\\cypress\\psoc creator\\3.3\\psoc creator\\import\\gnu\\arm\\4.9.
 1077              		.file 6 ".\\Dash_Funcs.h"
 1078              		.file 7 "Generated_Source\\PSoC5/core_cm3.h"
 1079              		.file 8 "Generated_Source\\PSoC5/LED_Driver_LRBWS.h"
 1080              		.file 9 "Generated_Source\\PSoC5/LED_Driver_Gear.h"
 1081              		.file 10 "Generated_Source\\PSoC5/Page_Button.h"